
THL_Project_Basic.elf:     file format elf32-littlearm

Sections:
Idx Name          Size      VMA       LMA       File off  Algn
  0 .isr_vector   000001c4  08000000  08000000  00010000  2**0
                  CONTENTS, ALLOC, LOAD, READONLY, DATA
  1 .text         000081a8  080001d0  080001d0  000101d0  2**4
                  CONTENTS, ALLOC, LOAD, READONLY, CODE
  2 .rodata       000005b8  08008378  08008378  00018378  2**3
                  CONTENTS, ALLOC, LOAD, READONLY, DATA
  3 .ARM          00000008  08008930  08008930  00018930  2**2
                  CONTENTS, ALLOC, LOAD, READONLY, DATA
  4 .init_array   00000004  08008938  08008938  00018938  2**2
                  CONTENTS, ALLOC, LOAD, DATA
  5 .fini_array   00000004  0800893c  0800893c  0001893c  2**2
                  CONTENTS, ALLOC, LOAD, DATA
  6 .data         0000067c  20000000  08008940  00020000  2**2
                  CONTENTS, ALLOC, LOAD, DATA
  7 .bss          000007ac  2000067c  08008fbc  0002067c  2**2
                  ALLOC
  8 ._user_heap_stack 00000600  20000e28  08008fbc  00020e28  2**0
                  ALLOC
  9 .ARM.attributes 00000030  00000000  00000000  0002067c  2**0
                  CONTENTS, READONLY
 10 .debug_info   00027002  00000000  00000000  000206ac  2**0
                  CONTENTS, READONLY, DEBUGGING
 11 .debug_abbrev 000041ea  00000000  00000000  000476ae  2**0
                  CONTENTS, READONLY, DEBUGGING
 12 .debug_loc    0000ee33  00000000  00000000  0004b898  2**0
                  CONTENTS, READONLY, DEBUGGING
 13 .debug_aranges 000014a0  00000000  00000000  0005a6d0  2**3
                  CONTENTS, READONLY, DEBUGGING
 14 .debug_ranges 00001388  00000000  00000000  0005bb70  2**3
                  CONTENTS, READONLY, DEBUGGING
 15 .debug_line   0000ab41  00000000  00000000  0005cef8  2**0
                  CONTENTS, READONLY, DEBUGGING
 16 .debug_str    00005aad  00000000  00000000  00067a39  2**0
                  CONTENTS, READONLY, DEBUGGING
 17 .comment      0000007c  00000000  00000000  0006d4e6  2**0
                  CONTENTS, READONLY
 18 .debug_frame  00004658  00000000  00000000  0006d564  2**2
                  CONTENTS, READONLY, DEBUGGING
 19 .stabstr      000000df  00000000  00000000  00071bbc  2**0
                  CONTENTS, READONLY, DEBUGGING

Disassembly of section .text:

080001d0 <__do_global_dtors_aux>:
 80001d0:	b510      	push	{r4, lr}
 80001d2:	4c05      	ldr	r4, [pc, #20]	; (80001e8 <__do_global_dtors_aux+0x18>)
 80001d4:	7823      	ldrb	r3, [r4, #0]
 80001d6:	b933      	cbnz	r3, 80001e6 <__do_global_dtors_aux+0x16>
 80001d8:	4b04      	ldr	r3, [pc, #16]	; (80001ec <__do_global_dtors_aux+0x1c>)
 80001da:	b113      	cbz	r3, 80001e2 <__do_global_dtors_aux+0x12>
 80001dc:	4804      	ldr	r0, [pc, #16]	; (80001f0 <__do_global_dtors_aux+0x20>)
 80001de:	f3af 8000 	nop.w
 80001e2:	2301      	movs	r3, #1
 80001e4:	7023      	strb	r3, [r4, #0]
 80001e6:	bd10      	pop	{r4, pc}
 80001e8:	2000067c 	.word	0x2000067c
 80001ec:	00000000 	.word	0x00000000
 80001f0:	08008360 	.word	0x08008360

080001f4 <frame_dummy>:
 80001f4:	b508      	push	{r3, lr}
 80001f6:	4b03      	ldr	r3, [pc, #12]	; (8000204 <frame_dummy+0x10>)
 80001f8:	b11b      	cbz	r3, 8000202 <frame_dummy+0xe>
 80001fa:	4903      	ldr	r1, [pc, #12]	; (8000208 <frame_dummy+0x14>)
 80001fc:	4803      	ldr	r0, [pc, #12]	; (800020c <frame_dummy+0x18>)
 80001fe:	f3af 8000 	nop.w
 8000202:	bd08      	pop	{r3, pc}
 8000204:	00000000 	.word	0x00000000
 8000208:	20000680 	.word	0x20000680
 800020c:	08008360 	.word	0x08008360

08000210 <strlen>:
 8000210:	4603      	mov	r3, r0
 8000212:	f813 2b01 	ldrb.w	r2, [r3], #1
 8000216:	2a00      	cmp	r2, #0
 8000218:	d1fb      	bne.n	8000212 <strlen+0x2>
 800021a:	1a18      	subs	r0, r3, r0
 800021c:	3801      	subs	r0, #1
 800021e:	4770      	bx	lr

08000220 <memchr>:
 8000220:	f001 01ff 	and.w	r1, r1, #255	; 0xff
 8000224:	2a10      	cmp	r2, #16
 8000226:	db2b      	blt.n	8000280 <memchr+0x60>
 8000228:	f010 0f07 	tst.w	r0, #7
 800022c:	d008      	beq.n	8000240 <memchr+0x20>
 800022e:	f810 3b01 	ldrb.w	r3, [r0], #1
 8000232:	3a01      	subs	r2, #1
 8000234:	428b      	cmp	r3, r1
 8000236:	d02d      	beq.n	8000294 <memchr+0x74>
 8000238:	f010 0f07 	tst.w	r0, #7
 800023c:	b342      	cbz	r2, 8000290 <memchr+0x70>
 800023e:	d1f6      	bne.n	800022e <memchr+0xe>
 8000240:	b4f0      	push	{r4, r5, r6, r7}
 8000242:	ea41 2101 	orr.w	r1, r1, r1, lsl #8
 8000246:	ea41 4101 	orr.w	r1, r1, r1, lsl #16
 800024a:	f022 0407 	bic.w	r4, r2, #7
 800024e:	f07f 0700 	mvns.w	r7, #0
 8000252:	2300      	movs	r3, #0
 8000254:	e8f0 5602 	ldrd	r5, r6, [r0], #8
 8000258:	3c08      	subs	r4, #8
 800025a:	ea85 0501 	eor.w	r5, r5, r1
 800025e:	ea86 0601 	eor.w	r6, r6, r1
 8000262:	fa85 f547 	uadd8	r5, r5, r7
 8000266:	faa3 f587 	sel	r5, r3, r7
 800026a:	fa86 f647 	uadd8	r6, r6, r7
 800026e:	faa5 f687 	sel	r6, r5, r7
 8000272:	b98e      	cbnz	r6, 8000298 <memchr+0x78>
 8000274:	d1ee      	bne.n	8000254 <memchr+0x34>
 8000276:	bcf0      	pop	{r4, r5, r6, r7}
 8000278:	f001 01ff 	and.w	r1, r1, #255	; 0xff
 800027c:	f002 0207 	and.w	r2, r2, #7
 8000280:	b132      	cbz	r2, 8000290 <memchr+0x70>
 8000282:	f810 3b01 	ldrb.w	r3, [r0], #1
 8000286:	3a01      	subs	r2, #1
 8000288:	ea83 0301 	eor.w	r3, r3, r1
 800028c:	b113      	cbz	r3, 8000294 <memchr+0x74>
 800028e:	d1f8      	bne.n	8000282 <memchr+0x62>
 8000290:	2000      	movs	r0, #0
 8000292:	4770      	bx	lr
 8000294:	3801      	subs	r0, #1
 8000296:	4770      	bx	lr
 8000298:	2d00      	cmp	r5, #0
 800029a:	bf06      	itte	eq
 800029c:	4635      	moveq	r5, r6
 800029e:	3803      	subeq	r0, #3
 80002a0:	3807      	subne	r0, #7
 80002a2:	f015 0f01 	tst.w	r5, #1
 80002a6:	d107      	bne.n	80002b8 <memchr+0x98>
 80002a8:	3001      	adds	r0, #1
 80002aa:	f415 7f80 	tst.w	r5, #256	; 0x100
 80002ae:	bf02      	ittt	eq
 80002b0:	3001      	addeq	r0, #1
 80002b2:	f415 3fc0 	tsteq.w	r5, #98304	; 0x18000
 80002b6:	3001      	addeq	r0, #1
 80002b8:	bcf0      	pop	{r4, r5, r6, r7}
 80002ba:	3801      	subs	r0, #1
 80002bc:	4770      	bx	lr
 80002be:	bf00      	nop

080002c0 <__aeabi_drsub>:
 80002c0:	f081 4100 	eor.w	r1, r1, #2147483648	; 0x80000000
 80002c4:	e002      	b.n	80002cc <__adddf3>
 80002c6:	bf00      	nop

080002c8 <__aeabi_dsub>:
 80002c8:	f083 4300 	eor.w	r3, r3, #2147483648	; 0x80000000

080002cc <__adddf3>:
 80002cc:	b530      	push	{r4, r5, lr}
 80002ce:	ea4f 0441 	mov.w	r4, r1, lsl #1
 80002d2:	ea4f 0543 	mov.w	r5, r3, lsl #1
 80002d6:	ea94 0f05 	teq	r4, r5
 80002da:	bf08      	it	eq
 80002dc:	ea90 0f02 	teqeq	r0, r2
 80002e0:	bf1f      	itttt	ne
 80002e2:	ea54 0c00 	orrsne.w	ip, r4, r0
 80002e6:	ea55 0c02 	orrsne.w	ip, r5, r2
 80002ea:	ea7f 5c64 	mvnsne.w	ip, r4, asr #21
 80002ee:	ea7f 5c65 	mvnsne.w	ip, r5, asr #21
 80002f2:	f000 80e2 	beq.w	80004ba <__adddf3+0x1ee>
 80002f6:	ea4f 5454 	mov.w	r4, r4, lsr #21
 80002fa:	ebd4 5555 	rsbs	r5, r4, r5, lsr #21
 80002fe:	bfb8      	it	lt
 8000300:	426d      	neglt	r5, r5
 8000302:	dd0c      	ble.n	800031e <__adddf3+0x52>
 8000304:	442c      	add	r4, r5
 8000306:	ea80 0202 	eor.w	r2, r0, r2
 800030a:	ea81 0303 	eor.w	r3, r1, r3
 800030e:	ea82 0000 	eor.w	r0, r2, r0
 8000312:	ea83 0101 	eor.w	r1, r3, r1
 8000316:	ea80 0202 	eor.w	r2, r0, r2
 800031a:	ea81 0303 	eor.w	r3, r1, r3
 800031e:	2d36      	cmp	r5, #54	; 0x36
 8000320:	bf88      	it	hi
 8000322:	bd30      	pophi	{r4, r5, pc}
 8000324:	f011 4f00 	tst.w	r1, #2147483648	; 0x80000000
 8000328:	ea4f 3101 	mov.w	r1, r1, lsl #12
 800032c:	f44f 1c80 	mov.w	ip, #1048576	; 0x100000
 8000330:	ea4c 3111 	orr.w	r1, ip, r1, lsr #12
 8000334:	d002      	beq.n	800033c <__adddf3+0x70>
 8000336:	4240      	negs	r0, r0
 8000338:	eb61 0141 	sbc.w	r1, r1, r1, lsl #1
 800033c:	f013 4f00 	tst.w	r3, #2147483648	; 0x80000000
 8000340:	ea4f 3303 	mov.w	r3, r3, lsl #12
 8000344:	ea4c 3313 	orr.w	r3, ip, r3, lsr #12
 8000348:	d002      	beq.n	8000350 <__adddf3+0x84>
 800034a:	4252      	negs	r2, r2
 800034c:	eb63 0343 	sbc.w	r3, r3, r3, lsl #1
 8000350:	ea94 0f05 	teq	r4, r5
 8000354:	f000 80a7 	beq.w	80004a6 <__adddf3+0x1da>
 8000358:	f1a4 0401 	sub.w	r4, r4, #1
 800035c:	f1d5 0e20 	rsbs	lr, r5, #32
 8000360:	db0d      	blt.n	800037e <__adddf3+0xb2>
 8000362:	fa02 fc0e 	lsl.w	ip, r2, lr
 8000366:	fa22 f205 	lsr.w	r2, r2, r5
 800036a:	1880      	adds	r0, r0, r2
 800036c:	f141 0100 	adc.w	r1, r1, #0
 8000370:	fa03 f20e 	lsl.w	r2, r3, lr
 8000374:	1880      	adds	r0, r0, r2
 8000376:	fa43 f305 	asr.w	r3, r3, r5
 800037a:	4159      	adcs	r1, r3
 800037c:	e00e      	b.n	800039c <__adddf3+0xd0>
 800037e:	f1a5 0520 	sub.w	r5, r5, #32
 8000382:	f10e 0e20 	add.w	lr, lr, #32
 8000386:	2a01      	cmp	r2, #1
 8000388:	fa03 fc0e 	lsl.w	ip, r3, lr
 800038c:	bf28      	it	cs
 800038e:	f04c 0c02 	orrcs.w	ip, ip, #2
 8000392:	fa43 f305 	asr.w	r3, r3, r5
 8000396:	18c0      	adds	r0, r0, r3
 8000398:	eb51 71e3 	adcs.w	r1, r1, r3, asr #31
 800039c:	f001 4500 	and.w	r5, r1, #2147483648	; 0x80000000
 80003a0:	d507      	bpl.n	80003b2 <__adddf3+0xe6>
 80003a2:	f04f 0e00 	mov.w	lr, #0
 80003a6:	f1dc 0c00 	rsbs	ip, ip, #0
 80003aa:	eb7e 0000 	sbcs.w	r0, lr, r0
 80003ae:	eb6e 0101 	sbc.w	r1, lr, r1
 80003b2:	f5b1 1f80 	cmp.w	r1, #1048576	; 0x100000
 80003b6:	d31b      	bcc.n	80003f0 <__adddf3+0x124>
 80003b8:	f5b1 1f00 	cmp.w	r1, #2097152	; 0x200000
 80003bc:	d30c      	bcc.n	80003d8 <__adddf3+0x10c>
 80003be:	0849      	lsrs	r1, r1, #1
 80003c0:	ea5f 0030 	movs.w	r0, r0, rrx
 80003c4:	ea4f 0c3c 	mov.w	ip, ip, rrx
 80003c8:	f104 0401 	add.w	r4, r4, #1
 80003cc:	ea4f 5244 	mov.w	r2, r4, lsl #21
 80003d0:	f512 0f80 	cmn.w	r2, #4194304	; 0x400000
 80003d4:	f080 809a 	bcs.w	800050c <__adddf3+0x240>
 80003d8:	f1bc 4f00 	cmp.w	ip, #2147483648	; 0x80000000
 80003dc:	bf08      	it	eq
 80003de:	ea5f 0c50 	movseq.w	ip, r0, lsr #1
 80003e2:	f150 0000 	adcs.w	r0, r0, #0
 80003e6:	eb41 5104 	adc.w	r1, r1, r4, lsl #20
 80003ea:	ea41 0105 	orr.w	r1, r1, r5
 80003ee:	bd30      	pop	{r4, r5, pc}
 80003f0:	ea5f 0c4c 	movs.w	ip, ip, lsl #1
 80003f4:	4140      	adcs	r0, r0
 80003f6:	eb41 0101 	adc.w	r1, r1, r1
 80003fa:	f411 1f80 	tst.w	r1, #1048576	; 0x100000
 80003fe:	f1a4 0401 	sub.w	r4, r4, #1
 8000402:	d1e9      	bne.n	80003d8 <__adddf3+0x10c>
 8000404:	f091 0f00 	teq	r1, #0
 8000408:	bf04      	itt	eq
 800040a:	4601      	moveq	r1, r0
 800040c:	2000      	moveq	r0, #0
 800040e:	fab1 f381 	clz	r3, r1
 8000412:	bf08      	it	eq
 8000414:	3320      	addeq	r3, #32
 8000416:	f1a3 030b 	sub.w	r3, r3, #11
 800041a:	f1b3 0220 	subs.w	r2, r3, #32
 800041e:	da0c      	bge.n	800043a <__adddf3+0x16e>
 8000420:	320c      	adds	r2, #12
 8000422:	dd08      	ble.n	8000436 <__adddf3+0x16a>
 8000424:	f102 0c14 	add.w	ip, r2, #20
 8000428:	f1c2 020c 	rsb	r2, r2, #12
 800042c:	fa01 f00c 	lsl.w	r0, r1, ip
 8000430:	fa21 f102 	lsr.w	r1, r1, r2
 8000434:	e00c      	b.n	8000450 <__adddf3+0x184>
 8000436:	f102 0214 	add.w	r2, r2, #20
 800043a:	bfd8      	it	le
 800043c:	f1c2 0c20 	rsble	ip, r2, #32
 8000440:	fa01 f102 	lsl.w	r1, r1, r2
 8000444:	fa20 fc0c 	lsr.w	ip, r0, ip
 8000448:	bfdc      	itt	le
 800044a:	ea41 010c 	orrle.w	r1, r1, ip
 800044e:	4090      	lslle	r0, r2
 8000450:	1ae4      	subs	r4, r4, r3
 8000452:	bfa2      	ittt	ge
 8000454:	eb01 5104 	addge.w	r1, r1, r4, lsl #20
 8000458:	4329      	orrge	r1, r5
 800045a:	bd30      	popge	{r4, r5, pc}
 800045c:	ea6f 0404 	mvn.w	r4, r4
 8000460:	3c1f      	subs	r4, #31
 8000462:	da1c      	bge.n	800049e <__adddf3+0x1d2>
 8000464:	340c      	adds	r4, #12
 8000466:	dc0e      	bgt.n	8000486 <__adddf3+0x1ba>
 8000468:	f104 0414 	add.w	r4, r4, #20
 800046c:	f1c4 0220 	rsb	r2, r4, #32
 8000470:	fa20 f004 	lsr.w	r0, r0, r4
 8000474:	fa01 f302 	lsl.w	r3, r1, r2
 8000478:	ea40 0003 	orr.w	r0, r0, r3
 800047c:	fa21 f304 	lsr.w	r3, r1, r4
 8000480:	ea45 0103 	orr.w	r1, r5, r3
 8000484:	bd30      	pop	{r4, r5, pc}
 8000486:	f1c4 040c 	rsb	r4, r4, #12
 800048a:	f1c4 0220 	rsb	r2, r4, #32
 800048e:	fa20 f002 	lsr.w	r0, r0, r2
 8000492:	fa01 f304 	lsl.w	r3, r1, r4
 8000496:	ea40 0003 	orr.w	r0, r0, r3
 800049a:	4629      	mov	r1, r5
 800049c:	bd30      	pop	{r4, r5, pc}
 800049e:	fa21 f004 	lsr.w	r0, r1, r4
 80004a2:	4629      	mov	r1, r5
 80004a4:	bd30      	pop	{r4, r5, pc}
 80004a6:	f094 0f00 	teq	r4, #0
 80004aa:	f483 1380 	eor.w	r3, r3, #1048576	; 0x100000
 80004ae:	bf06      	itte	eq
 80004b0:	f481 1180 	eoreq.w	r1, r1, #1048576	; 0x100000
 80004b4:	3401      	addeq	r4, #1
 80004b6:	3d01      	subne	r5, #1
 80004b8:	e74e      	b.n	8000358 <__adddf3+0x8c>
 80004ba:	ea7f 5c64 	mvns.w	ip, r4, asr #21
 80004be:	bf18      	it	ne
 80004c0:	ea7f 5c65 	mvnsne.w	ip, r5, asr #21
 80004c4:	d029      	beq.n	800051a <__adddf3+0x24e>
 80004c6:	ea94 0f05 	teq	r4, r5
 80004ca:	bf08      	it	eq
 80004cc:	ea90 0f02 	teqeq	r0, r2
 80004d0:	d005      	beq.n	80004de <__adddf3+0x212>
 80004d2:	ea54 0c00 	orrs.w	ip, r4, r0
 80004d6:	bf04      	itt	eq
 80004d8:	4619      	moveq	r1, r3
 80004da:	4610      	moveq	r0, r2
 80004dc:	bd30      	pop	{r4, r5, pc}
 80004de:	ea91 0f03 	teq	r1, r3
 80004e2:	bf1e      	ittt	ne
 80004e4:	2100      	movne	r1, #0
 80004e6:	2000      	movne	r0, #0
 80004e8:	bd30      	popne	{r4, r5, pc}
 80004ea:	ea5f 5c54 	movs.w	ip, r4, lsr #21
 80004ee:	d105      	bne.n	80004fc <__adddf3+0x230>
 80004f0:	0040      	lsls	r0, r0, #1
 80004f2:	4149      	adcs	r1, r1
 80004f4:	bf28      	it	cs
 80004f6:	f041 4100 	orrcs.w	r1, r1, #2147483648	; 0x80000000
 80004fa:	bd30      	pop	{r4, r5, pc}
 80004fc:	f514 0480 	adds.w	r4, r4, #4194304	; 0x400000
 8000500:	bf3c      	itt	cc
 8000502:	f501 1180 	addcc.w	r1, r1, #1048576	; 0x100000
 8000506:	bd30      	popcc	{r4, r5, pc}
 8000508:	f001 4500 	and.w	r5, r1, #2147483648	; 0x80000000
 800050c:	f045 41fe 	orr.w	r1, r5, #2130706432	; 0x7f000000
 8000510:	f441 0170 	orr.w	r1, r1, #15728640	; 0xf00000
 8000514:	f04f 0000 	mov.w	r0, #0
 8000518:	bd30      	pop	{r4, r5, pc}
 800051a:	ea7f 5c64 	mvns.w	ip, r4, asr #21
 800051e:	bf1a      	itte	ne
 8000520:	4619      	movne	r1, r3
 8000522:	4610      	movne	r0, r2
 8000524:	ea7f 5c65 	mvnseq.w	ip, r5, asr #21
 8000528:	bf1c      	itt	ne
 800052a:	460b      	movne	r3, r1
 800052c:	4602      	movne	r2, r0
 800052e:	ea50 3401 	orrs.w	r4, r0, r1, lsl #12
 8000532:	bf06      	itte	eq
 8000534:	ea52 3503 	orrseq.w	r5, r2, r3, lsl #12
 8000538:	ea91 0f03 	teqeq	r1, r3
 800053c:	f441 2100 	orrne.w	r1, r1, #524288	; 0x80000
 8000540:	bd30      	pop	{r4, r5, pc}
 8000542:	bf00      	nop

08000544 <__aeabi_ui2d>:
 8000544:	f090 0f00 	teq	r0, #0
 8000548:	bf04      	itt	eq
 800054a:	2100      	moveq	r1, #0
 800054c:	4770      	bxeq	lr
 800054e:	b530      	push	{r4, r5, lr}
 8000550:	f44f 6480 	mov.w	r4, #1024	; 0x400
 8000554:	f104 0432 	add.w	r4, r4, #50	; 0x32
 8000558:	f04f 0500 	mov.w	r5, #0
 800055c:	f04f 0100 	mov.w	r1, #0
 8000560:	e750      	b.n	8000404 <__adddf3+0x138>
 8000562:	bf00      	nop

08000564 <__aeabi_i2d>:
 8000564:	f090 0f00 	teq	r0, #0
 8000568:	bf04      	itt	eq
 800056a:	2100      	moveq	r1, #0
 800056c:	4770      	bxeq	lr
 800056e:	b530      	push	{r4, r5, lr}
 8000570:	f44f 6480 	mov.w	r4, #1024	; 0x400
 8000574:	f104 0432 	add.w	r4, r4, #50	; 0x32
 8000578:	f010 4500 	ands.w	r5, r0, #2147483648	; 0x80000000
 800057c:	bf48      	it	mi
 800057e:	4240      	negmi	r0, r0
 8000580:	f04f 0100 	mov.w	r1, #0
 8000584:	e73e      	b.n	8000404 <__adddf3+0x138>
 8000586:	bf00      	nop

08000588 <__aeabi_f2d>:
 8000588:	0042      	lsls	r2, r0, #1
 800058a:	ea4f 01e2 	mov.w	r1, r2, asr #3
 800058e:	ea4f 0131 	mov.w	r1, r1, rrx
 8000592:	ea4f 7002 	mov.w	r0, r2, lsl #28
 8000596:	bf1f      	itttt	ne
 8000598:	f012 437f 	andsne.w	r3, r2, #4278190080	; 0xff000000
 800059c:	f093 4f7f 	teqne	r3, #4278190080	; 0xff000000
 80005a0:	f081 5160 	eorne.w	r1, r1, #939524096	; 0x38000000
 80005a4:	4770      	bxne	lr
 80005a6:	f092 0f00 	teq	r2, #0
 80005aa:	bf14      	ite	ne
 80005ac:	f093 4f7f 	teqne	r3, #4278190080	; 0xff000000
 80005b0:	4770      	bxeq	lr
 80005b2:	b530      	push	{r4, r5, lr}
 80005b4:	f44f 7460 	mov.w	r4, #896	; 0x380
 80005b8:	f001 4500 	and.w	r5, r1, #2147483648	; 0x80000000
 80005bc:	f021 4100 	bic.w	r1, r1, #2147483648	; 0x80000000
 80005c0:	e720      	b.n	8000404 <__adddf3+0x138>
 80005c2:	bf00      	nop

080005c4 <__aeabi_ul2d>:
 80005c4:	ea50 0201 	orrs.w	r2, r0, r1
 80005c8:	bf08      	it	eq
 80005ca:	4770      	bxeq	lr
 80005cc:	b530      	push	{r4, r5, lr}
 80005ce:	f04f 0500 	mov.w	r5, #0
 80005d2:	e00a      	b.n	80005ea <__aeabi_l2d+0x16>

080005d4 <__aeabi_l2d>:
 80005d4:	ea50 0201 	orrs.w	r2, r0, r1
 80005d8:	bf08      	it	eq
 80005da:	4770      	bxeq	lr
 80005dc:	b530      	push	{r4, r5, lr}
 80005de:	f011 4500 	ands.w	r5, r1, #2147483648	; 0x80000000
 80005e2:	d502      	bpl.n	80005ea <__aeabi_l2d+0x16>
 80005e4:	4240      	negs	r0, r0
 80005e6:	eb61 0141 	sbc.w	r1, r1, r1, lsl #1
 80005ea:	f44f 6480 	mov.w	r4, #1024	; 0x400
 80005ee:	f104 0432 	add.w	r4, r4, #50	; 0x32
 80005f2:	ea5f 5c91 	movs.w	ip, r1, lsr #22
 80005f6:	f43f aedc 	beq.w	80003b2 <__adddf3+0xe6>
 80005fa:	f04f 0203 	mov.w	r2, #3
 80005fe:	ea5f 0cdc 	movs.w	ip, ip, lsr #3
 8000602:	bf18      	it	ne
 8000604:	3203      	addne	r2, #3
 8000606:	ea5f 0cdc 	movs.w	ip, ip, lsr #3
 800060a:	bf18      	it	ne
 800060c:	3203      	addne	r2, #3
 800060e:	eb02 02dc 	add.w	r2, r2, ip, lsr #3
 8000612:	f1c2 0320 	rsb	r3, r2, #32
 8000616:	fa00 fc03 	lsl.w	ip, r0, r3
 800061a:	fa20 f002 	lsr.w	r0, r0, r2
 800061e:	fa01 fe03 	lsl.w	lr, r1, r3
 8000622:	ea40 000e 	orr.w	r0, r0, lr
 8000626:	fa21 f102 	lsr.w	r1, r1, r2
 800062a:	4414      	add	r4, r2
 800062c:	e6c1      	b.n	80003b2 <__adddf3+0xe6>
 800062e:	bf00      	nop

08000630 <__aeabi_dmul>:
 8000630:	b570      	push	{r4, r5, r6, lr}
 8000632:	f04f 0cff 	mov.w	ip, #255	; 0xff
 8000636:	f44c 6ce0 	orr.w	ip, ip, #1792	; 0x700
 800063a:	ea1c 5411 	ands.w	r4, ip, r1, lsr #20
 800063e:	bf1d      	ittte	ne
 8000640:	ea1c 5513 	andsne.w	r5, ip, r3, lsr #20
 8000644:	ea94 0f0c 	teqne	r4, ip
 8000648:	ea95 0f0c 	teqne	r5, ip
 800064c:	f000 f8de 	bleq	800080c <__aeabi_dmul+0x1dc>
 8000650:	442c      	add	r4, r5
 8000652:	ea81 0603 	eor.w	r6, r1, r3
 8000656:	ea21 514c 	bic.w	r1, r1, ip, lsl #21
 800065a:	ea23 534c 	bic.w	r3, r3, ip, lsl #21
 800065e:	ea50 3501 	orrs.w	r5, r0, r1, lsl #12
 8000662:	bf18      	it	ne
 8000664:	ea52 3503 	orrsne.w	r5, r2, r3, lsl #12
 8000668:	f441 1180 	orr.w	r1, r1, #1048576	; 0x100000
 800066c:	f443 1380 	orr.w	r3, r3, #1048576	; 0x100000
 8000670:	d038      	beq.n	80006e4 <__aeabi_dmul+0xb4>
 8000672:	fba0 ce02 	umull	ip, lr, r0, r2
 8000676:	f04f 0500 	mov.w	r5, #0
 800067a:	fbe1 e502 	umlal	lr, r5, r1, r2
 800067e:	f006 4200 	and.w	r2, r6, #2147483648	; 0x80000000
 8000682:	fbe0 e503 	umlal	lr, r5, r0, r3
 8000686:	f04f 0600 	mov.w	r6, #0
 800068a:	fbe1 5603 	umlal	r5, r6, r1, r3
 800068e:	f09c 0f00 	teq	ip, #0
 8000692:	bf18      	it	ne
 8000694:	f04e 0e01 	orrne.w	lr, lr, #1
 8000698:	f1a4 04ff 	sub.w	r4, r4, #255	; 0xff
 800069c:	f5b6 7f00 	cmp.w	r6, #512	; 0x200
 80006a0:	f564 7440 	sbc.w	r4, r4, #768	; 0x300
 80006a4:	d204      	bcs.n	80006b0 <__aeabi_dmul+0x80>
 80006a6:	ea5f 0e4e 	movs.w	lr, lr, lsl #1
 80006aa:	416d      	adcs	r5, r5
 80006ac:	eb46 0606 	adc.w	r6, r6, r6
 80006b0:	ea42 21c6 	orr.w	r1, r2, r6, lsl #11
 80006b4:	ea41 5155 	orr.w	r1, r1, r5, lsr #21
 80006b8:	ea4f 20c5 	mov.w	r0, r5, lsl #11
 80006bc:	ea40 505e 	orr.w	r0, r0, lr, lsr #21
 80006c0:	ea4f 2ece 	mov.w	lr, lr, lsl #11
 80006c4:	f1b4 0cfd 	subs.w	ip, r4, #253	; 0xfd
 80006c8:	bf88      	it	hi
 80006ca:	f5bc 6fe0 	cmphi.w	ip, #1792	; 0x700
 80006ce:	d81e      	bhi.n	800070e <__aeabi_dmul+0xde>
 80006d0:	f1be 4f00 	cmp.w	lr, #2147483648	; 0x80000000
 80006d4:	bf08      	it	eq
 80006d6:	ea5f 0e50 	movseq.w	lr, r0, lsr #1
 80006da:	f150 0000 	adcs.w	r0, r0, #0
 80006de:	eb41 5104 	adc.w	r1, r1, r4, lsl #20
 80006e2:	bd70      	pop	{r4, r5, r6, pc}
 80006e4:	f006 4600 	and.w	r6, r6, #2147483648	; 0x80000000
 80006e8:	ea46 0101 	orr.w	r1, r6, r1
 80006ec:	ea40 0002 	orr.w	r0, r0, r2
 80006f0:	ea81 0103 	eor.w	r1, r1, r3
 80006f4:	ebb4 045c 	subs.w	r4, r4, ip, lsr #1
 80006f8:	bfc2      	ittt	gt
 80006fa:	ebd4 050c 	rsbsgt	r5, r4, ip
 80006fe:	ea41 5104 	orrgt.w	r1, r1, r4, lsl #20
 8000702:	bd70      	popgt	{r4, r5, r6, pc}
 8000704:	f441 1180 	orr.w	r1, r1, #1048576	; 0x100000
 8000708:	f04f 0e00 	mov.w	lr, #0
 800070c:	3c01      	subs	r4, #1
 800070e:	f300 80ab 	bgt.w	8000868 <__aeabi_dmul+0x238>
 8000712:	f114 0f36 	cmn.w	r4, #54	; 0x36
 8000716:	bfde      	ittt	le
 8000718:	2000      	movle	r0, #0
 800071a:	f001 4100 	andle.w	r1, r1, #2147483648	; 0x80000000
 800071e:	bd70      	pople	{r4, r5, r6, pc}
 8000720:	f1c4 0400 	rsb	r4, r4, #0
 8000724:	3c20      	subs	r4, #32
 8000726:	da35      	bge.n	8000794 <__aeabi_dmul+0x164>
 8000728:	340c      	adds	r4, #12
 800072a:	dc1b      	bgt.n	8000764 <__aeabi_dmul+0x134>
 800072c:	f104 0414 	add.w	r4, r4, #20
 8000730:	f1c4 0520 	rsb	r5, r4, #32
 8000734:	fa00 f305 	lsl.w	r3, r0, r5
 8000738:	fa20 f004 	lsr.w	r0, r0, r4
 800073c:	fa01 f205 	lsl.w	r2, r1, r5
 8000740:	ea40 0002 	orr.w	r0, r0, r2
 8000744:	f001 4200 	and.w	r2, r1, #2147483648	; 0x80000000
 8000748:	f021 4100 	bic.w	r1, r1, #2147483648	; 0x80000000
 800074c:	eb10 70d3 	adds.w	r0, r0, r3, lsr #31
 8000750:	fa21 f604 	lsr.w	r6, r1, r4
 8000754:	eb42 0106 	adc.w	r1, r2, r6
 8000758:	ea5e 0e43 	orrs.w	lr, lr, r3, lsl #1
 800075c:	bf08      	it	eq
 800075e:	ea20 70d3 	biceq.w	r0, r0, r3, lsr #31
 8000762:	bd70      	pop	{r4, r5, r6, pc}
 8000764:	f1c4 040c 	rsb	r4, r4, #12
 8000768:	f1c4 0520 	rsb	r5, r4, #32
 800076c:	fa00 f304 	lsl.w	r3, r0, r4
 8000770:	fa20 f005 	lsr.w	r0, r0, r5
 8000774:	fa01 f204 	lsl.w	r2, r1, r4
 8000778:	ea40 0002 	orr.w	r0, r0, r2
 800077c:	f001 4100 	and.w	r1, r1, #2147483648	; 0x80000000
 8000780:	eb10 70d3 	adds.w	r0, r0, r3, lsr #31
 8000784:	f141 0100 	adc.w	r1, r1, #0
 8000788:	ea5e 0e43 	orrs.w	lr, lr, r3, lsl #1
 800078c:	bf08      	it	eq
 800078e:	ea20 70d3 	biceq.w	r0, r0, r3, lsr #31
 8000792:	bd70      	pop	{r4, r5, r6, pc}
 8000794:	f1c4 0520 	rsb	r5, r4, #32
 8000798:	fa00 f205 	lsl.w	r2, r0, r5
 800079c:	ea4e 0e02 	orr.w	lr, lr, r2
 80007a0:	fa20 f304 	lsr.w	r3, r0, r4
 80007a4:	fa01 f205 	lsl.w	r2, r1, r5
 80007a8:	ea43 0302 	orr.w	r3, r3, r2
 80007ac:	fa21 f004 	lsr.w	r0, r1, r4
 80007b0:	f001 4100 	and.w	r1, r1, #2147483648	; 0x80000000
 80007b4:	fa21 f204 	lsr.w	r2, r1, r4
 80007b8:	ea20 0002 	bic.w	r0, r0, r2
 80007bc:	eb00 70d3 	add.w	r0, r0, r3, lsr #31
 80007c0:	ea5e 0e43 	orrs.w	lr, lr, r3, lsl #1
 80007c4:	bf08      	it	eq
 80007c6:	ea20 70d3 	biceq.w	r0, r0, r3, lsr #31
 80007ca:	bd70      	pop	{r4, r5, r6, pc}
 80007cc:	f094 0f00 	teq	r4, #0
 80007d0:	d10f      	bne.n	80007f2 <__aeabi_dmul+0x1c2>
 80007d2:	f001 4600 	and.w	r6, r1, #2147483648	; 0x80000000
 80007d6:	0040      	lsls	r0, r0, #1
 80007d8:	eb41 0101 	adc.w	r1, r1, r1
 80007dc:	f411 1f80 	tst.w	r1, #1048576	; 0x100000
 80007e0:	bf08      	it	eq
 80007e2:	3c01      	subeq	r4, #1
 80007e4:	d0f7      	beq.n	80007d6 <__aeabi_dmul+0x1a6>
 80007e6:	ea41 0106 	orr.w	r1, r1, r6
 80007ea:	f095 0f00 	teq	r5, #0
 80007ee:	bf18      	it	ne
 80007f0:	4770      	bxne	lr
 80007f2:	f003 4600 	and.w	r6, r3, #2147483648	; 0x80000000
 80007f6:	0052      	lsls	r2, r2, #1
 80007f8:	eb43 0303 	adc.w	r3, r3, r3
 80007fc:	f413 1f80 	tst.w	r3, #1048576	; 0x100000
 8000800:	bf08      	it	eq
 8000802:	3d01      	subeq	r5, #1
 8000804:	d0f7      	beq.n	80007f6 <__aeabi_dmul+0x1c6>
 8000806:	ea43 0306 	orr.w	r3, r3, r6
 800080a:	4770      	bx	lr
 800080c:	ea94 0f0c 	teq	r4, ip
 8000810:	ea0c 5513 	and.w	r5, ip, r3, lsr #20
 8000814:	bf18      	it	ne
 8000816:	ea95 0f0c 	teqne	r5, ip
 800081a:	d00c      	beq.n	8000836 <__aeabi_dmul+0x206>
 800081c:	ea50 0641 	orrs.w	r6, r0, r1, lsl #1
 8000820:	bf18      	it	ne
 8000822:	ea52 0643 	orrsne.w	r6, r2, r3, lsl #1
 8000826:	d1d1      	bne.n	80007cc <__aeabi_dmul+0x19c>
 8000828:	ea81 0103 	eor.w	r1, r1, r3
 800082c:	f001 4100 	and.w	r1, r1, #2147483648	; 0x80000000
 8000830:	f04f 0000 	mov.w	r0, #0
 8000834:	bd70      	pop	{r4, r5, r6, pc}
 8000836:	ea50 0641 	orrs.w	r6, r0, r1, lsl #1
 800083a:	bf06      	itte	eq
 800083c:	4610      	moveq	r0, r2
 800083e:	4619      	moveq	r1, r3
 8000840:	ea52 0643 	orrsne.w	r6, r2, r3, lsl #1
 8000844:	d019      	beq.n	800087a <__aeabi_dmul+0x24a>
 8000846:	ea94 0f0c 	teq	r4, ip
 800084a:	d102      	bne.n	8000852 <__aeabi_dmul+0x222>
 800084c:	ea50 3601 	orrs.w	r6, r0, r1, lsl #12
 8000850:	d113      	bne.n	800087a <__aeabi_dmul+0x24a>
 8000852:	ea95 0f0c 	teq	r5, ip
 8000856:	d105      	bne.n	8000864 <__aeabi_dmul+0x234>
 8000858:	ea52 3603 	orrs.w	r6, r2, r3, lsl #12
 800085c:	bf1c      	itt	ne
 800085e:	4610      	movne	r0, r2
 8000860:	4619      	movne	r1, r3
 8000862:	d10a      	bne.n	800087a <__aeabi_dmul+0x24a>
 8000864:	ea81 0103 	eor.w	r1, r1, r3
 8000868:	f001 4100 	and.w	r1, r1, #2147483648	; 0x80000000
 800086c:	f041 41fe 	orr.w	r1, r1, #2130706432	; 0x7f000000
 8000870:	f441 0170 	orr.w	r1, r1, #15728640	; 0xf00000
 8000874:	f04f 0000 	mov.w	r0, #0
 8000878:	bd70      	pop	{r4, r5, r6, pc}
 800087a:	f041 41fe 	orr.w	r1, r1, #2130706432	; 0x7f000000
 800087e:	f441 0178 	orr.w	r1, r1, #16252928	; 0xf80000
 8000882:	bd70      	pop	{r4, r5, r6, pc}

08000884 <__aeabi_ddiv>:
 8000884:	b570      	push	{r4, r5, r6, lr}
 8000886:	f04f 0cff 	mov.w	ip, #255	; 0xff
 800088a:	f44c 6ce0 	orr.w	ip, ip, #1792	; 0x700
 800088e:	ea1c 5411 	ands.w	r4, ip, r1, lsr #20
 8000892:	bf1d      	ittte	ne
 8000894:	ea1c 5513 	andsne.w	r5, ip, r3, lsr #20
 8000898:	ea94 0f0c 	teqne	r4, ip
 800089c:	ea95 0f0c 	teqne	r5, ip
 80008a0:	f000 f8a7 	bleq	80009f2 <__aeabi_ddiv+0x16e>
 80008a4:	eba4 0405 	sub.w	r4, r4, r5
 80008a8:	ea81 0e03 	eor.w	lr, r1, r3
 80008ac:	ea52 3503 	orrs.w	r5, r2, r3, lsl #12
 80008b0:	ea4f 3101 	mov.w	r1, r1, lsl #12
 80008b4:	f000 8088 	beq.w	80009c8 <__aeabi_ddiv+0x144>
 80008b8:	ea4f 3303 	mov.w	r3, r3, lsl #12
 80008bc:	f04f 5580 	mov.w	r5, #268435456	; 0x10000000
 80008c0:	ea45 1313 	orr.w	r3, r5, r3, lsr #4
 80008c4:	ea43 6312 	orr.w	r3, r3, r2, lsr #24
 80008c8:	ea4f 2202 	mov.w	r2, r2, lsl #8
 80008cc:	ea45 1511 	orr.w	r5, r5, r1, lsr #4
 80008d0:	ea45 6510 	orr.w	r5, r5, r0, lsr #24
 80008d4:	ea4f 2600 	mov.w	r6, r0, lsl #8
 80008d8:	f00e 4100 	and.w	r1, lr, #2147483648	; 0x80000000
 80008dc:	429d      	cmp	r5, r3
 80008de:	bf08      	it	eq
 80008e0:	4296      	cmpeq	r6, r2
 80008e2:	f144 04fd 	adc.w	r4, r4, #253	; 0xfd
 80008e6:	f504 7440 	add.w	r4, r4, #768	; 0x300
 80008ea:	d202      	bcs.n	80008f2 <__aeabi_ddiv+0x6e>
 80008ec:	085b      	lsrs	r3, r3, #1
 80008ee:	ea4f 0232 	mov.w	r2, r2, rrx
 80008f2:	1ab6      	subs	r6, r6, r2
 80008f4:	eb65 0503 	sbc.w	r5, r5, r3
 80008f8:	085b      	lsrs	r3, r3, #1
 80008fa:	ea4f 0232 	mov.w	r2, r2, rrx
 80008fe:	f44f 1080 	mov.w	r0, #1048576	; 0x100000
 8000902:	f44f 2c00 	mov.w	ip, #524288	; 0x80000
 8000906:	ebb6 0e02 	subs.w	lr, r6, r2
 800090a:	eb75 0e03 	sbcs.w	lr, r5, r3
 800090e:	bf22      	ittt	cs
 8000910:	1ab6      	subcs	r6, r6, r2
 8000912:	4675      	movcs	r5, lr
 8000914:	ea40 000c 	orrcs.w	r0, r0, ip
 8000918:	085b      	lsrs	r3, r3, #1
 800091a:	ea4f 0232 	mov.w	r2, r2, rrx
 800091e:	ebb6 0e02 	subs.w	lr, r6, r2
 8000922:	eb75 0e03 	sbcs.w	lr, r5, r3
 8000926:	bf22      	ittt	cs
 8000928:	1ab6      	subcs	r6, r6, r2
 800092a:	4675      	movcs	r5, lr
 800092c:	ea40 005c 	orrcs.w	r0, r0, ip, lsr #1
 8000930:	085b      	lsrs	r3, r3, #1
 8000932:	ea4f 0232 	mov.w	r2, r2, rrx
 8000936:	ebb6 0e02 	subs.w	lr, r6, r2
 800093a:	eb75 0e03 	sbcs.w	lr, r5, r3
 800093e:	bf22      	ittt	cs
 8000940:	1ab6      	subcs	r6, r6, r2
 8000942:	4675      	movcs	r5, lr
 8000944:	ea40 009c 	orrcs.w	r0, r0, ip, lsr #2
 8000948:	085b      	lsrs	r3, r3, #1
 800094a:	ea4f 0232 	mov.w	r2, r2, rrx
 800094e:	ebb6 0e02 	subs.w	lr, r6, r2
 8000952:	eb75 0e03 	sbcs.w	lr, r5, r3
 8000956:	bf22      	ittt	cs
 8000958:	1ab6      	subcs	r6, r6, r2
 800095a:	4675      	movcs	r5, lr
 800095c:	ea40 00dc 	orrcs.w	r0, r0, ip, lsr #3
 8000960:	ea55 0e06 	orrs.w	lr, r5, r6
 8000964:	d018      	beq.n	8000998 <__aeabi_ddiv+0x114>
 8000966:	ea4f 1505 	mov.w	r5, r5, lsl #4
 800096a:	ea45 7516 	orr.w	r5, r5, r6, lsr #28
 800096e:	ea4f 1606 	mov.w	r6, r6, lsl #4
 8000972:	ea4f 03c3 	mov.w	r3, r3, lsl #3
 8000976:	ea43 7352 	orr.w	r3, r3, r2, lsr #29
 800097a:	ea4f 02c2 	mov.w	r2, r2, lsl #3
 800097e:	ea5f 1c1c 	movs.w	ip, ip, lsr #4
 8000982:	d1c0      	bne.n	8000906 <__aeabi_ddiv+0x82>
 8000984:	f411 1f80 	tst.w	r1, #1048576	; 0x100000
 8000988:	d10b      	bne.n	80009a2 <__aeabi_ddiv+0x11e>
 800098a:	ea41 0100 	orr.w	r1, r1, r0
 800098e:	f04f 0000 	mov.w	r0, #0
 8000992:	f04f 4c00 	mov.w	ip, #2147483648	; 0x80000000
 8000996:	e7b6      	b.n	8000906 <__aeabi_ddiv+0x82>
 8000998:	f411 1f80 	tst.w	r1, #1048576	; 0x100000
 800099c:	bf04      	itt	eq
 800099e:	4301      	orreq	r1, r0
 80009a0:	2000      	moveq	r0, #0
 80009a2:	f1b4 0cfd 	subs.w	ip, r4, #253	; 0xfd
 80009a6:	bf88      	it	hi
 80009a8:	f5bc 6fe0 	cmphi.w	ip, #1792	; 0x700
 80009ac:	f63f aeaf 	bhi.w	800070e <__aeabi_dmul+0xde>
 80009b0:	ebb5 0c03 	subs.w	ip, r5, r3
 80009b4:	bf04      	itt	eq
 80009b6:	ebb6 0c02 	subseq.w	ip, r6, r2
 80009ba:	ea5f 0c50 	movseq.w	ip, r0, lsr #1
 80009be:	f150 0000 	adcs.w	r0, r0, #0
 80009c2:	eb41 5104 	adc.w	r1, r1, r4, lsl #20
 80009c6:	bd70      	pop	{r4, r5, r6, pc}
 80009c8:	f00e 4e00 	and.w	lr, lr, #2147483648	; 0x80000000
 80009cc:	ea4e 3111 	orr.w	r1, lr, r1, lsr #12
 80009d0:	eb14 045c 	adds.w	r4, r4, ip, lsr #1
 80009d4:	bfc2      	ittt	gt
 80009d6:	ebd4 050c 	rsbsgt	r5, r4, ip
 80009da:	ea41 5104 	orrgt.w	r1, r1, r4, lsl #20
 80009de:	bd70      	popgt	{r4, r5, r6, pc}
 80009e0:	f441 1180 	orr.w	r1, r1, #1048576	; 0x100000
 80009e4:	f04f 0e00 	mov.w	lr, #0
 80009e8:	3c01      	subs	r4, #1
 80009ea:	e690      	b.n	800070e <__aeabi_dmul+0xde>
 80009ec:	ea45 0e06 	orr.w	lr, r5, r6
 80009f0:	e68d      	b.n	800070e <__aeabi_dmul+0xde>
 80009f2:	ea0c 5513 	and.w	r5, ip, r3, lsr #20
 80009f6:	ea94 0f0c 	teq	r4, ip
 80009fa:	bf08      	it	eq
 80009fc:	ea95 0f0c 	teqeq	r5, ip
 8000a00:	f43f af3b 	beq.w	800087a <__aeabi_dmul+0x24a>
 8000a04:	ea94 0f0c 	teq	r4, ip
 8000a08:	d10a      	bne.n	8000a20 <__aeabi_ddiv+0x19c>
 8000a0a:	ea50 3401 	orrs.w	r4, r0, r1, lsl #12
 8000a0e:	f47f af34 	bne.w	800087a <__aeabi_dmul+0x24a>
 8000a12:	ea95 0f0c 	teq	r5, ip
 8000a16:	f47f af25 	bne.w	8000864 <__aeabi_dmul+0x234>
 8000a1a:	4610      	mov	r0, r2
 8000a1c:	4619      	mov	r1, r3
 8000a1e:	e72c      	b.n	800087a <__aeabi_dmul+0x24a>
 8000a20:	ea95 0f0c 	teq	r5, ip
 8000a24:	d106      	bne.n	8000a34 <__aeabi_ddiv+0x1b0>
 8000a26:	ea52 3503 	orrs.w	r5, r2, r3, lsl #12
 8000a2a:	f43f aefd 	beq.w	8000828 <__aeabi_dmul+0x1f8>
 8000a2e:	4610      	mov	r0, r2
 8000a30:	4619      	mov	r1, r3
 8000a32:	e722      	b.n	800087a <__aeabi_dmul+0x24a>
 8000a34:	ea50 0641 	orrs.w	r6, r0, r1, lsl #1
 8000a38:	bf18      	it	ne
 8000a3a:	ea52 0643 	orrsne.w	r6, r2, r3, lsl #1
 8000a3e:	f47f aec5 	bne.w	80007cc <__aeabi_dmul+0x19c>
 8000a42:	ea50 0441 	orrs.w	r4, r0, r1, lsl #1
 8000a46:	f47f af0d 	bne.w	8000864 <__aeabi_dmul+0x234>
 8000a4a:	ea52 0543 	orrs.w	r5, r2, r3, lsl #1
 8000a4e:	f47f aeeb 	bne.w	8000828 <__aeabi_dmul+0x1f8>
 8000a52:	e712      	b.n	800087a <__aeabi_dmul+0x24a>

08000a54 <__gedf2>:
 8000a54:	f04f 3cff 	mov.w	ip, #4294967295
 8000a58:	e006      	b.n	8000a68 <__cmpdf2+0x4>
 8000a5a:	bf00      	nop

08000a5c <__ledf2>:
 8000a5c:	f04f 0c01 	mov.w	ip, #1
 8000a60:	e002      	b.n	8000a68 <__cmpdf2+0x4>
 8000a62:	bf00      	nop

08000a64 <__cmpdf2>:
 8000a64:	f04f 0c01 	mov.w	ip, #1
 8000a68:	f84d cd04 	str.w	ip, [sp, #-4]!
 8000a6c:	ea4f 0c41 	mov.w	ip, r1, lsl #1
 8000a70:	ea7f 5c6c 	mvns.w	ip, ip, asr #21
 8000a74:	ea4f 0c43 	mov.w	ip, r3, lsl #1
 8000a78:	bf18      	it	ne
 8000a7a:	ea7f 5c6c 	mvnsne.w	ip, ip, asr #21
 8000a7e:	d01b      	beq.n	8000ab8 <__cmpdf2+0x54>
 8000a80:	b001      	add	sp, #4
 8000a82:	ea50 0c41 	orrs.w	ip, r0, r1, lsl #1
 8000a86:	bf0c      	ite	eq
 8000a88:	ea52 0c43 	orrseq.w	ip, r2, r3, lsl #1
 8000a8c:	ea91 0f03 	teqne	r1, r3
 8000a90:	bf02      	ittt	eq
 8000a92:	ea90 0f02 	teqeq	r0, r2
 8000a96:	2000      	moveq	r0, #0
 8000a98:	4770      	bxeq	lr
 8000a9a:	f110 0f00 	cmn.w	r0, #0
 8000a9e:	ea91 0f03 	teq	r1, r3
 8000aa2:	bf58      	it	pl
 8000aa4:	4299      	cmppl	r1, r3
 8000aa6:	bf08      	it	eq
 8000aa8:	4290      	cmpeq	r0, r2
 8000aaa:	bf2c      	ite	cs
 8000aac:	17d8      	asrcs	r0, r3, #31
 8000aae:	ea6f 70e3 	mvncc.w	r0, r3, asr #31
 8000ab2:	f040 0001 	orr.w	r0, r0, #1
 8000ab6:	4770      	bx	lr
 8000ab8:	ea4f 0c41 	mov.w	ip, r1, lsl #1
 8000abc:	ea7f 5c6c 	mvns.w	ip, ip, asr #21
 8000ac0:	d102      	bne.n	8000ac8 <__cmpdf2+0x64>
 8000ac2:	ea50 3c01 	orrs.w	ip, r0, r1, lsl #12
 8000ac6:	d107      	bne.n	8000ad8 <__cmpdf2+0x74>
 8000ac8:	ea4f 0c43 	mov.w	ip, r3, lsl #1
 8000acc:	ea7f 5c6c 	mvns.w	ip, ip, asr #21
 8000ad0:	d1d6      	bne.n	8000a80 <__cmpdf2+0x1c>
 8000ad2:	ea52 3c03 	orrs.w	ip, r2, r3, lsl #12
 8000ad6:	d0d3      	beq.n	8000a80 <__cmpdf2+0x1c>
 8000ad8:	f85d 0b04 	ldr.w	r0, [sp], #4
 8000adc:	4770      	bx	lr
 8000ade:	bf00      	nop

08000ae0 <__aeabi_cdrcmple>:
 8000ae0:	4684      	mov	ip, r0
 8000ae2:	4610      	mov	r0, r2
 8000ae4:	4662      	mov	r2, ip
 8000ae6:	468c      	mov	ip, r1
 8000ae8:	4619      	mov	r1, r3
 8000aea:	4663      	mov	r3, ip
 8000aec:	e000      	b.n	8000af0 <__aeabi_cdcmpeq>
 8000aee:	bf00      	nop

08000af0 <__aeabi_cdcmpeq>:
 8000af0:	b501      	push	{r0, lr}
 8000af2:	f7ff ffb7 	bl	8000a64 <__cmpdf2>
 8000af6:	2800      	cmp	r0, #0
 8000af8:	bf48      	it	mi
 8000afa:	f110 0f00 	cmnmi.w	r0, #0
 8000afe:	bd01      	pop	{r0, pc}

08000b00 <__aeabi_dcmpeq>:
 8000b00:	f84d ed08 	str.w	lr, [sp, #-8]!
 8000b04:	f7ff fff4 	bl	8000af0 <__aeabi_cdcmpeq>
 8000b08:	bf0c      	ite	eq
 8000b0a:	2001      	moveq	r0, #1
 8000b0c:	2000      	movne	r0, #0
 8000b0e:	f85d fb08 	ldr.w	pc, [sp], #8
 8000b12:	bf00      	nop

08000b14 <__aeabi_dcmplt>:
 8000b14:	f84d ed08 	str.w	lr, [sp, #-8]!
 8000b18:	f7ff ffea 	bl	8000af0 <__aeabi_cdcmpeq>
 8000b1c:	bf34      	ite	cc
 8000b1e:	2001      	movcc	r0, #1
 8000b20:	2000      	movcs	r0, #0
 8000b22:	f85d fb08 	ldr.w	pc, [sp], #8
 8000b26:	bf00      	nop

08000b28 <__aeabi_dcmple>:
 8000b28:	f84d ed08 	str.w	lr, [sp, #-8]!
 8000b2c:	f7ff ffe0 	bl	8000af0 <__aeabi_cdcmpeq>
 8000b30:	bf94      	ite	ls
 8000b32:	2001      	movls	r0, #1
 8000b34:	2000      	movhi	r0, #0
 8000b36:	f85d fb08 	ldr.w	pc, [sp], #8
 8000b3a:	bf00      	nop

08000b3c <__aeabi_dcmpge>:
 8000b3c:	f84d ed08 	str.w	lr, [sp, #-8]!
 8000b40:	f7ff ffce 	bl	8000ae0 <__aeabi_cdrcmple>
 8000b44:	bf94      	ite	ls
 8000b46:	2001      	movls	r0, #1
 8000b48:	2000      	movhi	r0, #0
 8000b4a:	f85d fb08 	ldr.w	pc, [sp], #8
 8000b4e:	bf00      	nop

08000b50 <__aeabi_dcmpgt>:
 8000b50:	f84d ed08 	str.w	lr, [sp, #-8]!
 8000b54:	f7ff ffc4 	bl	8000ae0 <__aeabi_cdrcmple>
 8000b58:	bf34      	ite	cc
 8000b5a:	2001      	movcc	r0, #1
 8000b5c:	2000      	movcs	r0, #0
 8000b5e:	f85d fb08 	ldr.w	pc, [sp], #8
 8000b62:	bf00      	nop

08000b64 <__aeabi_dcmpun>:
 8000b64:	ea4f 0c41 	mov.w	ip, r1, lsl #1
 8000b68:	ea7f 5c6c 	mvns.w	ip, ip, asr #21
 8000b6c:	d102      	bne.n	8000b74 <__aeabi_dcmpun+0x10>
 8000b6e:	ea50 3c01 	orrs.w	ip, r0, r1, lsl #12
 8000b72:	d10a      	bne.n	8000b8a <__aeabi_dcmpun+0x26>
 8000b74:	ea4f 0c43 	mov.w	ip, r3, lsl #1
 8000b78:	ea7f 5c6c 	mvns.w	ip, ip, asr #21
 8000b7c:	d102      	bne.n	8000b84 <__aeabi_dcmpun+0x20>
 8000b7e:	ea52 3c03 	orrs.w	ip, r2, r3, lsl #12
 8000b82:	d102      	bne.n	8000b8a <__aeabi_dcmpun+0x26>
 8000b84:	f04f 0000 	mov.w	r0, #0
 8000b88:	4770      	bx	lr
 8000b8a:	f04f 0001 	mov.w	r0, #1
 8000b8e:	4770      	bx	lr

08000b90 <__aeabi_d2iz>:
 8000b90:	ea4f 0241 	mov.w	r2, r1, lsl #1
 8000b94:	f512 1200 	adds.w	r2, r2, #2097152	; 0x200000
 8000b98:	d215      	bcs.n	8000bc6 <__aeabi_d2iz+0x36>
 8000b9a:	d511      	bpl.n	8000bc0 <__aeabi_d2iz+0x30>
 8000b9c:	f46f 7378 	mvn.w	r3, #992	; 0x3e0
 8000ba0:	ebb3 5262 	subs.w	r2, r3, r2, asr #21
 8000ba4:	d912      	bls.n	8000bcc <__aeabi_d2iz+0x3c>
 8000ba6:	ea4f 23c1 	mov.w	r3, r1, lsl #11
 8000baa:	f043 4300 	orr.w	r3, r3, #2147483648	; 0x80000000
 8000bae:	ea43 5350 	orr.w	r3, r3, r0, lsr #21
 8000bb2:	f011 4f00 	tst.w	r1, #2147483648	; 0x80000000
 8000bb6:	fa23 f002 	lsr.w	r0, r3, r2
 8000bba:	bf18      	it	ne
 8000bbc:	4240      	negne	r0, r0
 8000bbe:	4770      	bx	lr
 8000bc0:	f04f 0000 	mov.w	r0, #0
 8000bc4:	4770      	bx	lr
 8000bc6:	ea50 3001 	orrs.w	r0, r0, r1, lsl #12
 8000bca:	d105      	bne.n	8000bd8 <__aeabi_d2iz+0x48>
 8000bcc:	f011 4000 	ands.w	r0, r1, #2147483648	; 0x80000000
 8000bd0:	bf08      	it	eq
 8000bd2:	f06f 4000 	mvneq.w	r0, #2147483648	; 0x80000000
 8000bd6:	4770      	bx	lr
 8000bd8:	f04f 0000 	mov.w	r0, #0
 8000bdc:	4770      	bx	lr
 8000bde:	bf00      	nop

08000be0 <__aeabi_uldivmod>:
 8000be0:	b953      	cbnz	r3, 8000bf8 <__aeabi_uldivmod+0x18>
 8000be2:	b94a      	cbnz	r2, 8000bf8 <__aeabi_uldivmod+0x18>
 8000be4:	2900      	cmp	r1, #0
 8000be6:	bf08      	it	eq
 8000be8:	2800      	cmpeq	r0, #0
 8000bea:	bf1c      	itt	ne
 8000bec:	f04f 31ff 	movne.w	r1, #4294967295
 8000bf0:	f04f 30ff 	movne.w	r0, #4294967295
 8000bf4:	f000 b97a 	b.w	8000eec <__aeabi_idiv0>
 8000bf8:	f1ad 0c08 	sub.w	ip, sp, #8
 8000bfc:	e96d ce04 	strd	ip, lr, [sp, #-16]!
 8000c00:	f000 f806 	bl	8000c10 <__udivmoddi4>
 8000c04:	f8dd e004 	ldr.w	lr, [sp, #4]
 8000c08:	e9dd 2302 	ldrd	r2, r3, [sp, #8]
 8000c0c:	b004      	add	sp, #16
 8000c0e:	4770      	bx	lr

08000c10 <__udivmoddi4>:
 8000c10:	e92d 47f0 	stmdb	sp!, {r4, r5, r6, r7, r8, r9, sl, lr}
 8000c14:	468c      	mov	ip, r1
 8000c16:	460d      	mov	r5, r1
 8000c18:	4604      	mov	r4, r0
 8000c1a:	9e08      	ldr	r6, [sp, #32]
 8000c1c:	2b00      	cmp	r3, #0
 8000c1e:	d151      	bne.n	8000cc4 <__udivmoddi4+0xb4>
 8000c20:	428a      	cmp	r2, r1
 8000c22:	4617      	mov	r7, r2
 8000c24:	d96d      	bls.n	8000d02 <__udivmoddi4+0xf2>
 8000c26:	fab2 fe82 	clz	lr, r2
 8000c2a:	f1be 0f00 	cmp.w	lr, #0
 8000c2e:	d00b      	beq.n	8000c48 <__udivmoddi4+0x38>
 8000c30:	f1ce 0c20 	rsb	ip, lr, #32
 8000c34:	fa01 f50e 	lsl.w	r5, r1, lr
 8000c38:	fa20 fc0c 	lsr.w	ip, r0, ip
 8000c3c:	fa02 f70e 	lsl.w	r7, r2, lr
 8000c40:	ea4c 0c05 	orr.w	ip, ip, r5
 8000c44:	fa00 f40e 	lsl.w	r4, r0, lr
 8000c48:	ea4f 4a17 	mov.w	sl, r7, lsr #16
 8000c4c:	0c25      	lsrs	r5, r4, #16
 8000c4e:	fbbc f8fa 	udiv	r8, ip, sl
 8000c52:	fa1f f987 	uxth.w	r9, r7
 8000c56:	fb0a cc18 	mls	ip, sl, r8, ip
 8000c5a:	ea45 450c 	orr.w	r5, r5, ip, lsl #16
 8000c5e:	fb08 f309 	mul.w	r3, r8, r9
 8000c62:	42ab      	cmp	r3, r5
 8000c64:	d90a      	bls.n	8000c7c <__udivmoddi4+0x6c>
 8000c66:	19ed      	adds	r5, r5, r7
 8000c68:	f108 32ff 	add.w	r2, r8, #4294967295
 8000c6c:	f080 8123 	bcs.w	8000eb6 <__udivmoddi4+0x2a6>
 8000c70:	42ab      	cmp	r3, r5
 8000c72:	f240 8120 	bls.w	8000eb6 <__udivmoddi4+0x2a6>
 8000c76:	f1a8 0802 	sub.w	r8, r8, #2
 8000c7a:	443d      	add	r5, r7
 8000c7c:	1aed      	subs	r5, r5, r3
 8000c7e:	b2a4      	uxth	r4, r4
 8000c80:	fbb5 f0fa 	udiv	r0, r5, sl
 8000c84:	fb0a 5510 	mls	r5, sl, r0, r5
 8000c88:	ea44 4405 	orr.w	r4, r4, r5, lsl #16
 8000c8c:	fb00 f909 	mul.w	r9, r0, r9
 8000c90:	45a1      	cmp	r9, r4
 8000c92:	d909      	bls.n	8000ca8 <__udivmoddi4+0x98>
 8000c94:	19e4      	adds	r4, r4, r7
 8000c96:	f100 33ff 	add.w	r3, r0, #4294967295
 8000c9a:	f080 810a 	bcs.w	8000eb2 <__udivmoddi4+0x2a2>
 8000c9e:	45a1      	cmp	r9, r4
 8000ca0:	f240 8107 	bls.w	8000eb2 <__udivmoddi4+0x2a2>
 8000ca4:	3802      	subs	r0, #2
 8000ca6:	443c      	add	r4, r7
 8000ca8:	eba4 0409 	sub.w	r4, r4, r9
 8000cac:	ea40 4008 	orr.w	r0, r0, r8, lsl #16
 8000cb0:	2100      	movs	r1, #0
 8000cb2:	2e00      	cmp	r6, #0
 8000cb4:	d061      	beq.n	8000d7a <__udivmoddi4+0x16a>
 8000cb6:	fa24 f40e 	lsr.w	r4, r4, lr
 8000cba:	2300      	movs	r3, #0
 8000cbc:	6034      	str	r4, [r6, #0]
 8000cbe:	6073      	str	r3, [r6, #4]
 8000cc0:	e8bd 87f0 	ldmia.w	sp!, {r4, r5, r6, r7, r8, r9, sl, pc}
 8000cc4:	428b      	cmp	r3, r1
 8000cc6:	d907      	bls.n	8000cd8 <__udivmoddi4+0xc8>
 8000cc8:	2e00      	cmp	r6, #0
 8000cca:	d054      	beq.n	8000d76 <__udivmoddi4+0x166>
 8000ccc:	2100      	movs	r1, #0
 8000cce:	e886 0021 	stmia.w	r6, {r0, r5}
 8000cd2:	4608      	mov	r0, r1
 8000cd4:	e8bd 87f0 	ldmia.w	sp!, {r4, r5, r6, r7, r8, r9, sl, pc}
 8000cd8:	fab3 f183 	clz	r1, r3
 8000cdc:	2900      	cmp	r1, #0
 8000cde:	f040 808e 	bne.w	8000dfe <__udivmoddi4+0x1ee>
 8000ce2:	42ab      	cmp	r3, r5
 8000ce4:	d302      	bcc.n	8000cec <__udivmoddi4+0xdc>
 8000ce6:	4282      	cmp	r2, r0
 8000ce8:	f200 80fa 	bhi.w	8000ee0 <__udivmoddi4+0x2d0>
 8000cec:	1a84      	subs	r4, r0, r2
 8000cee:	eb65 0503 	sbc.w	r5, r5, r3
 8000cf2:	2001      	movs	r0, #1
 8000cf4:	46ac      	mov	ip, r5
 8000cf6:	2e00      	cmp	r6, #0
 8000cf8:	d03f      	beq.n	8000d7a <__udivmoddi4+0x16a>
 8000cfa:	e886 1010 	stmia.w	r6, {r4, ip}
 8000cfe:	e8bd 87f0 	ldmia.w	sp!, {r4, r5, r6, r7, r8, r9, sl, pc}
 8000d02:	b912      	cbnz	r2, 8000d0a <__udivmoddi4+0xfa>
 8000d04:	2701      	movs	r7, #1
 8000d06:	fbb7 f7f2 	udiv	r7, r7, r2
 8000d0a:	fab7 fe87 	clz	lr, r7
 8000d0e:	f1be 0f00 	cmp.w	lr, #0
 8000d12:	d134      	bne.n	8000d7e <__udivmoddi4+0x16e>
 8000d14:	1beb      	subs	r3, r5, r7
 8000d16:	0c3a      	lsrs	r2, r7, #16
 8000d18:	fa1f fc87 	uxth.w	ip, r7
 8000d1c:	2101      	movs	r1, #1
 8000d1e:	fbb3 f8f2 	udiv	r8, r3, r2
 8000d22:	0c25      	lsrs	r5, r4, #16
 8000d24:	fb02 3318 	mls	r3, r2, r8, r3
 8000d28:	ea45 4503 	orr.w	r5, r5, r3, lsl #16
 8000d2c:	fb0c f308 	mul.w	r3, ip, r8
 8000d30:	42ab      	cmp	r3, r5
 8000d32:	d907      	bls.n	8000d44 <__udivmoddi4+0x134>
 8000d34:	19ed      	adds	r5, r5, r7
 8000d36:	f108 30ff 	add.w	r0, r8, #4294967295
 8000d3a:	d202      	bcs.n	8000d42 <__udivmoddi4+0x132>
 8000d3c:	42ab      	cmp	r3, r5
 8000d3e:	f200 80d1 	bhi.w	8000ee4 <__udivmoddi4+0x2d4>
 8000d42:	4680      	mov	r8, r0
 8000d44:	1aed      	subs	r5, r5, r3
 8000d46:	b2a3      	uxth	r3, r4
 8000d48:	fbb5 f0f2 	udiv	r0, r5, r2
 8000d4c:	fb02 5510 	mls	r5, r2, r0, r5
 8000d50:	ea43 4405 	orr.w	r4, r3, r5, lsl #16
 8000d54:	fb0c fc00 	mul.w	ip, ip, r0
 8000d58:	45a4      	cmp	ip, r4
 8000d5a:	d907      	bls.n	8000d6c <__udivmoddi4+0x15c>
 8000d5c:	19e4      	adds	r4, r4, r7
 8000d5e:	f100 33ff 	add.w	r3, r0, #4294967295
 8000d62:	d202      	bcs.n	8000d6a <__udivmoddi4+0x15a>
 8000d64:	45a4      	cmp	ip, r4
 8000d66:	f200 80b8 	bhi.w	8000eda <__udivmoddi4+0x2ca>
 8000d6a:	4618      	mov	r0, r3
 8000d6c:	eba4 040c 	sub.w	r4, r4, ip
 8000d70:	ea40 4008 	orr.w	r0, r0, r8, lsl #16
 8000d74:	e79d      	b.n	8000cb2 <__udivmoddi4+0xa2>
 8000d76:	4631      	mov	r1, r6
 8000d78:	4630      	mov	r0, r6
 8000d7a:	e8bd 87f0 	ldmia.w	sp!, {r4, r5, r6, r7, r8, r9, sl, pc}
 8000d7e:	f1ce 0420 	rsb	r4, lr, #32
 8000d82:	fa05 f30e 	lsl.w	r3, r5, lr
 8000d86:	fa07 f70e 	lsl.w	r7, r7, lr
 8000d8a:	fa20 f804 	lsr.w	r8, r0, r4
 8000d8e:	0c3a      	lsrs	r2, r7, #16
 8000d90:	fa25 f404 	lsr.w	r4, r5, r4
 8000d94:	ea48 0803 	orr.w	r8, r8, r3
 8000d98:	fbb4 f1f2 	udiv	r1, r4, r2
 8000d9c:	ea4f 4518 	mov.w	r5, r8, lsr #16
 8000da0:	fb02 4411 	mls	r4, r2, r1, r4
 8000da4:	fa1f fc87 	uxth.w	ip, r7
 8000da8:	ea45 4504 	orr.w	r5, r5, r4, lsl #16
 8000dac:	fb01 f30c 	mul.w	r3, r1, ip
 8000db0:	42ab      	cmp	r3, r5
 8000db2:	fa00 f40e 	lsl.w	r4, r0, lr
 8000db6:	d909      	bls.n	8000dcc <__udivmoddi4+0x1bc>
 8000db8:	19ed      	adds	r5, r5, r7
 8000dba:	f101 30ff 	add.w	r0, r1, #4294967295
 8000dbe:	f080 808a 	bcs.w	8000ed6 <__udivmoddi4+0x2c6>
 8000dc2:	42ab      	cmp	r3, r5
 8000dc4:	f240 8087 	bls.w	8000ed6 <__udivmoddi4+0x2c6>
 8000dc8:	3902      	subs	r1, #2
 8000dca:	443d      	add	r5, r7
 8000dcc:	1aeb      	subs	r3, r5, r3
 8000dce:	fa1f f588 	uxth.w	r5, r8
 8000dd2:	fbb3 f0f2 	udiv	r0, r3, r2
 8000dd6:	fb02 3310 	mls	r3, r2, r0, r3
 8000dda:	ea45 4503 	orr.w	r5, r5, r3, lsl #16
 8000dde:	fb00 f30c 	mul.w	r3, r0, ip
 8000de2:	42ab      	cmp	r3, r5
 8000de4:	d907      	bls.n	8000df6 <__udivmoddi4+0x1e6>
 8000de6:	19ed      	adds	r5, r5, r7
 8000de8:	f100 38ff 	add.w	r8, r0, #4294967295
 8000dec:	d26f      	bcs.n	8000ece <__udivmoddi4+0x2be>
 8000dee:	42ab      	cmp	r3, r5
 8000df0:	d96d      	bls.n	8000ece <__udivmoddi4+0x2be>
 8000df2:	3802      	subs	r0, #2
 8000df4:	443d      	add	r5, r7
 8000df6:	1aeb      	subs	r3, r5, r3
 8000df8:	ea40 4101 	orr.w	r1, r0, r1, lsl #16
 8000dfc:	e78f      	b.n	8000d1e <__udivmoddi4+0x10e>
 8000dfe:	f1c1 0720 	rsb	r7, r1, #32
 8000e02:	fa22 f807 	lsr.w	r8, r2, r7
 8000e06:	408b      	lsls	r3, r1
 8000e08:	fa05 f401 	lsl.w	r4, r5, r1
 8000e0c:	ea48 0303 	orr.w	r3, r8, r3
 8000e10:	fa20 fe07 	lsr.w	lr, r0, r7
 8000e14:	ea4f 4c13 	mov.w	ip, r3, lsr #16
 8000e18:	40fd      	lsrs	r5, r7
 8000e1a:	ea4e 0e04 	orr.w	lr, lr, r4
 8000e1e:	fbb5 f9fc 	udiv	r9, r5, ip
 8000e22:	ea4f 441e 	mov.w	r4, lr, lsr #16
 8000e26:	fb0c 5519 	mls	r5, ip, r9, r5
 8000e2a:	fa1f f883 	uxth.w	r8, r3
 8000e2e:	ea44 4505 	orr.w	r5, r4, r5, lsl #16
 8000e32:	fb09 f408 	mul.w	r4, r9, r8
 8000e36:	42ac      	cmp	r4, r5
 8000e38:	fa02 f201 	lsl.w	r2, r2, r1
 8000e3c:	fa00 fa01 	lsl.w	sl, r0, r1
 8000e40:	d908      	bls.n	8000e54 <__udivmoddi4+0x244>
 8000e42:	18ed      	adds	r5, r5, r3
 8000e44:	f109 30ff 	add.w	r0, r9, #4294967295
 8000e48:	d243      	bcs.n	8000ed2 <__udivmoddi4+0x2c2>
 8000e4a:	42ac      	cmp	r4, r5
 8000e4c:	d941      	bls.n	8000ed2 <__udivmoddi4+0x2c2>
 8000e4e:	f1a9 0902 	sub.w	r9, r9, #2
 8000e52:	441d      	add	r5, r3
 8000e54:	1b2d      	subs	r5, r5, r4
 8000e56:	fa1f fe8e 	uxth.w	lr, lr
 8000e5a:	fbb5 f0fc 	udiv	r0, r5, ip
 8000e5e:	fb0c 5510 	mls	r5, ip, r0, r5
 8000e62:	ea4e 4405 	orr.w	r4, lr, r5, lsl #16
 8000e66:	fb00 f808 	mul.w	r8, r0, r8
 8000e6a:	45a0      	cmp	r8, r4
 8000e6c:	d907      	bls.n	8000e7e <__udivmoddi4+0x26e>
 8000e6e:	18e4      	adds	r4, r4, r3
 8000e70:	f100 35ff 	add.w	r5, r0, #4294967295
 8000e74:	d229      	bcs.n	8000eca <__udivmoddi4+0x2ba>
 8000e76:	45a0      	cmp	r8, r4
 8000e78:	d927      	bls.n	8000eca <__udivmoddi4+0x2ba>
 8000e7a:	3802      	subs	r0, #2
 8000e7c:	441c      	add	r4, r3
 8000e7e:	ea40 4009 	orr.w	r0, r0, r9, lsl #16
 8000e82:	eba4 0408 	sub.w	r4, r4, r8
 8000e86:	fba0 8902 	umull	r8, r9, r0, r2
 8000e8a:	454c      	cmp	r4, r9
 8000e8c:	46c6      	mov	lr, r8
 8000e8e:	464d      	mov	r5, r9
 8000e90:	d315      	bcc.n	8000ebe <__udivmoddi4+0x2ae>
 8000e92:	d012      	beq.n	8000eba <__udivmoddi4+0x2aa>
 8000e94:	b156      	cbz	r6, 8000eac <__udivmoddi4+0x29c>
 8000e96:	ebba 030e 	subs.w	r3, sl, lr
 8000e9a:	eb64 0405 	sbc.w	r4, r4, r5
 8000e9e:	fa04 f707 	lsl.w	r7, r4, r7
 8000ea2:	40cb      	lsrs	r3, r1
 8000ea4:	431f      	orrs	r7, r3
 8000ea6:	40cc      	lsrs	r4, r1
 8000ea8:	6037      	str	r7, [r6, #0]
 8000eaa:	6074      	str	r4, [r6, #4]
 8000eac:	2100      	movs	r1, #0
 8000eae:	e8bd 87f0 	ldmia.w	sp!, {r4, r5, r6, r7, r8, r9, sl, pc}
 8000eb2:	4618      	mov	r0, r3
 8000eb4:	e6f8      	b.n	8000ca8 <__udivmoddi4+0x98>
 8000eb6:	4690      	mov	r8, r2
 8000eb8:	e6e0      	b.n	8000c7c <__udivmoddi4+0x6c>
 8000eba:	45c2      	cmp	sl, r8
 8000ebc:	d2ea      	bcs.n	8000e94 <__udivmoddi4+0x284>
 8000ebe:	ebb8 0e02 	subs.w	lr, r8, r2
 8000ec2:	eb69 0503 	sbc.w	r5, r9, r3
 8000ec6:	3801      	subs	r0, #1
 8000ec8:	e7e4      	b.n	8000e94 <__udivmoddi4+0x284>
 8000eca:	4628      	mov	r0, r5
 8000ecc:	e7d7      	b.n	8000e7e <__udivmoddi4+0x26e>
 8000ece:	4640      	mov	r0, r8
 8000ed0:	e791      	b.n	8000df6 <__udivmoddi4+0x1e6>
 8000ed2:	4681      	mov	r9, r0
 8000ed4:	e7be      	b.n	8000e54 <__udivmoddi4+0x244>
 8000ed6:	4601      	mov	r1, r0
 8000ed8:	e778      	b.n	8000dcc <__udivmoddi4+0x1bc>
 8000eda:	3802      	subs	r0, #2
 8000edc:	443c      	add	r4, r7
 8000ede:	e745      	b.n	8000d6c <__udivmoddi4+0x15c>
 8000ee0:	4608      	mov	r0, r1
 8000ee2:	e708      	b.n	8000cf6 <__udivmoddi4+0xe6>
 8000ee4:	f1a8 0802 	sub.w	r8, r8, #2
 8000ee8:	443d      	add	r5, r7
 8000eea:	e72b      	b.n	8000d44 <__udivmoddi4+0x134>

08000eec <__aeabi_idiv0>:
 8000eec:	4770      	bx	lr
 8000eee:	bf00      	nop

08000ef0 <HAL_InitTick>:
  *       implementation  in user file.
  * @param TickPriority Tick interrupt priority.
  * @retval HAL status
  */
__weak HAL_StatusTypeDef HAL_InitTick(uint32_t TickPriority)
{
 8000ef0:	b510      	push	{r4, lr}
 8000ef2:	4604      	mov	r4, r0
  /* Configure the SysTick to have interrupt in 1ms time basis*/
  if (HAL_SYSTICK_Config(SystemCoreClock / (1000U / uwTickFreq)) > 0U)
 8000ef4:	4b0e      	ldr	r3, [pc, #56]	; (8000f30 <HAL_InitTick+0x40>)
 8000ef6:	7818      	ldrb	r0, [r3, #0]
 8000ef8:	f44f 737a 	mov.w	r3, #1000	; 0x3e8
 8000efc:	fbb3 f3f0 	udiv	r3, r3, r0
 8000f00:	4a0c      	ldr	r2, [pc, #48]	; (8000f34 <HAL_InitTick+0x44>)
 8000f02:	6810      	ldr	r0, [r2, #0]
 8000f04:	fbb0 f0f3 	udiv	r0, r0, r3
 8000f08:	f000 fa20 	bl	800134c <HAL_SYSTICK_Config>
 8000f0c:	b968      	cbnz	r0, 8000f2a <HAL_InitTick+0x3a>
  {
    return HAL_ERROR;
  }

  /* Configure the SysTick IRQ priority */
  if (TickPriority < (1UL << __NVIC_PRIO_BITS))
 8000f0e:	2c0f      	cmp	r4, #15
 8000f10:	d901      	bls.n	8000f16 <HAL_InitTick+0x26>
    HAL_NVIC_SetPriority(SysTick_IRQn, TickPriority, 0U);
    uwTickPrio = TickPriority;
  }
  else
  {
    return HAL_ERROR;
 8000f12:	2001      	movs	r0, #1
  }

  /* Return function status */
  return HAL_OK;
}
 8000f14:	bd10      	pop	{r4, pc}
    HAL_NVIC_SetPriority(SysTick_IRQn, TickPriority, 0U);
 8000f16:	2200      	movs	r2, #0
 8000f18:	4621      	mov	r1, r4
 8000f1a:	f04f 30ff 	mov.w	r0, #4294967295
 8000f1e:	f000 f9d7 	bl	80012d0 <HAL_NVIC_SetPriority>
    uwTickPrio = TickPriority;
 8000f22:	4b05      	ldr	r3, [pc, #20]	; (8000f38 <HAL_InitTick+0x48>)
 8000f24:	601c      	str	r4, [r3, #0]
  return HAL_OK;
 8000f26:	2000      	movs	r0, #0
 8000f28:	bd10      	pop	{r4, pc}
    return HAL_ERROR;
 8000f2a:	2001      	movs	r0, #1
 8000f2c:	bd10      	pop	{r4, pc}
 8000f2e:	bf00      	nop
 8000f30:	20000000 	.word	0x20000000
 8000f34:	20000008 	.word	0x20000008
 8000f38:	20000004 	.word	0x20000004

08000f3c <HAL_Init>:
{
 8000f3c:	b508      	push	{r3, lr}
  __HAL_FLASH_INSTRUCTION_CACHE_ENABLE();
 8000f3e:	4b0b      	ldr	r3, [pc, #44]	; (8000f6c <HAL_Init+0x30>)
 8000f40:	681a      	ldr	r2, [r3, #0]
 8000f42:	f442 7200 	orr.w	r2, r2, #512	; 0x200
 8000f46:	601a      	str	r2, [r3, #0]
  __HAL_FLASH_DATA_CACHE_ENABLE();
 8000f48:	681a      	ldr	r2, [r3, #0]
 8000f4a:	f442 6280 	orr.w	r2, r2, #1024	; 0x400
 8000f4e:	601a      	str	r2, [r3, #0]
  __HAL_FLASH_PREFETCH_BUFFER_ENABLE();
 8000f50:	681a      	ldr	r2, [r3, #0]
 8000f52:	f442 7280 	orr.w	r2, r2, #256	; 0x100
 8000f56:	601a      	str	r2, [r3, #0]
  HAL_NVIC_SetPriorityGrouping(NVIC_PRIORITYGROUP_4);
 8000f58:	2003      	movs	r0, #3
 8000f5a:	f000 f9a7 	bl	80012ac <HAL_NVIC_SetPriorityGrouping>
  HAL_InitTick(TICK_INT_PRIORITY);
 8000f5e:	2000      	movs	r0, #0
 8000f60:	f7ff ffc6 	bl	8000ef0 <HAL_InitTick>
  HAL_MspInit();
 8000f64:	f003 fc7a 	bl	800485c <HAL_MspInit>
}
 8000f68:	2000      	movs	r0, #0
 8000f6a:	bd08      	pop	{r3, pc}
 8000f6c:	40023c00 	.word	0x40023c00

08000f70 <HAL_IncTick>:
  *      implementations in user file.
  * @retval None
  */
__weak void HAL_IncTick(void)
{
  uwTick += uwTickFreq;
 8000f70:	4a03      	ldr	r2, [pc, #12]	; (8000f80 <HAL_IncTick+0x10>)
 8000f72:	6811      	ldr	r1, [r2, #0]
 8000f74:	4b03      	ldr	r3, [pc, #12]	; (8000f84 <HAL_IncTick+0x14>)
 8000f76:	781b      	ldrb	r3, [r3, #0]
 8000f78:	440b      	add	r3, r1
 8000f7a:	6013      	str	r3, [r2, #0]
 8000f7c:	4770      	bx	lr
 8000f7e:	bf00      	nop
 8000f80:	200006d8 	.word	0x200006d8
 8000f84:	20000000 	.word	0x20000000

08000f88 <HAL_GetTick>:
  *       implementations in user file.
  * @retval tick value
  */
__weak uint32_t HAL_GetTick(void)
{
  return uwTick;
 8000f88:	4b01      	ldr	r3, [pc, #4]	; (8000f90 <HAL_GetTick+0x8>)
 8000f8a:	6818      	ldr	r0, [r3, #0]
}
 8000f8c:	4770      	bx	lr
 8000f8e:	bf00      	nop
 8000f90:	200006d8 	.word	0x200006d8

08000f94 <ADC_Init>:
  /* (Depending on STM32F4 product, there may be up to 3 ADCs and 1 common */
  /* control register)                                                    */
  tmpADC_Common = ADC_COMMON_REGISTER(hadc);
  
  /* Set the ADC clock prescaler */
  tmpADC_Common->CCR &= ~(ADC_CCR_ADCPRE);
 8000f94:	4b49      	ldr	r3, [pc, #292]	; (80010bc <ADC_Init+0x128>)
 8000f96:	685a      	ldr	r2, [r3, #4]
 8000f98:	f422 3240 	bic.w	r2, r2, #196608	; 0x30000
 8000f9c:	605a      	str	r2, [r3, #4]
  tmpADC_Common->CCR |=  hadc->Init.ClockPrescaler;
 8000f9e:	685a      	ldr	r2, [r3, #4]
 8000fa0:	6841      	ldr	r1, [r0, #4]
 8000fa2:	430a      	orrs	r2, r1
 8000fa4:	605a      	str	r2, [r3, #4]
  
  /* Set ADC scan mode */
  hadc->Instance->CR1 &= ~(ADC_CR1_SCAN);
 8000fa6:	6802      	ldr	r2, [r0, #0]
 8000fa8:	6853      	ldr	r3, [r2, #4]
 8000faa:	f423 7380 	bic.w	r3, r3, #256	; 0x100
 8000fae:	6053      	str	r3, [r2, #4]
  hadc->Instance->CR1 |=  ADC_CR1_SCANCONV(hadc->Init.ScanConvMode);
 8000fb0:	6802      	ldr	r2, [r0, #0]
 8000fb2:	6853      	ldr	r3, [r2, #4]
 8000fb4:	6901      	ldr	r1, [r0, #16]
 8000fb6:	ea43 2301 	orr.w	r3, r3, r1, lsl #8
 8000fba:	6053      	str	r3, [r2, #4]
  
  /* Set ADC resolution */
  hadc->Instance->CR1 &= ~(ADC_CR1_RES);
 8000fbc:	6802      	ldr	r2, [r0, #0]
 8000fbe:	6853      	ldr	r3, [r2, #4]
 8000fc0:	f023 7340 	bic.w	r3, r3, #50331648	; 0x3000000
 8000fc4:	6053      	str	r3, [r2, #4]
  hadc->Instance->CR1 |=  hadc->Init.Resolution;
 8000fc6:	6802      	ldr	r2, [r0, #0]
 8000fc8:	6853      	ldr	r3, [r2, #4]
 8000fca:	6881      	ldr	r1, [r0, #8]
 8000fcc:	430b      	orrs	r3, r1
 8000fce:	6053      	str	r3, [r2, #4]
  
  /* Set ADC data alignment */
  hadc->Instance->CR2 &= ~(ADC_CR2_ALIGN);
 8000fd0:	6802      	ldr	r2, [r0, #0]
 8000fd2:	6893      	ldr	r3, [r2, #8]
 8000fd4:	f423 6300 	bic.w	r3, r3, #2048	; 0x800
 8000fd8:	6093      	str	r3, [r2, #8]
  hadc->Instance->CR2 |= hadc->Init.DataAlign;
 8000fda:	6802      	ldr	r2, [r0, #0]
 8000fdc:	6893      	ldr	r3, [r2, #8]
 8000fde:	68c1      	ldr	r1, [r0, #12]
 8000fe0:	430b      	orrs	r3, r1
 8000fe2:	6093      	str	r3, [r2, #8]
  /* Enable external trigger if trigger selection is different of software  */
  /* start.                                                                 */
  /* Note: This configuration keeps the hardware feature of parameter       */
  /*       ExternalTrigConvEdge "trigger edge none" equivalent to           */
  /*       software start.                                                  */
  if(hadc->Init.ExternalTrigConv != ADC_SOFTWARE_START)
 8000fe4:	6a82      	ldr	r2, [r0, #40]	; 0x28
 8000fe6:	4b36      	ldr	r3, [pc, #216]	; (80010c0 <ADC_Init+0x12c>)
 8000fe8:	429a      	cmp	r2, r3
 8000fea:	d049      	beq.n	8001080 <ADC_Init+0xec>
  {
    /* Select external trigger to start conversion */
    hadc->Instance->CR2 &= ~(ADC_CR2_EXTSEL);
 8000fec:	6802      	ldr	r2, [r0, #0]
 8000fee:	6893      	ldr	r3, [r2, #8]
 8000ff0:	f023 6370 	bic.w	r3, r3, #251658240	; 0xf000000
 8000ff4:	6093      	str	r3, [r2, #8]
    hadc->Instance->CR2 |= hadc->Init.ExternalTrigConv;
 8000ff6:	6802      	ldr	r2, [r0, #0]
 8000ff8:	6893      	ldr	r3, [r2, #8]
 8000ffa:	6a81      	ldr	r1, [r0, #40]	; 0x28
 8000ffc:	430b      	orrs	r3, r1
 8000ffe:	6093      	str	r3, [r2, #8]
    
    /* Select external trigger polarity */
    hadc->Instance->CR2 &= ~(ADC_CR2_EXTEN);
 8001000:	6802      	ldr	r2, [r0, #0]
 8001002:	6893      	ldr	r3, [r2, #8]
 8001004:	f023 5340 	bic.w	r3, r3, #805306368	; 0x30000000
 8001008:	6093      	str	r3, [r2, #8]
    hadc->Instance->CR2 |= hadc->Init.ExternalTrigConvEdge;
 800100a:	6802      	ldr	r2, [r0, #0]
 800100c:	6893      	ldr	r3, [r2, #8]
 800100e:	6ac1      	ldr	r1, [r0, #44]	; 0x2c
 8001010:	430b      	orrs	r3, r1
 8001012:	6093      	str	r3, [r2, #8]
    hadc->Instance->CR2 &= ~(ADC_CR2_EXTSEL);
    hadc->Instance->CR2 &= ~(ADC_CR2_EXTEN);
  }
  
  /* Enable or disable ADC continuous conversion mode */
  hadc->Instance->CR2 &= ~(ADC_CR2_CONT);
 8001014:	6802      	ldr	r2, [r0, #0]
 8001016:	6893      	ldr	r3, [r2, #8]
 8001018:	f023 0302 	bic.w	r3, r3, #2
 800101c:	6093      	str	r3, [r2, #8]
  hadc->Instance->CR2 |= ADC_CR2_CONTINUOUS(hadc->Init.ContinuousConvMode);
 800101e:	6802      	ldr	r2, [r0, #0]
 8001020:	6893      	ldr	r3, [r2, #8]
 8001022:	6981      	ldr	r1, [r0, #24]
 8001024:	ea43 0341 	orr.w	r3, r3, r1, lsl #1
 8001028:	6093      	str	r3, [r2, #8]
  
  if(hadc->Init.DiscontinuousConvMode != DISABLE)
 800102a:	6a03      	ldr	r3, [r0, #32]
 800102c:	2b00      	cmp	r3, #0
 800102e:	d132      	bne.n	8001096 <ADC_Init+0x102>
    hadc->Instance->CR1 |=  ADC_CR1_DISCONTINUOUS(hadc->Init.NbrOfDiscConversion);
  }
  else
  {
    /* Disable the selected ADC regular discontinuous mode */
    hadc->Instance->CR1 &= ~(ADC_CR1_DISCEN);
 8001030:	6802      	ldr	r2, [r0, #0]
 8001032:	6853      	ldr	r3, [r2, #4]
 8001034:	f423 6300 	bic.w	r3, r3, #2048	; 0x800
 8001038:	6053      	str	r3, [r2, #4]
  }
  
  /* Set ADC number of conversion */
  hadc->Instance->SQR1 &= ~(ADC_SQR1_L);
 800103a:	6802      	ldr	r2, [r0, #0]
 800103c:	6ad3      	ldr	r3, [r2, #44]	; 0x2c
 800103e:	f423 0370 	bic.w	r3, r3, #15728640	; 0xf00000
 8001042:	62d3      	str	r3, [r2, #44]	; 0x2c
  hadc->Instance->SQR1 |=  ADC_SQR1(hadc->Init.NbrOfConversion);
 8001044:	6801      	ldr	r1, [r0, #0]
 8001046:	6acb      	ldr	r3, [r1, #44]	; 0x2c
 8001048:	69c2      	ldr	r2, [r0, #28]
 800104a:	3a01      	subs	r2, #1
 800104c:	ea43 5302 	orr.w	r3, r3, r2, lsl #20
 8001050:	62cb      	str	r3, [r1, #44]	; 0x2c
  
  /* Enable or disable ADC DMA continuous request */
  hadc->Instance->CR2 &= ~(ADC_CR2_DDS);
 8001052:	6802      	ldr	r2, [r0, #0]
 8001054:	6893      	ldr	r3, [r2, #8]
 8001056:	f423 7300 	bic.w	r3, r3, #512	; 0x200
 800105a:	6093      	str	r3, [r2, #8]
  hadc->Instance->CR2 |= ADC_CR2_DMAContReq(hadc->Init.DMAContinuousRequests);
 800105c:	6802      	ldr	r2, [r0, #0]
 800105e:	6893      	ldr	r3, [r2, #8]
 8001060:	6b01      	ldr	r1, [r0, #48]	; 0x30
 8001062:	ea43 2341 	orr.w	r3, r3, r1, lsl #9
 8001066:	6093      	str	r3, [r2, #8]
  
  /* Enable or disable ADC end of conversion selection */
  hadc->Instance->CR2 &= ~(ADC_CR2_EOCS);
 8001068:	6802      	ldr	r2, [r0, #0]
 800106a:	6893      	ldr	r3, [r2, #8]
 800106c:	f423 6380 	bic.w	r3, r3, #1024	; 0x400
 8001070:	6093      	str	r3, [r2, #8]
  hadc->Instance->CR2 |= ADC_CR2_EOCSelection(hadc->Init.EOCSelection);
 8001072:	6802      	ldr	r2, [r0, #0]
 8001074:	6893      	ldr	r3, [r2, #8]
 8001076:	6941      	ldr	r1, [r0, #20]
 8001078:	ea43 2381 	orr.w	r3, r3, r1, lsl #10
 800107c:	6093      	str	r3, [r2, #8]
 800107e:	4770      	bx	lr
    hadc->Instance->CR2 &= ~(ADC_CR2_EXTSEL);
 8001080:	6802      	ldr	r2, [r0, #0]
 8001082:	6893      	ldr	r3, [r2, #8]
 8001084:	f023 6370 	bic.w	r3, r3, #251658240	; 0xf000000
 8001088:	6093      	str	r3, [r2, #8]
    hadc->Instance->CR2 &= ~(ADC_CR2_EXTEN);
 800108a:	6802      	ldr	r2, [r0, #0]
 800108c:	6893      	ldr	r3, [r2, #8]
 800108e:	f023 5340 	bic.w	r3, r3, #805306368	; 0x30000000
 8001092:	6093      	str	r3, [r2, #8]
 8001094:	e7be      	b.n	8001014 <ADC_Init+0x80>
    hadc->Instance->CR1 |= (uint32_t)ADC_CR1_DISCEN;
 8001096:	6802      	ldr	r2, [r0, #0]
 8001098:	6853      	ldr	r3, [r2, #4]
 800109a:	f443 6300 	orr.w	r3, r3, #2048	; 0x800
 800109e:	6053      	str	r3, [r2, #4]
    hadc->Instance->CR1 &= ~(ADC_CR1_DISCNUM);
 80010a0:	6802      	ldr	r2, [r0, #0]
 80010a2:	6853      	ldr	r3, [r2, #4]
 80010a4:	f423 4360 	bic.w	r3, r3, #57344	; 0xe000
 80010a8:	6053      	str	r3, [r2, #4]
    hadc->Instance->CR1 |=  ADC_CR1_DISCONTINUOUS(hadc->Init.NbrOfDiscConversion);
 80010aa:	6801      	ldr	r1, [r0, #0]
 80010ac:	684b      	ldr	r3, [r1, #4]
 80010ae:	6a42      	ldr	r2, [r0, #36]	; 0x24
 80010b0:	3a01      	subs	r2, #1
 80010b2:	ea43 3342 	orr.w	r3, r3, r2, lsl #13
 80010b6:	604b      	str	r3, [r1, #4]
 80010b8:	e7bf      	b.n	800103a <ADC_Init+0xa6>
 80010ba:	bf00      	nop
 80010bc:	40012300 	.word	0x40012300
 80010c0:	0f000001 	.word	0x0f000001

080010c4 <HAL_ADC_Init>:
  if(hadc == NULL)
 80010c4:	b330      	cbz	r0, 8001114 <HAL_ADC_Init+0x50>
{
 80010c6:	b510      	push	{r4, lr}
 80010c8:	4604      	mov	r4, r0
  if(hadc->State == HAL_ADC_STATE_RESET)
 80010ca:	6c03      	ldr	r3, [r0, #64]	; 0x40
 80010cc:	b143      	cbz	r3, 80010e0 <HAL_ADC_Init+0x1c>
  if (HAL_IS_BIT_CLR(hadc->State, HAL_ADC_STATE_ERROR_INTERNAL))
 80010ce:	6c23      	ldr	r3, [r4, #64]	; 0x40
 80010d0:	f013 0f10 	tst.w	r3, #16
 80010d4:	d00a      	beq.n	80010ec <HAL_ADC_Init+0x28>
    tmp_hal_status = HAL_ERROR;
 80010d6:	2001      	movs	r0, #1
  __HAL_UNLOCK(hadc);
 80010d8:	2300      	movs	r3, #0
 80010da:	f884 303c 	strb.w	r3, [r4, #60]	; 0x3c
  return tmp_hal_status;
 80010de:	bd10      	pop	{r4, pc}
    ADC_CLEAR_ERRORCODE(hadc);
 80010e0:	6443      	str	r3, [r0, #68]	; 0x44
    hadc->Lock = HAL_UNLOCKED;
 80010e2:	f880 303c 	strb.w	r3, [r0, #60]	; 0x3c
    HAL_ADC_MspInit(hadc);
 80010e6:	f003 fbd9 	bl	800489c <HAL_ADC_MspInit>
 80010ea:	e7f0      	b.n	80010ce <HAL_ADC_Init+0xa>
    ADC_STATE_CLR_SET(hadc->State,
 80010ec:	6c23      	ldr	r3, [r4, #64]	; 0x40
 80010ee:	f423 5388 	bic.w	r3, r3, #4352	; 0x1100
 80010f2:	f023 0302 	bic.w	r3, r3, #2
 80010f6:	f043 0302 	orr.w	r3, r3, #2
 80010fa:	6423      	str	r3, [r4, #64]	; 0x40
    ADC_Init(hadc);
 80010fc:	4620      	mov	r0, r4
 80010fe:	f7ff ff49 	bl	8000f94 <ADC_Init>
    ADC_CLEAR_ERRORCODE(hadc);
 8001102:	2000      	movs	r0, #0
 8001104:	6460      	str	r0, [r4, #68]	; 0x44
    ADC_STATE_CLR_SET(hadc->State,
 8001106:	6c23      	ldr	r3, [r4, #64]	; 0x40
 8001108:	f023 0303 	bic.w	r3, r3, #3
 800110c:	f043 0301 	orr.w	r3, r3, #1
 8001110:	6423      	str	r3, [r4, #64]	; 0x40
 8001112:	e7e1      	b.n	80010d8 <HAL_ADC_Init+0x14>
    return HAL_ERROR;
 8001114:	2001      	movs	r0, #1
 8001116:	4770      	bx	lr

08001118 <HAL_ADC_ConfigChannel>:
{
 8001118:	b430      	push	{r4, r5}
 800111a:	b082      	sub	sp, #8
  __IO uint32_t counter = 0U;
 800111c:	2300      	movs	r3, #0
 800111e:	9301      	str	r3, [sp, #4]
  __HAL_LOCK(hadc);
 8001120:	f890 303c 	ldrb.w	r3, [r0, #60]	; 0x3c
 8001124:	2b01      	cmp	r3, #1
 8001126:	f000 80b5 	beq.w	8001294 <HAL_ADC_ConfigChannel+0x17c>
 800112a:	2301      	movs	r3, #1
 800112c:	f880 303c 	strb.w	r3, [r0, #60]	; 0x3c
  if (sConfig->Channel > ADC_CHANNEL_9)
 8001130:	680b      	ldr	r3, [r1, #0]
 8001132:	2b09      	cmp	r3, #9
 8001134:	d93e      	bls.n	80011b4 <HAL_ADC_ConfigChannel+0x9c>
    hadc->Instance->SMPR1 &= ~ADC_SMPR1(ADC_SMPR1_SMP10, sConfig->Channel);
 8001136:	6805      	ldr	r5, [r0, #0]
 8001138:	68ea      	ldr	r2, [r5, #12]
 800113a:	b29b      	uxth	r3, r3
 800113c:	eb03 0343 	add.w	r3, r3, r3, lsl #1
 8001140:	3b1e      	subs	r3, #30
 8001142:	2407      	movs	r4, #7
 8001144:	fa04 f303 	lsl.w	r3, r4, r3
 8001148:	ea22 0303 	bic.w	r3, r2, r3
 800114c:	60eb      	str	r3, [r5, #12]
    hadc->Instance->SMPR1 |= ADC_SMPR1(sConfig->SamplingTime, sConfig->Channel);
 800114e:	6805      	ldr	r5, [r0, #0]
 8001150:	68ea      	ldr	r2, [r5, #12]
 8001152:	688c      	ldr	r4, [r1, #8]
 8001154:	880b      	ldrh	r3, [r1, #0]
 8001156:	eb03 0343 	add.w	r3, r3, r3, lsl #1
 800115a:	3b1e      	subs	r3, #30
 800115c:	fa04 f303 	lsl.w	r3, r4, r3
 8001160:	4313      	orrs	r3, r2
 8001162:	60eb      	str	r3, [r5, #12]
  if (sConfig->Rank < 7U)
 8001164:	684b      	ldr	r3, [r1, #4]
 8001166:	2b06      	cmp	r3, #6
 8001168:	d83a      	bhi.n	80011e0 <HAL_ADC_ConfigChannel+0xc8>
    hadc->Instance->SQR3 &= ~ADC_SQR3_RK(ADC_SQR3_SQ1, sConfig->Rank);
 800116a:	6805      	ldr	r5, [r0, #0]
 800116c:	6b6a      	ldr	r2, [r5, #52]	; 0x34
 800116e:	eb03 0383 	add.w	r3, r3, r3, lsl #2
 8001172:	3b05      	subs	r3, #5
 8001174:	241f      	movs	r4, #31
 8001176:	fa04 f303 	lsl.w	r3, r4, r3
 800117a:	ea22 0303 	bic.w	r3, r2, r3
 800117e:	636b      	str	r3, [r5, #52]	; 0x34
    hadc->Instance->SQR3 |= ADC_SQR3_RK(sConfig->Channel, sConfig->Rank);
 8001180:	6805      	ldr	r5, [r0, #0]
 8001182:	6b6a      	ldr	r2, [r5, #52]	; 0x34
 8001184:	684b      	ldr	r3, [r1, #4]
 8001186:	eb03 0383 	add.w	r3, r3, r3, lsl #2
 800118a:	3b05      	subs	r3, #5
 800118c:	880c      	ldrh	r4, [r1, #0]
 800118e:	fa04 f303 	lsl.w	r3, r4, r3
 8001192:	4313      	orrs	r3, r2
 8001194:	636b      	str	r3, [r5, #52]	; 0x34
  if ((hadc->Instance == ADC1) && (sConfig->Channel == ADC_CHANNEL_VBAT))
 8001196:	6802      	ldr	r2, [r0, #0]
 8001198:	4b3f      	ldr	r3, [pc, #252]	; (8001298 <HAL_ADC_ConfigChannel+0x180>)
 800119a:	429a      	cmp	r2, r3
 800119c:	d050      	beq.n	8001240 <HAL_ADC_ConfigChannel+0x128>
  if ((hadc->Instance == ADC1) && ((sConfig->Channel == ADC_CHANNEL_TEMPSENSOR) || (sConfig->Channel == ADC_CHANNEL_VREFINT)))
 800119e:	6802      	ldr	r2, [r0, #0]
 80011a0:	4b3d      	ldr	r3, [pc, #244]	; (8001298 <HAL_ADC_ConfigChannel+0x180>)
 80011a2:	429a      	cmp	r2, r3
 80011a4:	d055      	beq.n	8001252 <HAL_ADC_ConfigChannel+0x13a>
  __HAL_UNLOCK(hadc);
 80011a6:	2300      	movs	r3, #0
 80011a8:	f880 303c 	strb.w	r3, [r0, #60]	; 0x3c
  return HAL_OK;
 80011ac:	4618      	mov	r0, r3
}
 80011ae:	b002      	add	sp, #8
 80011b0:	bc30      	pop	{r4, r5}
 80011b2:	4770      	bx	lr
    hadc->Instance->SMPR2 &= ~ADC_SMPR2(ADC_SMPR2_SMP0, sConfig->Channel);
 80011b4:	6805      	ldr	r5, [r0, #0]
 80011b6:	692a      	ldr	r2, [r5, #16]
 80011b8:	b29b      	uxth	r3, r3
 80011ba:	eb03 0343 	add.w	r3, r3, r3, lsl #1
 80011be:	2407      	movs	r4, #7
 80011c0:	fa04 f303 	lsl.w	r3, r4, r3
 80011c4:	ea22 0303 	bic.w	r3, r2, r3
 80011c8:	612b      	str	r3, [r5, #16]
    hadc->Instance->SMPR2 |= ADC_SMPR2(sConfig->SamplingTime, sConfig->Channel);
 80011ca:	6805      	ldr	r5, [r0, #0]
 80011cc:	692a      	ldr	r2, [r5, #16]
 80011ce:	688c      	ldr	r4, [r1, #8]
 80011d0:	880b      	ldrh	r3, [r1, #0]
 80011d2:	eb03 0343 	add.w	r3, r3, r3, lsl #1
 80011d6:	fa04 f303 	lsl.w	r3, r4, r3
 80011da:	4313      	orrs	r3, r2
 80011dc:	612b      	str	r3, [r5, #16]
 80011de:	e7c1      	b.n	8001164 <HAL_ADC_ConfigChannel+0x4c>
  else if (sConfig->Rank < 13U)
 80011e0:	2b0c      	cmp	r3, #12
 80011e2:	d816      	bhi.n	8001212 <HAL_ADC_ConfigChannel+0xfa>
    hadc->Instance->SQR2 &= ~ADC_SQR2_RK(ADC_SQR2_SQ7, sConfig->Rank);
 80011e4:	6805      	ldr	r5, [r0, #0]
 80011e6:	6b2a      	ldr	r2, [r5, #48]	; 0x30
 80011e8:	eb03 0383 	add.w	r3, r3, r3, lsl #2
 80011ec:	3b23      	subs	r3, #35	; 0x23
 80011ee:	241f      	movs	r4, #31
 80011f0:	fa04 f303 	lsl.w	r3, r4, r3
 80011f4:	ea22 0303 	bic.w	r3, r2, r3
 80011f8:	632b      	str	r3, [r5, #48]	; 0x30
    hadc->Instance->SQR2 |= ADC_SQR2_RK(sConfig->Channel, sConfig->Rank);
 80011fa:	6805      	ldr	r5, [r0, #0]
 80011fc:	6b2a      	ldr	r2, [r5, #48]	; 0x30
 80011fe:	684b      	ldr	r3, [r1, #4]
 8001200:	eb03 0383 	add.w	r3, r3, r3, lsl #2
 8001204:	3b23      	subs	r3, #35	; 0x23
 8001206:	880c      	ldrh	r4, [r1, #0]
 8001208:	fa04 f303 	lsl.w	r3, r4, r3
 800120c:	4313      	orrs	r3, r2
 800120e:	632b      	str	r3, [r5, #48]	; 0x30
 8001210:	e7c1      	b.n	8001196 <HAL_ADC_ConfigChannel+0x7e>
    hadc->Instance->SQR1 &= ~ADC_SQR1_RK(ADC_SQR1_SQ13, sConfig->Rank);
 8001212:	6805      	ldr	r5, [r0, #0]
 8001214:	6aea      	ldr	r2, [r5, #44]	; 0x2c
 8001216:	eb03 0383 	add.w	r3, r3, r3, lsl #2
 800121a:	3b41      	subs	r3, #65	; 0x41
 800121c:	241f      	movs	r4, #31
 800121e:	fa04 f303 	lsl.w	r3, r4, r3
 8001222:	ea22 0303 	bic.w	r3, r2, r3
 8001226:	62eb      	str	r3, [r5, #44]	; 0x2c
    hadc->Instance->SQR1 |= ADC_SQR1_RK(sConfig->Channel, sConfig->Rank);
 8001228:	6805      	ldr	r5, [r0, #0]
 800122a:	6aea      	ldr	r2, [r5, #44]	; 0x2c
 800122c:	684b      	ldr	r3, [r1, #4]
 800122e:	eb03 0383 	add.w	r3, r3, r3, lsl #2
 8001232:	3b41      	subs	r3, #65	; 0x41
 8001234:	880c      	ldrh	r4, [r1, #0]
 8001236:	fa04 f303 	lsl.w	r3, r4, r3
 800123a:	4313      	orrs	r3, r2
 800123c:	62eb      	str	r3, [r5, #44]	; 0x2c
 800123e:	e7aa      	b.n	8001196 <HAL_ADC_ConfigChannel+0x7e>
  if ((hadc->Instance == ADC1) && (sConfig->Channel == ADC_CHANNEL_VBAT))
 8001240:	680b      	ldr	r3, [r1, #0]
 8001242:	2b12      	cmp	r3, #18
 8001244:	d1ab      	bne.n	800119e <HAL_ADC_ConfigChannel+0x86>
    tmpADC_Common->CCR |= ADC_CCR_VBATE;
 8001246:	4a15      	ldr	r2, [pc, #84]	; (800129c <HAL_ADC_ConfigChannel+0x184>)
 8001248:	6853      	ldr	r3, [r2, #4]
 800124a:	f443 0380 	orr.w	r3, r3, #4194304	; 0x400000
 800124e:	6053      	str	r3, [r2, #4]
 8001250:	e7a5      	b.n	800119e <HAL_ADC_ConfigChannel+0x86>
  if ((hadc->Instance == ADC1) && ((sConfig->Channel == ADC_CHANNEL_TEMPSENSOR) || (sConfig->Channel == ADC_CHANNEL_VREFINT)))
 8001252:	680b      	ldr	r3, [r1, #0]
 8001254:	4a12      	ldr	r2, [pc, #72]	; (80012a0 <HAL_ADC_ConfigChannel+0x188>)
 8001256:	4293      	cmp	r3, r2
 8001258:	d001      	beq.n	800125e <HAL_ADC_ConfigChannel+0x146>
 800125a:	2b11      	cmp	r3, #17
 800125c:	d1a3      	bne.n	80011a6 <HAL_ADC_ConfigChannel+0x8e>
    tmpADC_Common->CCR |= ADC_CCR_TSVREFE;
 800125e:	4a0f      	ldr	r2, [pc, #60]	; (800129c <HAL_ADC_ConfigChannel+0x184>)
 8001260:	6853      	ldr	r3, [r2, #4]
 8001262:	f443 0300 	orr.w	r3, r3, #8388608	; 0x800000
 8001266:	6053      	str	r3, [r2, #4]
    if((sConfig->Channel == ADC_CHANNEL_TEMPSENSOR))
 8001268:	680a      	ldr	r2, [r1, #0]
 800126a:	4b0d      	ldr	r3, [pc, #52]	; (80012a0 <HAL_ADC_ConfigChannel+0x188>)
 800126c:	429a      	cmp	r2, r3
 800126e:	d19a      	bne.n	80011a6 <HAL_ADC_ConfigChannel+0x8e>
      counter = (ADC_TEMPSENSOR_DELAY_US * (SystemCoreClock / 1000000U));
 8001270:	4b0c      	ldr	r3, [pc, #48]	; (80012a4 <HAL_ADC_ConfigChannel+0x18c>)
 8001272:	681b      	ldr	r3, [r3, #0]
 8001274:	4a0c      	ldr	r2, [pc, #48]	; (80012a8 <HAL_ADC_ConfigChannel+0x190>)
 8001276:	fba2 2303 	umull	r2, r3, r2, r3
 800127a:	0c9b      	lsrs	r3, r3, #18
 800127c:	eb03 0383 	add.w	r3, r3, r3, lsl #2
 8001280:	005a      	lsls	r2, r3, #1
 8001282:	9201      	str	r2, [sp, #4]
      while(counter != 0U)
 8001284:	e002      	b.n	800128c <HAL_ADC_ConfigChannel+0x174>
        counter--;
 8001286:	9b01      	ldr	r3, [sp, #4]
 8001288:	3b01      	subs	r3, #1
 800128a:	9301      	str	r3, [sp, #4]
      while(counter != 0U)
 800128c:	9b01      	ldr	r3, [sp, #4]
 800128e:	2b00      	cmp	r3, #0
 8001290:	d1f9      	bne.n	8001286 <HAL_ADC_ConfigChannel+0x16e>
 8001292:	e788      	b.n	80011a6 <HAL_ADC_ConfigChannel+0x8e>
  __HAL_LOCK(hadc);
 8001294:	2002      	movs	r0, #2
 8001296:	e78a      	b.n	80011ae <HAL_ADC_ConfigChannel+0x96>
 8001298:	40012000 	.word	0x40012000
 800129c:	40012300 	.word	0x40012300
 80012a0:	10000012 	.word	0x10000012
 80012a4:	20000008 	.word	0x20000008
 80012a8:	431bde83 	.word	0x431bde83

080012ac <HAL_NVIC_SetPriorityGrouping>:
__STATIC_INLINE void NVIC_SetPriorityGrouping(uint32_t PriorityGroup)
{
  uint32_t reg_value;
  uint32_t PriorityGroupTmp = (PriorityGroup & (uint32_t)0x07UL);             /* only values 0..7 are used          */

  reg_value  =  SCB->AIRCR;                                                   /* read old register configuration    */
 80012ac:	4a07      	ldr	r2, [pc, #28]	; (80012cc <HAL_NVIC_SetPriorityGrouping+0x20>)
 80012ae:	68d3      	ldr	r3, [r2, #12]
  reg_value &= ~((uint32_t)(SCB_AIRCR_VECTKEY_Msk | SCB_AIRCR_PRIGROUP_Msk)); /* clear bits to change               */
 80012b0:	f423 63e0 	bic.w	r3, r3, #1792	; 0x700
 80012b4:	041b      	lsls	r3, r3, #16
 80012b6:	0c1b      	lsrs	r3, r3, #16
  reg_value  =  (reg_value                                   |
                ((uint32_t)0x5FAUL << SCB_AIRCR_VECTKEY_Pos) |
                (PriorityGroupTmp << 8U)                      );              /* Insert write key and priorty group */
 80012b8:	0200      	lsls	r0, r0, #8
 80012ba:	f400 60e0 	and.w	r0, r0, #1792	; 0x700
                ((uint32_t)0x5FAUL << SCB_AIRCR_VECTKEY_Pos) |
 80012be:	4318      	orrs	r0, r3
  reg_value  =  (reg_value                                   |
 80012c0:	f040 60bf 	orr.w	r0, r0, #100139008	; 0x5f80000
 80012c4:	f440 3000 	orr.w	r0, r0, #131072	; 0x20000
  SCB->AIRCR =  reg_value;
 80012c8:	60d0      	str	r0, [r2, #12]
 80012ca:	4770      	bx	lr
 80012cc:	e000ed00 	.word	0xe000ed00

080012d0 <HAL_NVIC_SetPriority>:
  *         This parameter can be a value between 0 and 15
  *         A lower priority value indicates a higher priority.          
  * @retval None
  */
void HAL_NVIC_SetPriority(IRQn_Type IRQn, uint32_t PreemptPriority, uint32_t SubPriority)
{ 
 80012d0:	b430      	push	{r4, r5}
  \details Reads the priority grouping field from the NVIC Interrupt Controller.
  \return                Priority grouping field (SCB->AIRCR [10:8] PRIGROUP field).
 */
__STATIC_INLINE uint32_t NVIC_GetPriorityGrouping(void)
{
  return ((uint32_t)((SCB->AIRCR & SCB_AIRCR_PRIGROUP_Msk) >> SCB_AIRCR_PRIGROUP_Pos));
 80012d2:	4b16      	ldr	r3, [pc, #88]	; (800132c <HAL_NVIC_SetPriority+0x5c>)
 80012d4:	68db      	ldr	r3, [r3, #12]
 80012d6:	f3c3 2302 	ubfx	r3, r3, #8, #3
{
  uint32_t PriorityGroupTmp = (PriorityGroup & (uint32_t)0x07UL);   /* only values 0..7 are used          */
  uint32_t PreemptPriorityBits;
  uint32_t SubPriorityBits;

  PreemptPriorityBits = ((7UL - PriorityGroupTmp) > (uint32_t)(__NVIC_PRIO_BITS)) ? (uint32_t)(__NVIC_PRIO_BITS) : (uint32_t)(7UL - PriorityGroupTmp);
 80012da:	f1c3 0407 	rsb	r4, r3, #7
 80012de:	2c04      	cmp	r4, #4
 80012e0:	bf28      	it	cs
 80012e2:	2404      	movcs	r4, #4
  SubPriorityBits     = ((PriorityGroupTmp + (uint32_t)(__NVIC_PRIO_BITS)) < (uint32_t)7UL) ? (uint32_t)0UL : (uint32_t)((PriorityGroupTmp - 7UL) + (uint32_t)(__NVIC_PRIO_BITS));
 80012e4:	1d1d      	adds	r5, r3, #4
 80012e6:	2d06      	cmp	r5, #6
 80012e8:	d917      	bls.n	800131a <HAL_NVIC_SetPriority+0x4a>
 80012ea:	3b03      	subs	r3, #3

  return (
           ((PreemptPriority & (uint32_t)((1UL << (PreemptPriorityBits)) - 1UL)) << SubPriorityBits) |
 80012ec:	2501      	movs	r5, #1
 80012ee:	fa05 f404 	lsl.w	r4, r5, r4
 80012f2:	3c01      	subs	r4, #1
 80012f4:	4021      	ands	r1, r4
 80012f6:	4099      	lsls	r1, r3
           ((SubPriority     & (uint32_t)((1UL << (SubPriorityBits    )) - 1UL)))
 80012f8:	fa05 f303 	lsl.w	r3, r5, r3
 80012fc:	3b01      	subs	r3, #1
 80012fe:	4013      	ands	r3, r2
           ((PreemptPriority & (uint32_t)((1UL << (PreemptPriorityBits)) - 1UL)) << SubPriorityBits) |
 8001300:	4319      	orrs	r1, r3
  if ((int32_t)(IRQn) < 0)
 8001302:	2800      	cmp	r0, #0
 8001304:	db0b      	blt.n	800131e <HAL_NVIC_SetPriority+0x4e>
    NVIC->IP[((uint32_t)(int32_t)IRQn)]               = (uint8_t)((priority << (8U - __NVIC_PRIO_BITS)) & (uint32_t)0xFFUL);
 8001306:	0109      	lsls	r1, r1, #4
 8001308:	b2c9      	uxtb	r1, r1
 800130a:	f100 4060 	add.w	r0, r0, #3758096384	; 0xe0000000
 800130e:	f500 4061 	add.w	r0, r0, #57600	; 0xe100
 8001312:	f880 1300 	strb.w	r1, [r0, #768]	; 0x300
  assert_param(IS_NVIC_PREEMPTION_PRIORITY(PreemptPriority));
  
  prioritygroup = NVIC_GetPriorityGrouping();
  
  NVIC_SetPriority(IRQn, NVIC_EncodePriority(prioritygroup, PreemptPriority, SubPriority));
}
 8001316:	bc30      	pop	{r4, r5}
 8001318:	4770      	bx	lr
  SubPriorityBits     = ((PriorityGroupTmp + (uint32_t)(__NVIC_PRIO_BITS)) < (uint32_t)7UL) ? (uint32_t)0UL : (uint32_t)((PriorityGroupTmp - 7UL) + (uint32_t)(__NVIC_PRIO_BITS));
 800131a:	2300      	movs	r3, #0
 800131c:	e7e6      	b.n	80012ec <HAL_NVIC_SetPriority+0x1c>
    SCB->SHP[(((uint32_t)(int32_t)IRQn) & 0xFUL)-4UL] = (uint8_t)((priority << (8U - __NVIC_PRIO_BITS)) & (uint32_t)0xFFUL);
 800131e:	f000 000f 	and.w	r0, r0, #15
 8001322:	0109      	lsls	r1, r1, #4
 8001324:	b2c9      	uxtb	r1, r1
 8001326:	4b02      	ldr	r3, [pc, #8]	; (8001330 <HAL_NVIC_SetPriority+0x60>)
 8001328:	5419      	strb	r1, [r3, r0]
 800132a:	e7f4      	b.n	8001316 <HAL_NVIC_SetPriority+0x46>
 800132c:	e000ed00 	.word	0xe000ed00
 8001330:	e000ed14 	.word	0xe000ed14

08001334 <HAL_NVIC_EnableIRQ>:
  NVIC->ISER[(((uint32_t)(int32_t)IRQn) >> 5UL)] = (uint32_t)(1UL << (((uint32_t)(int32_t)IRQn) & 0x1FUL));
 8001334:	0942      	lsrs	r2, r0, #5
 8001336:	f000 001f 	and.w	r0, r0, #31
 800133a:	2301      	movs	r3, #1
 800133c:	fa03 f000 	lsl.w	r0, r3, r0
 8001340:	4b01      	ldr	r3, [pc, #4]	; (8001348 <HAL_NVIC_EnableIRQ+0x14>)
 8001342:	f843 0022 	str.w	r0, [r3, r2, lsl #2]
 8001346:	4770      	bx	lr
 8001348:	e000e100 	.word	0xe000e100

0800134c <HAL_SYSTICK_Config>:
           function <b>SysTick_Config</b> is not included. In this case, the file <b><i>device</i>.h</b>
           must contain a vendor-specific implementation of this function.
 */
__STATIC_INLINE uint32_t SysTick_Config(uint32_t ticks)
{
  if ((ticks - 1UL) > SysTick_LOAD_RELOAD_Msk)
 800134c:	3801      	subs	r0, #1
 800134e:	f1b0 7f80 	cmp.w	r0, #16777216	; 0x1000000
 8001352:	d20a      	bcs.n	800136a <HAL_SYSTICK_Config+0x1e>
  {
    return (1UL);                                                   /* Reload value impossible */
  }

  SysTick->LOAD  = (uint32_t)(ticks - 1UL);                         /* set reload register */
 8001354:	4b06      	ldr	r3, [pc, #24]	; (8001370 <HAL_SYSTICK_Config+0x24>)
 8001356:	6058      	str	r0, [r3, #4]
    SCB->SHP[(((uint32_t)(int32_t)IRQn) & 0xFUL)-4UL] = (uint8_t)((priority << (8U - __NVIC_PRIO_BITS)) & (uint32_t)0xFFUL);
 8001358:	21f0      	movs	r1, #240	; 0xf0
 800135a:	4a06      	ldr	r2, [pc, #24]	; (8001374 <HAL_SYSTICK_Config+0x28>)
 800135c:	f882 1023 	strb.w	r1, [r2, #35]	; 0x23
  NVIC_SetPriority (SysTick_IRQn, (1UL << __NVIC_PRIO_BITS) - 1UL); /* set Priority for Systick Interrupt */
  SysTick->VAL   = 0UL;                                             /* Load the SysTick Counter Value */
 8001360:	2000      	movs	r0, #0
 8001362:	6098      	str	r0, [r3, #8]
  SysTick->CTRL  = SysTick_CTRL_CLKSOURCE_Msk |
 8001364:	2207      	movs	r2, #7
 8001366:	601a      	str	r2, [r3, #0]
 8001368:	4770      	bx	lr
    return (1UL);                                                   /* Reload value impossible */
 800136a:	2001      	movs	r0, #1
  *                  - 1  Function failed.
  */
uint32_t HAL_SYSTICK_Config(uint32_t TicksNumb)
{
   return SysTick_Config(TicksNumb);
}
 800136c:	4770      	bx	lr
 800136e:	bf00      	nop
 8001370:	e000e010 	.word	0xe000e010
 8001374:	e000ed00 	.word	0xe000ed00

08001378 <DMA_SetConfig>:
  * @param  DstAddress The destination memory Buffer address
  * @param  DataLength The length of data to be transferred from source to destination
  * @retval HAL status
  */
static void DMA_SetConfig(DMA_HandleTypeDef *hdma, uint32_t SrcAddress, uint32_t DstAddress, uint32_t DataLength)
{
 8001378:	b430      	push	{r4, r5}
  /* Clear DBM bit */
  hdma->Instance->CR &= (uint32_t)(~DMA_SxCR_DBM);
 800137a:	6805      	ldr	r5, [r0, #0]
 800137c:	682c      	ldr	r4, [r5, #0]
 800137e:	f424 2480 	bic.w	r4, r4, #262144	; 0x40000
 8001382:	602c      	str	r4, [r5, #0]

  /* Configure DMA Stream data length */
  hdma->Instance->NDTR = DataLength;
 8001384:	6804      	ldr	r4, [r0, #0]
 8001386:	6063      	str	r3, [r4, #4]

  /* Memory to Peripheral */
  if((hdma->Init.Direction) == DMA_MEMORY_TO_PERIPH)
 8001388:	6883      	ldr	r3, [r0, #8]
 800138a:	2b40      	cmp	r3, #64	; 0x40
 800138c:	d005      	beq.n	800139a <DMA_SetConfig+0x22>
  }
  /* Peripheral to Memory */
  else
  {
    /* Configure DMA Stream source address */
    hdma->Instance->PAR = SrcAddress;
 800138e:	6803      	ldr	r3, [r0, #0]
 8001390:	6099      	str	r1, [r3, #8]

    /* Configure DMA Stream destination address */
    hdma->Instance->M0AR = DstAddress;
 8001392:	6803      	ldr	r3, [r0, #0]
 8001394:	60da      	str	r2, [r3, #12]
  }
}
 8001396:	bc30      	pop	{r4, r5}
 8001398:	4770      	bx	lr
    hdma->Instance->PAR = DstAddress;
 800139a:	6803      	ldr	r3, [r0, #0]
 800139c:	609a      	str	r2, [r3, #8]
    hdma->Instance->M0AR = SrcAddress;
 800139e:	6803      	ldr	r3, [r0, #0]
 80013a0:	60d9      	str	r1, [r3, #12]
 80013a2:	e7f8      	b.n	8001396 <DMA_SetConfig+0x1e>

080013a4 <DMA_CalcBaseAndBitshift>:
  *                     the configuration information for the specified DMA Stream. 
  * @retval Stream base address
  */
static uint32_t DMA_CalcBaseAndBitshift(DMA_HandleTypeDef *hdma)
{
  uint32_t stream_number = (((uint32_t)hdma->Instance & 0xFFU) - 16U) / 24U;
 80013a4:	6802      	ldr	r2, [r0, #0]
 80013a6:	b2d3      	uxtb	r3, r2
 80013a8:	3b10      	subs	r3, #16
 80013aa:	490b      	ldr	r1, [pc, #44]	; (80013d8 <DMA_CalcBaseAndBitshift+0x34>)
 80013ac:	fba1 1303 	umull	r1, r3, r1, r3
 80013b0:	091b      	lsrs	r3, r3, #4
  
  /* lookup table for necessary bitshift of flags within status registers */
  static const uint8_t flagBitshiftOffset[8U] = {0U, 6U, 16U, 22U, 0U, 6U, 16U, 22U};
  hdma->StreamIndex = flagBitshiftOffset[stream_number];
 80013b2:	490a      	ldr	r1, [pc, #40]	; (80013dc <DMA_CalcBaseAndBitshift+0x38>)
 80013b4:	5cc9      	ldrb	r1, [r1, r3]
 80013b6:	65c1      	str	r1, [r0, #92]	; 0x5c
  
  if (stream_number > 3U)
 80013b8:	2b03      	cmp	r3, #3
 80013ba:	d806      	bhi.n	80013ca <DMA_CalcBaseAndBitshift+0x26>
    hdma->StreamBaseAddress = (((uint32_t)hdma->Instance & (uint32_t)(~0x3FFU)) + 4U);
  }
  else
  {
    /* return pointer to LISR and LIFCR */
    hdma->StreamBaseAddress = ((uint32_t)hdma->Instance & (uint32_t)(~0x3FFU));
 80013bc:	f422 727f 	bic.w	r2, r2, #1020	; 0x3fc
 80013c0:	f022 0203 	bic.w	r2, r2, #3
 80013c4:	6582      	str	r2, [r0, #88]	; 0x58
  }
  
  return hdma->StreamBaseAddress;
}
 80013c6:	6d80      	ldr	r0, [r0, #88]	; 0x58
 80013c8:	4770      	bx	lr
    hdma->StreamBaseAddress = (((uint32_t)hdma->Instance & (uint32_t)(~0x3FFU)) + 4U);
 80013ca:	f422 727f 	bic.w	r2, r2, #1020	; 0x3fc
 80013ce:	f022 0203 	bic.w	r2, r2, #3
 80013d2:	3204      	adds	r2, #4
 80013d4:	6582      	str	r2, [r0, #88]	; 0x58
 80013d6:	e7f6      	b.n	80013c6 <DMA_CalcBaseAndBitshift+0x22>
 80013d8:	aaaaaaab 	.word	0xaaaaaaab
 80013dc:	08008378 	.word	0x08008378

080013e0 <DMA_CheckFifoParam>:
  * @retval HAL status
  */
static HAL_StatusTypeDef DMA_CheckFifoParam(DMA_HandleTypeDef *hdma)
{
  HAL_StatusTypeDef status = HAL_OK;
  uint32_t tmp = hdma->Init.FIFOThreshold;
 80013e0:	6a83      	ldr	r3, [r0, #40]	; 0x28
  
  /* Memory Data size equal to Byte */
  if(hdma->Init.MemDataAlignment == DMA_MDATAALIGN_BYTE)
 80013e2:	6982      	ldr	r2, [r0, #24]
 80013e4:	b992      	cbnz	r2, 800140c <DMA_CheckFifoParam+0x2c>
  {
    switch (tmp)
 80013e6:	2b01      	cmp	r3, #1
 80013e8:	d00a      	beq.n	8001400 <DMA_CheckFifoParam+0x20>
 80013ea:	b11b      	cbz	r3, 80013f4 <DMA_CheckFifoParam+0x14>
 80013ec:	2b02      	cmp	r3, #2
 80013ee:	d001      	beq.n	80013f4 <DMA_CheckFifoParam+0x14>
  HAL_StatusTypeDef status = HAL_OK;
 80013f0:	2000      	movs	r0, #0
 80013f2:	4770      	bx	lr
    {
    case DMA_FIFO_THRESHOLD_1QUARTERFULL:
    case DMA_FIFO_THRESHOLD_3QUARTERSFULL:
      if ((hdma->Init.MemBurst & DMA_SxCR_MBURST_1) == DMA_SxCR_MBURST_1)
 80013f4:	6ac3      	ldr	r3, [r0, #44]	; 0x2c
 80013f6:	f013 7f80 	tst.w	r3, #16777216	; 0x1000000
 80013fa:	d12c      	bne.n	8001456 <DMA_CheckFifoParam+0x76>
  HAL_StatusTypeDef status = HAL_OK;
 80013fc:	2000      	movs	r0, #0
 80013fe:	4770      	bx	lr
      {
        status = HAL_ERROR;
      }
      break;
    case DMA_FIFO_THRESHOLD_HALFFULL:
      if (hdma->Init.MemBurst == DMA_MBURST_INC16)
 8001400:	6ac3      	ldr	r3, [r0, #44]	; 0x2c
 8001402:	f1b3 7fc0 	cmp.w	r3, #25165824	; 0x1800000
 8001406:	d028      	beq.n	800145a <DMA_CheckFifoParam+0x7a>
  HAL_StatusTypeDef status = HAL_OK;
 8001408:	2000      	movs	r0, #0
 800140a:	4770      	bx	lr
      break;
    }
  }
  
  /* Memory Data size equal to Half-Word */
  else if (hdma->Init.MemDataAlignment == DMA_MDATAALIGN_HALFWORD)
 800140c:	f5b2 5f00 	cmp.w	r2, #8192	; 0x2000
 8001410:	d005      	beq.n	800141e <DMA_CheckFifoParam+0x3e>
  }
  
  /* Memory Data size equal to Word */
  else
  {
    switch (tmp)
 8001412:	2b02      	cmp	r3, #2
 8001414:	d929      	bls.n	800146a <DMA_CheckFifoParam+0x8a>
 8001416:	2b03      	cmp	r3, #3
 8001418:	d015      	beq.n	8001446 <DMA_CheckFifoParam+0x66>
  HAL_StatusTypeDef status = HAL_OK;
 800141a:	2000      	movs	r0, #0
 800141c:	4770      	bx	lr
    switch (tmp)
 800141e:	2b03      	cmp	r3, #3
 8001420:	d803      	bhi.n	800142a <DMA_CheckFifoParam+0x4a>
 8001422:	e8df f003 	tbb	[pc, r3]
 8001426:	041c      	.short	0x041c
 8001428:	0a1c      	.short	0x0a1c
  HAL_StatusTypeDef status = HAL_OK;
 800142a:	2000      	movs	r0, #0
 800142c:	4770      	bx	lr
      if ((hdma->Init.MemBurst & DMA_SxCR_MBURST_1) == DMA_SxCR_MBURST_1)
 800142e:	6ac3      	ldr	r3, [r0, #44]	; 0x2c
 8001430:	f013 7f80 	tst.w	r3, #16777216	; 0x1000000
 8001434:	d115      	bne.n	8001462 <DMA_CheckFifoParam+0x82>
  HAL_StatusTypeDef status = HAL_OK;
 8001436:	2000      	movs	r0, #0
 8001438:	4770      	bx	lr
      if (hdma->Init.MemBurst == DMA_MBURST_INC16)
 800143a:	6ac3      	ldr	r3, [r0, #44]	; 0x2c
 800143c:	f1b3 7fc0 	cmp.w	r3, #25165824	; 0x1800000
 8001440:	d011      	beq.n	8001466 <DMA_CheckFifoParam+0x86>
  HAL_StatusTypeDef status = HAL_OK;
 8001442:	2000      	movs	r0, #0
 8001444:	4770      	bx	lr
    case DMA_FIFO_THRESHOLD_HALFFULL:
    case DMA_FIFO_THRESHOLD_3QUARTERSFULL:
      status = HAL_ERROR;
      break;
    case DMA_FIFO_THRESHOLD_FULL:
      if ((hdma->Init.MemBurst & DMA_SxCR_MBURST_1) == DMA_SxCR_MBURST_1)
 8001446:	6ac3      	ldr	r3, [r0, #44]	; 0x2c
 8001448:	f013 7f80 	tst.w	r3, #16777216	; 0x1000000
 800144c:	d001      	beq.n	8001452 <DMA_CheckFifoParam+0x72>
      {
        status = HAL_ERROR;
 800144e:	2001      	movs	r0, #1
      break;
    }
  } 
  
  return status; 
}
 8001450:	4770      	bx	lr
  HAL_StatusTypeDef status = HAL_OK;
 8001452:	2000      	movs	r0, #0
 8001454:	4770      	bx	lr
        status = HAL_ERROR;
 8001456:	2001      	movs	r0, #1
 8001458:	4770      	bx	lr
        status = HAL_ERROR;
 800145a:	2001      	movs	r0, #1
 800145c:	4770      	bx	lr
      status = HAL_ERROR;
 800145e:	2001      	movs	r0, #1
 8001460:	4770      	bx	lr
        status = HAL_ERROR;
 8001462:	2001      	movs	r0, #1
 8001464:	4770      	bx	lr
        status = HAL_ERROR;
 8001466:	2001      	movs	r0, #1
 8001468:	4770      	bx	lr
      status = HAL_ERROR;
 800146a:	2001      	movs	r0, #1
 800146c:	4770      	bx	lr
	...

08001470 <HAL_DMA_Init>:
{
 8001470:	b570      	push	{r4, r5, r6, lr}
 8001472:	4604      	mov	r4, r0
  uint32_t tickstart = HAL_GetTick();
 8001474:	f7ff fd88 	bl	8000f88 <HAL_GetTick>
  if(hdma == NULL)
 8001478:	2c00      	cmp	r4, #0
 800147a:	d05d      	beq.n	8001538 <HAL_DMA_Init+0xc8>
 800147c:	4605      	mov	r5, r0
  __HAL_UNLOCK(hdma);
 800147e:	2300      	movs	r3, #0
 8001480:	f884 3034 	strb.w	r3, [r4, #52]	; 0x34
  hdma->State = HAL_DMA_STATE_BUSY;
 8001484:	2302      	movs	r3, #2
 8001486:	f884 3035 	strb.w	r3, [r4, #53]	; 0x35
  __HAL_DMA_DISABLE(hdma);
 800148a:	6822      	ldr	r2, [r4, #0]
 800148c:	6813      	ldr	r3, [r2, #0]
 800148e:	f023 0301 	bic.w	r3, r3, #1
 8001492:	6013      	str	r3, [r2, #0]
  while((hdma->Instance->CR & DMA_SxCR_EN) != RESET)
 8001494:	6823      	ldr	r3, [r4, #0]
 8001496:	681a      	ldr	r2, [r3, #0]
 8001498:	f012 0f01 	tst.w	r2, #1
 800149c:	d00a      	beq.n	80014b4 <HAL_DMA_Init+0x44>
    if((HAL_GetTick() - tickstart ) > HAL_TIMEOUT_DMA_ABORT)
 800149e:	f7ff fd73 	bl	8000f88 <HAL_GetTick>
 80014a2:	1b40      	subs	r0, r0, r5
 80014a4:	2805      	cmp	r0, #5
 80014a6:	d9f5      	bls.n	8001494 <HAL_DMA_Init+0x24>
      hdma->ErrorCode = HAL_DMA_ERROR_TIMEOUT;
 80014a8:	2320      	movs	r3, #32
 80014aa:	6563      	str	r3, [r4, #84]	; 0x54
      hdma->State = HAL_DMA_STATE_TIMEOUT;
 80014ac:	2003      	movs	r0, #3
 80014ae:	f884 0035 	strb.w	r0, [r4, #53]	; 0x35
      return HAL_TIMEOUT;
 80014b2:	bd70      	pop	{r4, r5, r6, pc}
  tmp = hdma->Instance->CR;
 80014b4:	681a      	ldr	r2, [r3, #0]
  tmp &= ((uint32_t)~(DMA_SxCR_CHSEL | DMA_SxCR_MBURST | DMA_SxCR_PBURST | \
 80014b6:	4921      	ldr	r1, [pc, #132]	; (800153c <HAL_DMA_Init+0xcc>)
 80014b8:	4011      	ands	r1, r2
  tmp |=  hdma->Init.Channel             | hdma->Init.Direction        |
 80014ba:	6862      	ldr	r2, [r4, #4]
 80014bc:	68a0      	ldr	r0, [r4, #8]
 80014be:	4302      	orrs	r2, r0
          hdma->Init.PeriphInc           | hdma->Init.MemInc           |
 80014c0:	68e0      	ldr	r0, [r4, #12]
  tmp |=  hdma->Init.Channel             | hdma->Init.Direction        |
 80014c2:	4302      	orrs	r2, r0
          hdma->Init.PeriphInc           | hdma->Init.MemInc           |
 80014c4:	6920      	ldr	r0, [r4, #16]
 80014c6:	4302      	orrs	r2, r0
          hdma->Init.PeriphDataAlignment | hdma->Init.MemDataAlignment |
 80014c8:	6960      	ldr	r0, [r4, #20]
          hdma->Init.PeriphInc           | hdma->Init.MemInc           |
 80014ca:	4302      	orrs	r2, r0
          hdma->Init.PeriphDataAlignment | hdma->Init.MemDataAlignment |
 80014cc:	69a0      	ldr	r0, [r4, #24]
 80014ce:	4302      	orrs	r2, r0
          hdma->Init.Mode                | hdma->Init.Priority;
 80014d0:	69e0      	ldr	r0, [r4, #28]
          hdma->Init.PeriphDataAlignment | hdma->Init.MemDataAlignment |
 80014d2:	4302      	orrs	r2, r0
          hdma->Init.Mode                | hdma->Init.Priority;
 80014d4:	6a20      	ldr	r0, [r4, #32]
 80014d6:	4302      	orrs	r2, r0
  tmp |=  hdma->Init.Channel             | hdma->Init.Direction        |
 80014d8:	430a      	orrs	r2, r1
  if(hdma->Init.FIFOMode == DMA_FIFOMODE_ENABLE)
 80014da:	6a61      	ldr	r1, [r4, #36]	; 0x24
 80014dc:	2904      	cmp	r1, #4
 80014de:	d016      	beq.n	800150e <HAL_DMA_Init+0x9e>
  hdma->Instance->CR = tmp;  
 80014e0:	601a      	str	r2, [r3, #0]
  tmp = hdma->Instance->FCR;
 80014e2:	6826      	ldr	r6, [r4, #0]
 80014e4:	6975      	ldr	r5, [r6, #20]
  tmp &= (uint32_t)~(DMA_SxFCR_DMDIS | DMA_SxFCR_FTH);
 80014e6:	f025 0507 	bic.w	r5, r5, #7
  tmp |= hdma->Init.FIFOMode;
 80014ea:	6a63      	ldr	r3, [r4, #36]	; 0x24
 80014ec:	431d      	orrs	r5, r3
  if(hdma->Init.FIFOMode == DMA_FIFOMODE_ENABLE)
 80014ee:	2b04      	cmp	r3, #4
 80014f0:	d012      	beq.n	8001518 <HAL_DMA_Init+0xa8>
  hdma->Instance->FCR = tmp;
 80014f2:	6175      	str	r5, [r6, #20]
  regs = (DMA_Base_Registers *)DMA_CalcBaseAndBitshift(hdma);
 80014f4:	4620      	mov	r0, r4
 80014f6:	f7ff ff55 	bl	80013a4 <DMA_CalcBaseAndBitshift>
  regs->IFCR = 0x3FU << hdma->StreamIndex;
 80014fa:	6de2      	ldr	r2, [r4, #92]	; 0x5c
 80014fc:	233f      	movs	r3, #63	; 0x3f
 80014fe:	4093      	lsls	r3, r2
 8001500:	6083      	str	r3, [r0, #8]
  hdma->ErrorCode = HAL_DMA_ERROR_NONE;
 8001502:	2000      	movs	r0, #0
 8001504:	6560      	str	r0, [r4, #84]	; 0x54
  hdma->State = HAL_DMA_STATE_READY;
 8001506:	2301      	movs	r3, #1
 8001508:	f884 3035 	strb.w	r3, [r4, #53]	; 0x35
  return HAL_OK;
 800150c:	bd70      	pop	{r4, r5, r6, pc}
    tmp |=  hdma->Init.MemBurst | hdma->Init.PeriphBurst;
 800150e:	6ae1      	ldr	r1, [r4, #44]	; 0x2c
 8001510:	6b20      	ldr	r0, [r4, #48]	; 0x30
 8001512:	4301      	orrs	r1, r0
 8001514:	430a      	orrs	r2, r1
 8001516:	e7e3      	b.n	80014e0 <HAL_DMA_Init+0x70>
    tmp |= hdma->Init.FIFOThreshold;
 8001518:	6aa3      	ldr	r3, [r4, #40]	; 0x28
 800151a:	431d      	orrs	r5, r3
    if (hdma->Init.MemBurst != DMA_MBURST_SINGLE)
 800151c:	6ae3      	ldr	r3, [r4, #44]	; 0x2c
 800151e:	2b00      	cmp	r3, #0
 8001520:	d0e7      	beq.n	80014f2 <HAL_DMA_Init+0x82>
      if (DMA_CheckFifoParam(hdma) != HAL_OK)
 8001522:	4620      	mov	r0, r4
 8001524:	f7ff ff5c 	bl	80013e0 <DMA_CheckFifoParam>
 8001528:	2800      	cmp	r0, #0
 800152a:	d0e2      	beq.n	80014f2 <HAL_DMA_Init+0x82>
        hdma->ErrorCode = HAL_DMA_ERROR_PARAM;
 800152c:	2340      	movs	r3, #64	; 0x40
 800152e:	6563      	str	r3, [r4, #84]	; 0x54
        hdma->State = HAL_DMA_STATE_READY;
 8001530:	2001      	movs	r0, #1
 8001532:	f884 0035 	strb.w	r0, [r4, #53]	; 0x35
        return HAL_ERROR; 
 8001536:	bd70      	pop	{r4, r5, r6, pc}
    return HAL_ERROR;
 8001538:	2001      	movs	r0, #1
}
 800153a:	bd70      	pop	{r4, r5, r6, pc}
 800153c:	f010803f 	.word	0xf010803f

08001540 <HAL_DMA_Start_IT>:
{
 8001540:	b538      	push	{r3, r4, r5, lr}
  DMA_Base_Registers *regs = (DMA_Base_Registers *)hdma->StreamBaseAddress;
 8001542:	6d85      	ldr	r5, [r0, #88]	; 0x58
  __HAL_LOCK(hdma);
 8001544:	f890 4034 	ldrb.w	r4, [r0, #52]	; 0x34
 8001548:	2c01      	cmp	r4, #1
 800154a:	d031      	beq.n	80015b0 <HAL_DMA_Start_IT+0x70>
 800154c:	2401      	movs	r4, #1
 800154e:	f880 4034 	strb.w	r4, [r0, #52]	; 0x34
  if(HAL_DMA_STATE_READY == hdma->State)
 8001552:	f890 4035 	ldrb.w	r4, [r0, #53]	; 0x35
 8001556:	b2e4      	uxtb	r4, r4
 8001558:	2c01      	cmp	r4, #1
 800155a:	d004      	beq.n	8001566 <HAL_DMA_Start_IT+0x26>
    __HAL_UNLOCK(hdma);	  
 800155c:	2300      	movs	r3, #0
 800155e:	f880 3034 	strb.w	r3, [r0, #52]	; 0x34
    status = HAL_BUSY;
 8001562:	2002      	movs	r0, #2
 8001564:	bd38      	pop	{r3, r4, r5, pc}
 8001566:	4604      	mov	r4, r0
    hdma->State = HAL_DMA_STATE_BUSY;
 8001568:	2002      	movs	r0, #2
 800156a:	f884 0035 	strb.w	r0, [r4, #53]	; 0x35
    hdma->ErrorCode = HAL_DMA_ERROR_NONE;
 800156e:	2000      	movs	r0, #0
 8001570:	6560      	str	r0, [r4, #84]	; 0x54
    DMA_SetConfig(hdma, SrcAddress, DstAddress, DataLength);
 8001572:	4620      	mov	r0, r4
 8001574:	f7ff ff00 	bl	8001378 <DMA_SetConfig>
    regs->IFCR = 0x3FU << hdma->StreamIndex;
 8001578:	6de2      	ldr	r2, [r4, #92]	; 0x5c
 800157a:	233f      	movs	r3, #63	; 0x3f
 800157c:	4093      	lsls	r3, r2
 800157e:	60ab      	str	r3, [r5, #8]
    hdma->Instance->CR  |= DMA_IT_TC | DMA_IT_TE | DMA_IT_DME;
 8001580:	6822      	ldr	r2, [r4, #0]
 8001582:	6813      	ldr	r3, [r2, #0]
 8001584:	f043 0316 	orr.w	r3, r3, #22
 8001588:	6013      	str	r3, [r2, #0]
    hdma->Instance->FCR |= DMA_IT_FE;
 800158a:	6822      	ldr	r2, [r4, #0]
 800158c:	6953      	ldr	r3, [r2, #20]
 800158e:	f043 0380 	orr.w	r3, r3, #128	; 0x80
 8001592:	6153      	str	r3, [r2, #20]
    if(hdma->XferHalfCpltCallback != NULL)
 8001594:	6c23      	ldr	r3, [r4, #64]	; 0x40
 8001596:	b123      	cbz	r3, 80015a2 <HAL_DMA_Start_IT+0x62>
      hdma->Instance->CR  |= DMA_IT_HT;
 8001598:	6822      	ldr	r2, [r4, #0]
 800159a:	6813      	ldr	r3, [r2, #0]
 800159c:	f043 0308 	orr.w	r3, r3, #8
 80015a0:	6013      	str	r3, [r2, #0]
    __HAL_DMA_ENABLE(hdma);
 80015a2:	6822      	ldr	r2, [r4, #0]
 80015a4:	6813      	ldr	r3, [r2, #0]
 80015a6:	f043 0301 	orr.w	r3, r3, #1
 80015aa:	6013      	str	r3, [r2, #0]
  HAL_StatusTypeDef status = HAL_OK;
 80015ac:	2000      	movs	r0, #0
 80015ae:	bd38      	pop	{r3, r4, r5, pc}
  __HAL_LOCK(hdma);
 80015b0:	2002      	movs	r0, #2
}
 80015b2:	bd38      	pop	{r3, r4, r5, pc}

080015b4 <HAL_DMA_Abort_IT>:
  if(hdma->State != HAL_DMA_STATE_BUSY)
 80015b4:	f890 3035 	ldrb.w	r3, [r0, #53]	; 0x35
 80015b8:	b2db      	uxtb	r3, r3
 80015ba:	2b02      	cmp	r3, #2
 80015bc:	d003      	beq.n	80015c6 <HAL_DMA_Abort_IT+0x12>
    hdma->ErrorCode = HAL_DMA_ERROR_NO_XFER;
 80015be:	2380      	movs	r3, #128	; 0x80
 80015c0:	6543      	str	r3, [r0, #84]	; 0x54
    return HAL_ERROR;
 80015c2:	2001      	movs	r0, #1
 80015c4:	4770      	bx	lr
    hdma->State = HAL_DMA_STATE_ABORT;
 80015c6:	2305      	movs	r3, #5
 80015c8:	f880 3035 	strb.w	r3, [r0, #53]	; 0x35
    __HAL_DMA_DISABLE(hdma);
 80015cc:	6802      	ldr	r2, [r0, #0]
 80015ce:	6813      	ldr	r3, [r2, #0]
 80015d0:	f023 0301 	bic.w	r3, r3, #1
 80015d4:	6013      	str	r3, [r2, #0]
  return HAL_OK;
 80015d6:	2000      	movs	r0, #0
}
 80015d8:	4770      	bx	lr
	...

080015dc <HAL_DMA_IRQHandler>:
{
 80015dc:	b5f0      	push	{r4, r5, r6, r7, lr}
 80015de:	b083      	sub	sp, #12
 80015e0:	4604      	mov	r4, r0
  __IO uint32_t count = 0U;
 80015e2:	2300      	movs	r3, #0
 80015e4:	9301      	str	r3, [sp, #4]
  uint32_t timeout = SystemCoreClock / 9600U;
 80015e6:	4b72      	ldr	r3, [pc, #456]	; (80017b0 <HAL_DMA_IRQHandler+0x1d4>)
 80015e8:	681d      	ldr	r5, [r3, #0]
 80015ea:	4b72      	ldr	r3, [pc, #456]	; (80017b4 <HAL_DMA_IRQHandler+0x1d8>)
 80015ec:	fba3 3505 	umull	r3, r5, r3, r5
 80015f0:	0aad      	lsrs	r5, r5, #10
  DMA_Base_Registers *regs = (DMA_Base_Registers *)hdma->StreamBaseAddress;
 80015f2:	6d87      	ldr	r7, [r0, #88]	; 0x58
  tmpisr = regs->ISR;
 80015f4:	683e      	ldr	r6, [r7, #0]
  if ((tmpisr & (DMA_FLAG_TEIF0_4 << hdma->StreamIndex)) != RESET)
 80015f6:	6dc2      	ldr	r2, [r0, #92]	; 0x5c
 80015f8:	2308      	movs	r3, #8
 80015fa:	4093      	lsls	r3, r2
 80015fc:	421e      	tst	r6, r3
 80015fe:	d010      	beq.n	8001622 <HAL_DMA_IRQHandler+0x46>
    if(__HAL_DMA_GET_IT_SOURCE(hdma, DMA_IT_TE) != RESET)
 8001600:	6803      	ldr	r3, [r0, #0]
 8001602:	681a      	ldr	r2, [r3, #0]
 8001604:	f012 0f04 	tst.w	r2, #4
 8001608:	d00b      	beq.n	8001622 <HAL_DMA_IRQHandler+0x46>
      hdma->Instance->CR  &= ~(DMA_IT_TE);
 800160a:	681a      	ldr	r2, [r3, #0]
 800160c:	f022 0204 	bic.w	r2, r2, #4
 8001610:	601a      	str	r2, [r3, #0]
      regs->IFCR = DMA_FLAG_TEIF0_4 << hdma->StreamIndex;
 8001612:	6dc2      	ldr	r2, [r0, #92]	; 0x5c
 8001614:	2308      	movs	r3, #8
 8001616:	4093      	lsls	r3, r2
 8001618:	60bb      	str	r3, [r7, #8]
      hdma->ErrorCode |= HAL_DMA_ERROR_TE;
 800161a:	6d43      	ldr	r3, [r0, #84]	; 0x54
 800161c:	f043 0301 	orr.w	r3, r3, #1
 8001620:	6543      	str	r3, [r0, #84]	; 0x54
  if ((tmpisr & (DMA_FLAG_FEIF0_4 << hdma->StreamIndex)) != RESET)
 8001622:	6de2      	ldr	r2, [r4, #92]	; 0x5c
 8001624:	2301      	movs	r3, #1
 8001626:	4093      	lsls	r3, r2
 8001628:	421e      	tst	r6, r3
 800162a:	d009      	beq.n	8001640 <HAL_DMA_IRQHandler+0x64>
    if(__HAL_DMA_GET_IT_SOURCE(hdma, DMA_IT_FE) != RESET)
 800162c:	6822      	ldr	r2, [r4, #0]
 800162e:	6952      	ldr	r2, [r2, #20]
 8001630:	f012 0f80 	tst.w	r2, #128	; 0x80
 8001634:	d004      	beq.n	8001640 <HAL_DMA_IRQHandler+0x64>
      regs->IFCR = DMA_FLAG_FEIF0_4 << hdma->StreamIndex;
 8001636:	60bb      	str	r3, [r7, #8]
      hdma->ErrorCode |= HAL_DMA_ERROR_FE;
 8001638:	6d63      	ldr	r3, [r4, #84]	; 0x54
 800163a:	f043 0302 	orr.w	r3, r3, #2
 800163e:	6563      	str	r3, [r4, #84]	; 0x54
  if ((tmpisr & (DMA_FLAG_DMEIF0_4 << hdma->StreamIndex)) != RESET)
 8001640:	6de2      	ldr	r2, [r4, #92]	; 0x5c
 8001642:	2304      	movs	r3, #4
 8001644:	4093      	lsls	r3, r2
 8001646:	421e      	tst	r6, r3
 8001648:	d009      	beq.n	800165e <HAL_DMA_IRQHandler+0x82>
    if(__HAL_DMA_GET_IT_SOURCE(hdma, DMA_IT_DME) != RESET)
 800164a:	6822      	ldr	r2, [r4, #0]
 800164c:	6812      	ldr	r2, [r2, #0]
 800164e:	f012 0f02 	tst.w	r2, #2
 8001652:	d004      	beq.n	800165e <HAL_DMA_IRQHandler+0x82>
      regs->IFCR = DMA_FLAG_DMEIF0_4 << hdma->StreamIndex;
 8001654:	60bb      	str	r3, [r7, #8]
      hdma->ErrorCode |= HAL_DMA_ERROR_DME;
 8001656:	6d63      	ldr	r3, [r4, #84]	; 0x54
 8001658:	f043 0304 	orr.w	r3, r3, #4
 800165c:	6563      	str	r3, [r4, #84]	; 0x54
  if ((tmpisr & (DMA_FLAG_HTIF0_4 << hdma->StreamIndex)) != RESET)
 800165e:	6de2      	ldr	r2, [r4, #92]	; 0x5c
 8001660:	2310      	movs	r3, #16
 8001662:	4093      	lsls	r3, r2
 8001664:	421e      	tst	r6, r3
 8001666:	d024      	beq.n	80016b2 <HAL_DMA_IRQHandler+0xd6>
    if(__HAL_DMA_GET_IT_SOURCE(hdma, DMA_IT_HT) != RESET)
 8001668:	6822      	ldr	r2, [r4, #0]
 800166a:	6812      	ldr	r2, [r2, #0]
 800166c:	f012 0f08 	tst.w	r2, #8
 8001670:	d01f      	beq.n	80016b2 <HAL_DMA_IRQHandler+0xd6>
      regs->IFCR = DMA_FLAG_HTIF0_4 << hdma->StreamIndex;
 8001672:	60bb      	str	r3, [r7, #8]
      if(((hdma->Instance->CR) & (uint32_t)(DMA_SxCR_DBM)) != RESET)
 8001674:	6823      	ldr	r3, [r4, #0]
 8001676:	681a      	ldr	r2, [r3, #0]
 8001678:	f412 2f80 	tst.w	r2, #262144	; 0x40000
 800167c:	d00d      	beq.n	800169a <HAL_DMA_IRQHandler+0xbe>
        if((hdma->Instance->CR & DMA_SxCR_CT) == RESET)
 800167e:	681b      	ldr	r3, [r3, #0]
 8001680:	f413 2f00 	tst.w	r3, #524288	; 0x80000
 8001684:	d104      	bne.n	8001690 <HAL_DMA_IRQHandler+0xb4>
          if(hdma->XferHalfCpltCallback != NULL)
 8001686:	6c23      	ldr	r3, [r4, #64]	; 0x40
 8001688:	b19b      	cbz	r3, 80016b2 <HAL_DMA_IRQHandler+0xd6>
            hdma->XferHalfCpltCallback(hdma);
 800168a:	4620      	mov	r0, r4
 800168c:	4798      	blx	r3
 800168e:	e010      	b.n	80016b2 <HAL_DMA_IRQHandler+0xd6>
          if(hdma->XferM1HalfCpltCallback != NULL)
 8001690:	6ca3      	ldr	r3, [r4, #72]	; 0x48
 8001692:	b173      	cbz	r3, 80016b2 <HAL_DMA_IRQHandler+0xd6>
            hdma->XferM1HalfCpltCallback(hdma);
 8001694:	4620      	mov	r0, r4
 8001696:	4798      	blx	r3
 8001698:	e00b      	b.n	80016b2 <HAL_DMA_IRQHandler+0xd6>
        if((hdma->Instance->CR & DMA_SxCR_CIRC) == RESET)
 800169a:	681a      	ldr	r2, [r3, #0]
 800169c:	f412 7f80 	tst.w	r2, #256	; 0x100
 80016a0:	d103      	bne.n	80016aa <HAL_DMA_IRQHandler+0xce>
          hdma->Instance->CR  &= ~(DMA_IT_HT);
 80016a2:	681a      	ldr	r2, [r3, #0]
 80016a4:	f022 0208 	bic.w	r2, r2, #8
 80016a8:	601a      	str	r2, [r3, #0]
        if(hdma->XferHalfCpltCallback != NULL)
 80016aa:	6c23      	ldr	r3, [r4, #64]	; 0x40
 80016ac:	b10b      	cbz	r3, 80016b2 <HAL_DMA_IRQHandler+0xd6>
          hdma->XferHalfCpltCallback(hdma);
 80016ae:	4620      	mov	r0, r4
 80016b0:	4798      	blx	r3
  if ((tmpisr & (DMA_FLAG_TCIF0_4 << hdma->StreamIndex)) != RESET)
 80016b2:	6de2      	ldr	r2, [r4, #92]	; 0x5c
 80016b4:	2320      	movs	r3, #32
 80016b6:	4093      	lsls	r3, r2
 80016b8:	421e      	tst	r6, r3
 80016ba:	d055      	beq.n	8001768 <HAL_DMA_IRQHandler+0x18c>
    if(__HAL_DMA_GET_IT_SOURCE(hdma, DMA_IT_TC) != RESET)
 80016bc:	6822      	ldr	r2, [r4, #0]
 80016be:	6812      	ldr	r2, [r2, #0]
 80016c0:	f012 0f10 	tst.w	r2, #16
 80016c4:	d050      	beq.n	8001768 <HAL_DMA_IRQHandler+0x18c>
      regs->IFCR = DMA_FLAG_TCIF0_4 << hdma->StreamIndex;
 80016c6:	60bb      	str	r3, [r7, #8]
      if(HAL_DMA_STATE_ABORT == hdma->State)
 80016c8:	f894 3035 	ldrb.w	r3, [r4, #53]	; 0x35
 80016cc:	b2db      	uxtb	r3, r3
 80016ce:	2b05      	cmp	r3, #5
 80016d0:	d00e      	beq.n	80016f0 <HAL_DMA_IRQHandler+0x114>
      if(((hdma->Instance->CR) & (uint32_t)(DMA_SxCR_DBM)) != RESET)
 80016d2:	6823      	ldr	r3, [r4, #0]
 80016d4:	681a      	ldr	r2, [r3, #0]
 80016d6:	f412 2f80 	tst.w	r2, #262144	; 0x40000
 80016da:	d033      	beq.n	8001744 <HAL_DMA_IRQHandler+0x168>
        if((hdma->Instance->CR & DMA_SxCR_CT) == RESET)
 80016dc:	681b      	ldr	r3, [r3, #0]
 80016de:	f413 2f00 	tst.w	r3, #524288	; 0x80000
 80016e2:	d12a      	bne.n	800173a <HAL_DMA_IRQHandler+0x15e>
          if(hdma->XferM1CpltCallback != NULL)
 80016e4:	6c63      	ldr	r3, [r4, #68]	; 0x44
 80016e6:	2b00      	cmp	r3, #0
 80016e8:	d03e      	beq.n	8001768 <HAL_DMA_IRQHandler+0x18c>
            hdma->XferM1CpltCallback(hdma);
 80016ea:	4620      	mov	r0, r4
 80016ec:	4798      	blx	r3
 80016ee:	e03b      	b.n	8001768 <HAL_DMA_IRQHandler+0x18c>
        hdma->Instance->CR  &= ~(DMA_IT_TC | DMA_IT_TE | DMA_IT_DME);
 80016f0:	6822      	ldr	r2, [r4, #0]
 80016f2:	6813      	ldr	r3, [r2, #0]
 80016f4:	f023 0316 	bic.w	r3, r3, #22
 80016f8:	6013      	str	r3, [r2, #0]
        hdma->Instance->FCR &= ~(DMA_IT_FE);
 80016fa:	6822      	ldr	r2, [r4, #0]
 80016fc:	6953      	ldr	r3, [r2, #20]
 80016fe:	f023 0380 	bic.w	r3, r3, #128	; 0x80
 8001702:	6153      	str	r3, [r2, #20]
        if((hdma->XferHalfCpltCallback != NULL) || (hdma->XferM1HalfCpltCallback != NULL))
 8001704:	6c23      	ldr	r3, [r4, #64]	; 0x40
 8001706:	b1a3      	cbz	r3, 8001732 <HAL_DMA_IRQHandler+0x156>
          hdma->Instance->CR  &= ~(DMA_IT_HT);
 8001708:	6822      	ldr	r2, [r4, #0]
 800170a:	6813      	ldr	r3, [r2, #0]
 800170c:	f023 0308 	bic.w	r3, r3, #8
 8001710:	6013      	str	r3, [r2, #0]
        regs->IFCR = 0x3FU << hdma->StreamIndex;
 8001712:	6de2      	ldr	r2, [r4, #92]	; 0x5c
 8001714:	233f      	movs	r3, #63	; 0x3f
 8001716:	4093      	lsls	r3, r2
 8001718:	60bb      	str	r3, [r7, #8]
        __HAL_UNLOCK(hdma);
 800171a:	2300      	movs	r3, #0
 800171c:	f884 3034 	strb.w	r3, [r4, #52]	; 0x34
        hdma->State = HAL_DMA_STATE_READY;
 8001720:	2301      	movs	r3, #1
 8001722:	f884 3035 	strb.w	r3, [r4, #53]	; 0x35
        if(hdma->XferAbortCallback != NULL)
 8001726:	6d23      	ldr	r3, [r4, #80]	; 0x50
 8001728:	2b00      	cmp	r3, #0
 800172a:	d03f      	beq.n	80017ac <HAL_DMA_IRQHandler+0x1d0>
          hdma->XferAbortCallback(hdma);
 800172c:	4620      	mov	r0, r4
 800172e:	4798      	blx	r3
 8001730:	e03c      	b.n	80017ac <HAL_DMA_IRQHandler+0x1d0>
        if((hdma->XferHalfCpltCallback != NULL) || (hdma->XferM1HalfCpltCallback != NULL))
 8001732:	6ca3      	ldr	r3, [r4, #72]	; 0x48
 8001734:	2b00      	cmp	r3, #0
 8001736:	d1e7      	bne.n	8001708 <HAL_DMA_IRQHandler+0x12c>
 8001738:	e7eb      	b.n	8001712 <HAL_DMA_IRQHandler+0x136>
          if(hdma->XferCpltCallback != NULL)
 800173a:	6be3      	ldr	r3, [r4, #60]	; 0x3c
 800173c:	b1a3      	cbz	r3, 8001768 <HAL_DMA_IRQHandler+0x18c>
            hdma->XferCpltCallback(hdma);
 800173e:	4620      	mov	r0, r4
 8001740:	4798      	blx	r3
 8001742:	e011      	b.n	8001768 <HAL_DMA_IRQHandler+0x18c>
        if((hdma->Instance->CR & DMA_SxCR_CIRC) == RESET)
 8001744:	681a      	ldr	r2, [r3, #0]
 8001746:	f412 7f80 	tst.w	r2, #256	; 0x100
 800174a:	d109      	bne.n	8001760 <HAL_DMA_IRQHandler+0x184>
          hdma->Instance->CR  &= ~(DMA_IT_TC);
 800174c:	681a      	ldr	r2, [r3, #0]
 800174e:	f022 0210 	bic.w	r2, r2, #16
 8001752:	601a      	str	r2, [r3, #0]
          __HAL_UNLOCK(hdma);
 8001754:	2300      	movs	r3, #0
 8001756:	f884 3034 	strb.w	r3, [r4, #52]	; 0x34
          hdma->State = HAL_DMA_STATE_READY;
 800175a:	2301      	movs	r3, #1
 800175c:	f884 3035 	strb.w	r3, [r4, #53]	; 0x35
        if(hdma->XferCpltCallback != NULL)
 8001760:	6be3      	ldr	r3, [r4, #60]	; 0x3c
 8001762:	b10b      	cbz	r3, 8001768 <HAL_DMA_IRQHandler+0x18c>
          hdma->XferCpltCallback(hdma);
 8001764:	4620      	mov	r0, r4
 8001766:	4798      	blx	r3
  if(hdma->ErrorCode != HAL_DMA_ERROR_NONE)
 8001768:	6d63      	ldr	r3, [r4, #84]	; 0x54
 800176a:	b1fb      	cbz	r3, 80017ac <HAL_DMA_IRQHandler+0x1d0>
    if((hdma->ErrorCode & HAL_DMA_ERROR_TE) != RESET)
 800176c:	6d63      	ldr	r3, [r4, #84]	; 0x54
 800176e:	f013 0f01 	tst.w	r3, #1
 8001772:	d017      	beq.n	80017a4 <HAL_DMA_IRQHandler+0x1c8>
      hdma->State = HAL_DMA_STATE_ABORT;
 8001774:	2305      	movs	r3, #5
 8001776:	f884 3035 	strb.w	r3, [r4, #53]	; 0x35
      __HAL_DMA_DISABLE(hdma);
 800177a:	6822      	ldr	r2, [r4, #0]
 800177c:	6813      	ldr	r3, [r2, #0]
 800177e:	f023 0301 	bic.w	r3, r3, #1
 8001782:	6013      	str	r3, [r2, #0]
        if (++count > timeout)
 8001784:	9b01      	ldr	r3, [sp, #4]
 8001786:	3301      	adds	r3, #1
 8001788:	9301      	str	r3, [sp, #4]
 800178a:	429d      	cmp	r5, r3
 800178c:	d304      	bcc.n	8001798 <HAL_DMA_IRQHandler+0x1bc>
      while((hdma->Instance->CR & DMA_SxCR_EN) != RESET);
 800178e:	6823      	ldr	r3, [r4, #0]
 8001790:	681b      	ldr	r3, [r3, #0]
 8001792:	f013 0f01 	tst.w	r3, #1
 8001796:	d1f5      	bne.n	8001784 <HAL_DMA_IRQHandler+0x1a8>
      __HAL_UNLOCK(hdma);
 8001798:	2300      	movs	r3, #0
 800179a:	f884 3034 	strb.w	r3, [r4, #52]	; 0x34
      hdma->State = HAL_DMA_STATE_READY;
 800179e:	2301      	movs	r3, #1
 80017a0:	f884 3035 	strb.w	r3, [r4, #53]	; 0x35
    if(hdma->XferErrorCallback != NULL)
 80017a4:	6ce3      	ldr	r3, [r4, #76]	; 0x4c
 80017a6:	b10b      	cbz	r3, 80017ac <HAL_DMA_IRQHandler+0x1d0>
      hdma->XferErrorCallback(hdma);
 80017a8:	4620      	mov	r0, r4
 80017aa:	4798      	blx	r3
}
 80017ac:	b003      	add	sp, #12
 80017ae:	bdf0      	pop	{r4, r5, r6, r7, pc}
 80017b0:	20000008 	.word	0x20000008
 80017b4:	1b4e81b5 	.word	0x1b4e81b5

080017b8 <HAL_GPIO_Init>:
  * @param  GPIO_Init pointer to a GPIO_InitTypeDef structure that contains
  *         the configuration information for the specified GPIO peripheral.
  * @retval None
  */
void HAL_GPIO_Init(GPIO_TypeDef  *GPIOx, GPIO_InitTypeDef *GPIO_Init)
{
 80017b8:	b5f0      	push	{r4, r5, r6, r7, lr}
 80017ba:	b083      	sub	sp, #12
  assert_param(IS_GPIO_PIN(GPIO_Init->Pin));
  assert_param(IS_GPIO_MODE(GPIO_Init->Mode));
  assert_param(IS_GPIO_PULL(GPIO_Init->Pull));

  /* Configure the port pins */
  for(position = 0U; position < GPIO_NUMBER; position++)
 80017bc:	2400      	movs	r4, #0
 80017be:	e098      	b.n	80018f2 <HAL_GPIO_Init+0x13a>
      if((GPIO_Init->Mode == GPIO_MODE_AF_PP) || (GPIO_Init->Mode == GPIO_MODE_AF_OD))
      {
        /* Check the Alternate function parameter */
        assert_param(IS_GPIO_AF(GPIO_Init->Alternate));
        /* Configure Alternate function mapped with the current IO */
        temp = GPIOx->AFR[position >> 3U];
 80017c0:	ea4f 0ed4 	mov.w	lr, r4, lsr #3
 80017c4:	f10e 0e08 	add.w	lr, lr, #8
 80017c8:	f850 202e 	ldr.w	r2, [r0, lr, lsl #2]
        temp &= ~(0xFU << ((uint32_t)(position & 0x07U) * 4U)) ;
 80017cc:	f004 0607 	and.w	r6, r4, #7
 80017d0:	00b6      	lsls	r6, r6, #2
 80017d2:	270f      	movs	r7, #15
 80017d4:	40b7      	lsls	r7, r6
 80017d6:	ea22 0207 	bic.w	r2, r2, r7
        temp |= ((uint32_t)(GPIO_Init->Alternate) << (((uint32_t)position & 0x07U) * 4U));
 80017da:	690f      	ldr	r7, [r1, #16]
 80017dc:	fa07 f606 	lsl.w	r6, r7, r6
 80017e0:	4332      	orrs	r2, r6
        GPIOx->AFR[position >> 3U] = temp;
 80017e2:	f840 202e 	str.w	r2, [r0, lr, lsl #2]
 80017e6:	e094      	b.n	8001912 <HAL_GPIO_Init+0x15a>
         (GPIO_Init->Mode == GPIO_MODE_OUTPUT_OD) || (GPIO_Init->Mode == GPIO_MODE_AF_OD))
      {
        /* Check the Speed parameter */
        assert_param(IS_GPIO_SPEED(GPIO_Init->Speed));
        /* Configure the IO Speed */
        temp = GPIOx->OSPEEDR; 
 80017e8:	6886      	ldr	r6, [r0, #8]
        temp &= ~(GPIO_OSPEEDER_OSPEEDR0 << (position * 2U));
 80017ea:	4016      	ands	r6, r2
        temp |= (GPIO_Init->Speed << (position * 2U));
 80017ec:	68cf      	ldr	r7, [r1, #12]
 80017ee:	fa07 f70e 	lsl.w	r7, r7, lr
 80017f2:	433e      	orrs	r6, r7
        GPIOx->OSPEEDR = temp;
 80017f4:	6086      	str	r6, [r0, #8]

        /* Configure the IO Output Type */
        temp = GPIOx->OTYPER;
 80017f6:	6846      	ldr	r6, [r0, #4]
        temp &= ~(GPIO_OTYPER_OT_0 << position) ;
 80017f8:	ea26 0303 	bic.w	r3, r6, r3
        temp |= (((GPIO_Init->Mode & GPIO_OUTPUT_TYPE) >> 4U) << position);
 80017fc:	684e      	ldr	r6, [r1, #4]
 80017fe:	f3c6 1600 	ubfx	r6, r6, #4, #1
 8001802:	40a6      	lsls	r6, r4
 8001804:	4333      	orrs	r3, r6
        GPIOx->OTYPER = temp;
 8001806:	6043      	str	r3, [r0, #4]
      }

      /* Activate the Pull-up or Pull down resistor for the current IO */
      temp = GPIOx->PUPDR;
 8001808:	68c3      	ldr	r3, [r0, #12]
      temp &= ~(GPIO_PUPDR_PUPDR0 << (position * 2U));
 800180a:	401a      	ands	r2, r3
      temp |= ((GPIO_Init->Pull) << (position * 2U));
 800180c:	688b      	ldr	r3, [r1, #8]
 800180e:	fa03 f30e 	lsl.w	r3, r3, lr
 8001812:	431a      	orrs	r2, r3
      GPIOx->PUPDR = temp;
 8001814:	60c2      	str	r2, [r0, #12]

      /*--------------------- EXTI Mode Configuration ------------------------*/
      /* Configure the External Interrupt or event for the current IO */
      if((GPIO_Init->Mode & EXTI_MODE) == EXTI_MODE)
 8001816:	684b      	ldr	r3, [r1, #4]
 8001818:	f013 5f80 	tst.w	r3, #268435456	; 0x10000000
 800181c:	d068      	beq.n	80018f0 <HAL_GPIO_Init+0x138>
      {
        /* Enable SYSCFG Clock */
        __HAL_RCC_SYSCFG_CLK_ENABLE();
 800181e:	2300      	movs	r3, #0
 8001820:	9301      	str	r3, [sp, #4]
 8001822:	4b51      	ldr	r3, [pc, #324]	; (8001968 <HAL_GPIO_Init+0x1b0>)
 8001824:	6c5a      	ldr	r2, [r3, #68]	; 0x44
 8001826:	f442 4280 	orr.w	r2, r2, #16384	; 0x4000
 800182a:	645a      	str	r2, [r3, #68]	; 0x44
 800182c:	6c5b      	ldr	r3, [r3, #68]	; 0x44
 800182e:	f403 4380 	and.w	r3, r3, #16384	; 0x4000
 8001832:	9301      	str	r3, [sp, #4]
 8001834:	9b01      	ldr	r3, [sp, #4]

        temp = SYSCFG->EXTICR[position >> 2U];
 8001836:	08a3      	lsrs	r3, r4, #2
 8001838:	1c9e      	adds	r6, r3, #2
 800183a:	4a4c      	ldr	r2, [pc, #304]	; (800196c <HAL_GPIO_Init+0x1b4>)
 800183c:	f852 2026 	ldr.w	r2, [r2, r6, lsl #2]
        temp &= ~(0x0FU << (4U * (position & 0x03U)));
 8001840:	f004 0603 	and.w	r6, r4, #3
 8001844:	ea4f 0e86 	mov.w	lr, r6, lsl #2
 8001848:	260f      	movs	r6, #15
 800184a:	fa06 f60e 	lsl.w	r6, r6, lr
 800184e:	ea22 0206 	bic.w	r2, r2, r6
        temp |= ((uint32_t)(GPIO_GET_INDEX(GPIOx)) << (4U * (position & 0x03U)));
 8001852:	4f47      	ldr	r7, [pc, #284]	; (8001970 <HAL_GPIO_Init+0x1b8>)
 8001854:	42b8      	cmp	r0, r7
 8001856:	d079      	beq.n	800194c <HAL_GPIO_Init+0x194>
 8001858:	4e46      	ldr	r6, [pc, #280]	; (8001974 <HAL_GPIO_Init+0x1bc>)
 800185a:	42b0      	cmp	r0, r6
 800185c:	d078      	beq.n	8001950 <HAL_GPIO_Init+0x198>
 800185e:	f506 6680 	add.w	r6, r6, #1024	; 0x400
 8001862:	42b0      	cmp	r0, r6
 8001864:	d076      	beq.n	8001954 <HAL_GPIO_Init+0x19c>
 8001866:	f506 6680 	add.w	r6, r6, #1024	; 0x400
 800186a:	42b0      	cmp	r0, r6
 800186c:	d074      	beq.n	8001958 <HAL_GPIO_Init+0x1a0>
 800186e:	f506 6680 	add.w	r6, r6, #1024	; 0x400
 8001872:	42b0      	cmp	r0, r6
 8001874:	d072      	beq.n	800195c <HAL_GPIO_Init+0x1a4>
 8001876:	f506 6680 	add.w	r6, r6, #1024	; 0x400
 800187a:	42b0      	cmp	r0, r6
 800187c:	d070      	beq.n	8001960 <HAL_GPIO_Init+0x1a8>
 800187e:	f506 6680 	add.w	r6, r6, #1024	; 0x400
 8001882:	42b0      	cmp	r0, r6
 8001884:	d060      	beq.n	8001948 <HAL_GPIO_Init+0x190>
 8001886:	2607      	movs	r6, #7
 8001888:	fa06 f60e 	lsl.w	r6, r6, lr
 800188c:	4332      	orrs	r2, r6
        SYSCFG->EXTICR[position >> 2U] = temp;
 800188e:	3302      	adds	r3, #2
 8001890:	4e36      	ldr	r6, [pc, #216]	; (800196c <HAL_GPIO_Init+0x1b4>)
 8001892:	f846 2023 	str.w	r2, [r6, r3, lsl #2]

        /* Clear EXTI line configuration */
        temp = EXTI->IMR;
 8001896:	4b38      	ldr	r3, [pc, #224]	; (8001978 <HAL_GPIO_Init+0x1c0>)
 8001898:	681a      	ldr	r2, [r3, #0]
        temp &= ~((uint32_t)iocurrent);
 800189a:	43eb      	mvns	r3, r5
 800189c:	ea02 0603 	and.w	r6, r2, r3
        if((GPIO_Init->Mode & GPIO_MODE_IT) == GPIO_MODE_IT)
 80018a0:	684f      	ldr	r7, [r1, #4]
 80018a2:	f417 3f80 	tst.w	r7, #65536	; 0x10000
 80018a6:	d001      	beq.n	80018ac <HAL_GPIO_Init+0xf4>
        {
          temp |= iocurrent;
 80018a8:	ea45 0602 	orr.w	r6, r5, r2
        }
        EXTI->IMR = temp;
 80018ac:	4a32      	ldr	r2, [pc, #200]	; (8001978 <HAL_GPIO_Init+0x1c0>)
 80018ae:	6016      	str	r6, [r2, #0]

        temp = EXTI->EMR;
 80018b0:	6852      	ldr	r2, [r2, #4]
        temp &= ~((uint32_t)iocurrent);
 80018b2:	ea03 0602 	and.w	r6, r3, r2
        if((GPIO_Init->Mode & GPIO_MODE_EVT) == GPIO_MODE_EVT)
 80018b6:	684f      	ldr	r7, [r1, #4]
 80018b8:	f417 3f00 	tst.w	r7, #131072	; 0x20000
 80018bc:	d001      	beq.n	80018c2 <HAL_GPIO_Init+0x10a>
        {
          temp |= iocurrent;
 80018be:	ea45 0602 	orr.w	r6, r5, r2
        }
        EXTI->EMR = temp;
 80018c2:	4a2d      	ldr	r2, [pc, #180]	; (8001978 <HAL_GPIO_Init+0x1c0>)
 80018c4:	6056      	str	r6, [r2, #4]

        /* Clear Rising Falling edge configuration */
        temp = EXTI->RTSR;
 80018c6:	6892      	ldr	r2, [r2, #8]
        temp &= ~((uint32_t)iocurrent);
 80018c8:	ea03 0602 	and.w	r6, r3, r2
        if((GPIO_Init->Mode & RISING_EDGE) == RISING_EDGE)
 80018cc:	684f      	ldr	r7, [r1, #4]
 80018ce:	f417 1f80 	tst.w	r7, #1048576	; 0x100000
 80018d2:	d001      	beq.n	80018d8 <HAL_GPIO_Init+0x120>
        {
          temp |= iocurrent;
 80018d4:	ea45 0602 	orr.w	r6, r5, r2
        }
        EXTI->RTSR = temp;
 80018d8:	4a27      	ldr	r2, [pc, #156]	; (8001978 <HAL_GPIO_Init+0x1c0>)
 80018da:	6096      	str	r6, [r2, #8]

        temp = EXTI->FTSR;
 80018dc:	68d2      	ldr	r2, [r2, #12]
        temp &= ~((uint32_t)iocurrent);
 80018de:	4013      	ands	r3, r2
        if((GPIO_Init->Mode & FALLING_EDGE) == FALLING_EDGE)
 80018e0:	684e      	ldr	r6, [r1, #4]
 80018e2:	f416 1f00 	tst.w	r6, #2097152	; 0x200000
 80018e6:	d001      	beq.n	80018ec <HAL_GPIO_Init+0x134>
        {
          temp |= iocurrent;
 80018e8:	ea45 0302 	orr.w	r3, r5, r2
        }
        EXTI->FTSR = temp;
 80018ec:	4a22      	ldr	r2, [pc, #136]	; (8001978 <HAL_GPIO_Init+0x1c0>)
 80018ee:	60d3      	str	r3, [r2, #12]
  for(position = 0U; position < GPIO_NUMBER; position++)
 80018f0:	3401      	adds	r4, #1
 80018f2:	2c0f      	cmp	r4, #15
 80018f4:	d836      	bhi.n	8001964 <HAL_GPIO_Init+0x1ac>
    ioposition = 0x01U << position;
 80018f6:	2301      	movs	r3, #1
 80018f8:	40a3      	lsls	r3, r4
    iocurrent = (uint32_t)(GPIO_Init->Pin) & ioposition;
 80018fa:	680a      	ldr	r2, [r1, #0]
 80018fc:	ea03 0502 	and.w	r5, r3, r2
    if(iocurrent == ioposition)
 8001900:	42ab      	cmp	r3, r5
 8001902:	d1f5      	bne.n	80018f0 <HAL_GPIO_Init+0x138>
      if((GPIO_Init->Mode == GPIO_MODE_AF_PP) || (GPIO_Init->Mode == GPIO_MODE_AF_OD))
 8001904:	684a      	ldr	r2, [r1, #4]
 8001906:	2a02      	cmp	r2, #2
 8001908:	f43f af5a 	beq.w	80017c0 <HAL_GPIO_Init+0x8>
 800190c:	2a12      	cmp	r2, #18
 800190e:	f43f af57 	beq.w	80017c0 <HAL_GPIO_Init+0x8>
      temp = GPIOx->MODER;
 8001912:	6806      	ldr	r6, [r0, #0]
      temp &= ~(GPIO_MODER_MODER0 << (position * 2U));
 8001914:	ea4f 0e44 	mov.w	lr, r4, lsl #1
 8001918:	2203      	movs	r2, #3
 800191a:	fa02 f20e 	lsl.w	r2, r2, lr
 800191e:	43d2      	mvns	r2, r2
 8001920:	4016      	ands	r6, r2
      temp |= ((GPIO_Init->Mode & GPIO_MODE) << (position * 2U));
 8001922:	684f      	ldr	r7, [r1, #4]
 8001924:	f007 0703 	and.w	r7, r7, #3
 8001928:	fa07 f70e 	lsl.w	r7, r7, lr
 800192c:	433e      	orrs	r6, r7
      GPIOx->MODER = temp;
 800192e:	6006      	str	r6, [r0, #0]
      if((GPIO_Init->Mode == GPIO_MODE_OUTPUT_PP) || (GPIO_Init->Mode == GPIO_MODE_AF_PP) ||
 8001930:	684e      	ldr	r6, [r1, #4]
 8001932:	1e77      	subs	r7, r6, #1
 8001934:	2f01      	cmp	r7, #1
 8001936:	f67f af57 	bls.w	80017e8 <HAL_GPIO_Init+0x30>
 800193a:	2e11      	cmp	r6, #17
 800193c:	f43f af54 	beq.w	80017e8 <HAL_GPIO_Init+0x30>
         (GPIO_Init->Mode == GPIO_MODE_OUTPUT_OD) || (GPIO_Init->Mode == GPIO_MODE_AF_OD))
 8001940:	2e12      	cmp	r6, #18
 8001942:	f47f af61 	bne.w	8001808 <HAL_GPIO_Init+0x50>
 8001946:	e74f      	b.n	80017e8 <HAL_GPIO_Init+0x30>
        temp |= ((uint32_t)(GPIO_GET_INDEX(GPIOx)) << (4U * (position & 0x03U)));
 8001948:	2606      	movs	r6, #6
 800194a:	e79d      	b.n	8001888 <HAL_GPIO_Init+0xd0>
 800194c:	2600      	movs	r6, #0
 800194e:	e79b      	b.n	8001888 <HAL_GPIO_Init+0xd0>
 8001950:	2601      	movs	r6, #1
 8001952:	e799      	b.n	8001888 <HAL_GPIO_Init+0xd0>
 8001954:	2602      	movs	r6, #2
 8001956:	e797      	b.n	8001888 <HAL_GPIO_Init+0xd0>
 8001958:	2603      	movs	r6, #3
 800195a:	e795      	b.n	8001888 <HAL_GPIO_Init+0xd0>
 800195c:	2604      	movs	r6, #4
 800195e:	e793      	b.n	8001888 <HAL_GPIO_Init+0xd0>
 8001960:	2605      	movs	r6, #5
 8001962:	e791      	b.n	8001888 <HAL_GPIO_Init+0xd0>
      }
    }
  }
}
 8001964:	b003      	add	sp, #12
 8001966:	bdf0      	pop	{r4, r5, r6, r7, pc}
 8001968:	40023800 	.word	0x40023800
 800196c:	40013800 	.word	0x40013800
 8001970:	40020000 	.word	0x40020000
 8001974:	40020400 	.word	0x40020400
 8001978:	40013c00 	.word	0x40013c00

0800197c <HAL_GPIO_ReadPin>:
  GPIO_PinState bitstatus;

  /* Check the parameters */
  assert_param(IS_GPIO_PIN(GPIO_Pin));

  if((GPIOx->IDR & GPIO_Pin) != (uint32_t)GPIO_PIN_RESET)
 800197c:	6903      	ldr	r3, [r0, #16]
 800197e:	4219      	tst	r1, r3
 8001980:	d101      	bne.n	8001986 <HAL_GPIO_ReadPin+0xa>
  {
    bitstatus = GPIO_PIN_SET;
  }
  else
  {
    bitstatus = GPIO_PIN_RESET;
 8001982:	2000      	movs	r0, #0
  }
  return bitstatus;
}
 8001984:	4770      	bx	lr
    bitstatus = GPIO_PIN_SET;
 8001986:	2001      	movs	r0, #1
 8001988:	4770      	bx	lr

0800198a <HAL_GPIO_WritePin>:
{
  /* Check the parameters */
  assert_param(IS_GPIO_PIN(GPIO_Pin));
  assert_param(IS_GPIO_PIN_ACTION(PinState));

  if(PinState != GPIO_PIN_RESET)
 800198a:	b912      	cbnz	r2, 8001992 <HAL_GPIO_WritePin+0x8>
  {
    GPIOx->BSRR = GPIO_Pin;
  }
  else
  {
    GPIOx->BSRR = (uint32_t)GPIO_Pin << 16U;
 800198c:	0409      	lsls	r1, r1, #16
 800198e:	6181      	str	r1, [r0, #24]
 8001990:	4770      	bx	lr
    GPIOx->BSRR = GPIO_Pin;
 8001992:	6181      	str	r1, [r0, #24]
 8001994:	4770      	bx	lr

08001996 <I2C_Master_SB>:
  *         the configuration information for I2C module
  * @retval HAL status
  */
static HAL_StatusTypeDef I2C_Master_SB(I2C_HandleTypeDef *hi2c)
{
  if(hi2c->Mode == HAL_I2C_MODE_MEM)
 8001996:	f890 303e 	ldrb.w	r3, [r0, #62]	; 0x3e
 800199a:	b2db      	uxtb	r3, r3
 800199c:	2b40      	cmp	r3, #64	; 0x40
 800199e:	d013      	beq.n	80019c8 <I2C_Master_SB+0x32>
      hi2c->Instance->DR = I2C_7BIT_ADD_READ(hi2c->Devaddress);
    }
  }
  else
  {
    if(hi2c->Init.AddressingMode == I2C_ADDRESSINGMODE_7BIT)
 80019a0:	6903      	ldr	r3, [r0, #16]
 80019a2:	f5b3 4f80 	cmp.w	r3, #16384	; 0x4000
 80019a6:	d01e      	beq.n	80019e6 <I2C_Master_SB+0x50>
        hi2c->Instance->DR = I2C_7BIT_ADD_READ(hi2c->Devaddress);
      }
    }
    else
    {
      if(hi2c->EventCount == 0U)
 80019a8:	6d03      	ldr	r3, [r0, #80]	; 0x50
 80019aa:	2b00      	cmp	r3, #0
 80019ac:	d02d      	beq.n	8001a0a <I2C_Master_SB+0x74>
      {
        /* Send header of slave address */
        hi2c->Instance->DR = I2C_10BIT_HEADER_WRITE(hi2c->Devaddress);
      }
      else if(hi2c->EventCount == 1U)
 80019ae:	6d03      	ldr	r3, [r0, #80]	; 0x50
 80019b0:	2b01      	cmp	r3, #1
 80019b2:	d133      	bne.n	8001a1c <I2C_Master_SB+0x86>
      {
        /* Send header of slave address */
        hi2c->Instance->DR = I2C_10BIT_HEADER_READ(hi2c->Devaddress);
 80019b4:	6802      	ldr	r2, [r0, #0]
 80019b6:	6c43      	ldr	r3, [r0, #68]	; 0x44
 80019b8:	f3c3 13c8 	ubfx	r3, r3, #7, #9
 80019bc:	f003 0306 	and.w	r3, r3, #6
 80019c0:	f043 03f1 	orr.w	r3, r3, #241	; 0xf1
 80019c4:	6113      	str	r3, [r2, #16]
 80019c6:	e029      	b.n	8001a1c <I2C_Master_SB+0x86>
    if(hi2c->EventCount == 0U)
 80019c8:	6d03      	ldr	r3, [r0, #80]	; 0x50
 80019ca:	b92b      	cbnz	r3, 80019d8 <I2C_Master_SB+0x42>
      hi2c->Instance->DR = I2C_7BIT_ADD_WRITE(hi2c->Devaddress);
 80019cc:	6802      	ldr	r2, [r0, #0]
 80019ce:	6c43      	ldr	r3, [r0, #68]	; 0x44
 80019d0:	f003 03fe 	and.w	r3, r3, #254	; 0xfe
 80019d4:	6113      	str	r3, [r2, #16]
 80019d6:	e021      	b.n	8001a1c <I2C_Master_SB+0x86>
      hi2c->Instance->DR = I2C_7BIT_ADD_READ(hi2c->Devaddress);
 80019d8:	6802      	ldr	r2, [r0, #0]
 80019da:	6c43      	ldr	r3, [r0, #68]	; 0x44
 80019dc:	f043 0301 	orr.w	r3, r3, #1
 80019e0:	b2db      	uxtb	r3, r3
 80019e2:	6113      	str	r3, [r2, #16]
 80019e4:	e01a      	b.n	8001a1c <I2C_Master_SB+0x86>
      if(hi2c->State == HAL_I2C_STATE_BUSY_TX) 
 80019e6:	f890 303d 	ldrb.w	r3, [r0, #61]	; 0x3d
 80019ea:	b2db      	uxtb	r3, r3
 80019ec:	2b21      	cmp	r3, #33	; 0x21
 80019ee:	d006      	beq.n	80019fe <I2C_Master_SB+0x68>
        hi2c->Instance->DR = I2C_7BIT_ADD_READ(hi2c->Devaddress);
 80019f0:	6802      	ldr	r2, [r0, #0]
 80019f2:	6c43      	ldr	r3, [r0, #68]	; 0x44
 80019f4:	f043 0301 	orr.w	r3, r3, #1
 80019f8:	b2db      	uxtb	r3, r3
 80019fa:	6113      	str	r3, [r2, #16]
 80019fc:	e00e      	b.n	8001a1c <I2C_Master_SB+0x86>
        hi2c->Instance->DR = I2C_7BIT_ADD_WRITE(hi2c->Devaddress);
 80019fe:	6802      	ldr	r2, [r0, #0]
 8001a00:	6c43      	ldr	r3, [r0, #68]	; 0x44
 8001a02:	f003 03fe 	and.w	r3, r3, #254	; 0xfe
 8001a06:	6113      	str	r3, [r2, #16]
 8001a08:	e008      	b.n	8001a1c <I2C_Master_SB+0x86>
        hi2c->Instance->DR = I2C_10BIT_HEADER_WRITE(hi2c->Devaddress);
 8001a0a:	6802      	ldr	r2, [r0, #0]
 8001a0c:	6c43      	ldr	r3, [r0, #68]	; 0x44
 8001a0e:	f3c3 13c8 	ubfx	r3, r3, #7, #9
 8001a12:	f003 0306 	and.w	r3, r3, #6
 8001a16:	f043 03f0 	orr.w	r3, r3, #240	; 0xf0
 8001a1a:	6113      	str	r3, [r2, #16]
      }
    }
  }

  return HAL_OK;
}
 8001a1c:	2000      	movs	r0, #0
 8001a1e:	4770      	bx	lr

08001a20 <I2C_Master_ADD10>:
  * @retval HAL status
  */
static HAL_StatusTypeDef I2C_Master_ADD10(I2C_HandleTypeDef *hi2c)
{
  /* Send slave address */
  hi2c->Instance->DR = I2C_10BIT_ADDRESS(hi2c->Devaddress);
 8001a20:	6802      	ldr	r2, [r0, #0]
 8001a22:	6c43      	ldr	r3, [r0, #68]	; 0x44
 8001a24:	b2db      	uxtb	r3, r3
 8001a26:	6113      	str	r3, [r2, #16]

  return HAL_OK;
}
 8001a28:	2000      	movs	r0, #0
 8001a2a:	4770      	bx	lr

08001a2c <I2C_Master_ADDR>:
  * @param  hi2c Pointer to a I2C_HandleTypeDef structure that contains
  *         the configuration information for I2C module
  * @retval HAL status
  */
static HAL_StatusTypeDef I2C_Master_ADDR(I2C_HandleTypeDef *hi2c)
{
 8001a2c:	b410      	push	{r4}
 8001a2e:	b08b      	sub	sp, #44	; 0x2c
  /* Declaration of temporary variable to prevent undefined behavior of volatile usage */
  uint32_t CurrentMode        = hi2c->Mode;
 8001a30:	f890 303e 	ldrb.w	r3, [r0, #62]	; 0x3e
 8001a34:	b2da      	uxtb	r2, r3
  uint32_t CurrentXferOptions = hi2c->XferOptions;
 8001a36:	6ac1      	ldr	r1, [r0, #44]	; 0x2c
  uint32_t Prev_State         = hi2c->PreviousState;
 8001a38:	6b04      	ldr	r4, [r0, #48]	; 0x30

  if(hi2c->State == HAL_I2C_STATE_BUSY_RX)
 8001a3a:	f890 303d 	ldrb.w	r3, [r0, #61]	; 0x3d
 8001a3e:	b2db      	uxtb	r3, r3
 8001a40:	2b22      	cmp	r3, #34	; 0x22
 8001a42:	d00c      	beq.n	8001a5e <I2C_Master_ADDR+0x32>
    }
  }
  else
  {
    /* Clear ADDR flag */
    __HAL_I2C_CLEAR_ADDRFLAG(hi2c);
 8001a44:	2300      	movs	r3, #0
 8001a46:	9309      	str	r3, [sp, #36]	; 0x24
 8001a48:	6803      	ldr	r3, [r0, #0]
 8001a4a:	695a      	ldr	r2, [r3, #20]
 8001a4c:	9209      	str	r2, [sp, #36]	; 0x24
 8001a4e:	699b      	ldr	r3, [r3, #24]
 8001a50:	9309      	str	r3, [sp, #36]	; 0x24
 8001a52:	9b09      	ldr	r3, [sp, #36]	; 0x24
  }

  return HAL_OK;
}
 8001a54:	2000      	movs	r0, #0
 8001a56:	b00b      	add	sp, #44	; 0x2c
 8001a58:	f85d 4b04 	ldr.w	r4, [sp], #4
 8001a5c:	4770      	bx	lr
    if((hi2c->EventCount == 0U) && (CurrentMode == HAL_I2C_MODE_MEM))
 8001a5e:	6d03      	ldr	r3, [r0, #80]	; 0x50
 8001a60:	b90b      	cbnz	r3, 8001a66 <I2C_Master_ADDR+0x3a>
 8001a62:	2a40      	cmp	r2, #64	; 0x40
 8001a64:	d017      	beq.n	8001a96 <I2C_Master_ADDR+0x6a>
    else if((hi2c->EventCount == 0U) && (hi2c->Init.AddressingMode == I2C_ADDRESSINGMODE_10BIT))
 8001a66:	6d03      	ldr	r3, [r0, #80]	; 0x50
 8001a68:	b91b      	cbnz	r3, 8001a72 <I2C_Master_ADDR+0x46>
 8001a6a:	6903      	ldr	r3, [r0, #16]
 8001a6c:	f5b3 4f40 	cmp.w	r3, #49152	; 0xc000
 8001a70:	d019      	beq.n	8001aa6 <I2C_Master_ADDR+0x7a>
      if(hi2c->XferCount == 0U)
 8001a72:	8d43      	ldrh	r3, [r0, #42]	; 0x2a
 8001a74:	b29b      	uxth	r3, r3
 8001a76:	2b00      	cmp	r3, #0
 8001a78:	d125      	bne.n	8001ac6 <I2C_Master_ADDR+0x9a>
        __HAL_I2C_CLEAR_ADDRFLAG(hi2c);
 8001a7a:	9302      	str	r3, [sp, #8]
 8001a7c:	6803      	ldr	r3, [r0, #0]
 8001a7e:	695a      	ldr	r2, [r3, #20]
 8001a80:	9202      	str	r2, [sp, #8]
 8001a82:	699a      	ldr	r2, [r3, #24]
 8001a84:	9202      	str	r2, [sp, #8]
 8001a86:	9a02      	ldr	r2, [sp, #8]
        hi2c->Instance->CR1 |= I2C_CR1_STOP;
 8001a88:	681a      	ldr	r2, [r3, #0]
 8001a8a:	f442 7200 	orr.w	r2, r2, #512	; 0x200
 8001a8e:	601a      	str	r2, [r3, #0]
      hi2c->EventCount = 0U;
 8001a90:	2300      	movs	r3, #0
 8001a92:	6503      	str	r3, [r0, #80]	; 0x50
 8001a94:	e7de      	b.n	8001a54 <I2C_Master_ADDR+0x28>
      __HAL_I2C_CLEAR_ADDRFLAG(hi2c);
 8001a96:	9300      	str	r3, [sp, #0]
 8001a98:	6803      	ldr	r3, [r0, #0]
 8001a9a:	695a      	ldr	r2, [r3, #20]
 8001a9c:	9200      	str	r2, [sp, #0]
 8001a9e:	699b      	ldr	r3, [r3, #24]
 8001aa0:	9300      	str	r3, [sp, #0]
 8001aa2:	9b00      	ldr	r3, [sp, #0]
 8001aa4:	e7d6      	b.n	8001a54 <I2C_Master_ADDR+0x28>
      __HAL_I2C_CLEAR_ADDRFLAG(hi2c);
 8001aa6:	2300      	movs	r3, #0
 8001aa8:	9301      	str	r3, [sp, #4]
 8001aaa:	6803      	ldr	r3, [r0, #0]
 8001aac:	695a      	ldr	r2, [r3, #20]
 8001aae:	9201      	str	r2, [sp, #4]
 8001ab0:	699a      	ldr	r2, [r3, #24]
 8001ab2:	9201      	str	r2, [sp, #4]
 8001ab4:	9a01      	ldr	r2, [sp, #4]
      hi2c->Instance->CR1 |= I2C_CR1_START;
 8001ab6:	681a      	ldr	r2, [r3, #0]
 8001ab8:	f442 7280 	orr.w	r2, r2, #256	; 0x100
 8001abc:	601a      	str	r2, [r3, #0]
      hi2c->EventCount++;
 8001abe:	6d03      	ldr	r3, [r0, #80]	; 0x50
 8001ac0:	3301      	adds	r3, #1
 8001ac2:	6503      	str	r3, [r0, #80]	; 0x50
 8001ac4:	e7c6      	b.n	8001a54 <I2C_Master_ADDR+0x28>
      else if(hi2c->XferCount == 1U)   
 8001ac6:	8d43      	ldrh	r3, [r0, #42]	; 0x2a
 8001ac8:	b29b      	uxth	r3, r3
 8001aca:	2b01      	cmp	r3, #1
 8001acc:	d01a      	beq.n	8001b04 <I2C_Master_ADDR+0xd8>
      else if(hi2c->XferCount == 2U)
 8001ace:	8d43      	ldrh	r3, [r0, #42]	; 0x2a
 8001ad0:	b29b      	uxth	r3, r3
 8001ad2:	2b02      	cmp	r3, #2
 8001ad4:	d06b      	beq.n	8001bae <I2C_Master_ADDR+0x182>
        hi2c->Instance->CR1 |= I2C_CR1_ACK;
 8001ad6:	6802      	ldr	r2, [r0, #0]
 8001ad8:	6813      	ldr	r3, [r2, #0]
 8001ada:	f443 6380 	orr.w	r3, r3, #1024	; 0x400
 8001ade:	6013      	str	r3, [r2, #0]
        if((hi2c->Instance->CR2 & I2C_CR2_DMAEN) == I2C_CR2_DMAEN)
 8001ae0:	6803      	ldr	r3, [r0, #0]
 8001ae2:	685a      	ldr	r2, [r3, #4]
 8001ae4:	f412 6f00 	tst.w	r2, #2048	; 0x800
 8001ae8:	d003      	beq.n	8001af2 <I2C_Master_ADDR+0xc6>
          hi2c->Instance->CR2 |= I2C_CR2_LAST;
 8001aea:	685a      	ldr	r2, [r3, #4]
 8001aec:	f442 5280 	orr.w	r2, r2, #4096	; 0x1000
 8001af0:	605a      	str	r2, [r3, #4]
        __HAL_I2C_CLEAR_ADDRFLAG(hi2c);
 8001af2:	2300      	movs	r3, #0
 8001af4:	9308      	str	r3, [sp, #32]
 8001af6:	6803      	ldr	r3, [r0, #0]
 8001af8:	695a      	ldr	r2, [r3, #20]
 8001afa:	9208      	str	r2, [sp, #32]
 8001afc:	699b      	ldr	r3, [r3, #24]
 8001afe:	9308      	str	r3, [sp, #32]
 8001b00:	9b08      	ldr	r3, [sp, #32]
 8001b02:	e7c5      	b.n	8001a90 <I2C_Master_ADDR+0x64>
        if(CurrentXferOptions == I2C_NO_OPTION_FRAME)
 8001b04:	f511 3f80 	cmn.w	r1, #65536	; 0x10000
 8001b08:	d016      	beq.n	8001b38 <I2C_Master_ADDR+0x10c>
        else if((CurrentXferOptions != I2C_FIRST_AND_LAST_FRAME) && (CurrentXferOptions != I2C_LAST_FRAME) \
 8001b0a:	2904      	cmp	r1, #4
 8001b0c:	d03d      	beq.n	8001b8a <I2C_Master_ADDR+0x15e>
 8001b0e:	2908      	cmp	r1, #8
 8001b10:	d03b      	beq.n	8001b8a <I2C_Master_ADDR+0x15e>
          && (Prev_State != I2C_STATE_MASTER_BUSY_RX))
 8001b12:	2c12      	cmp	r4, #18
 8001b14:	d039      	beq.n	8001b8a <I2C_Master_ADDR+0x15e>
          if(hi2c->XferOptions != I2C_NEXT_FRAME)
 8001b16:	6ac3      	ldr	r3, [r0, #44]	; 0x2c
 8001b18:	2b02      	cmp	r3, #2
 8001b1a:	d030      	beq.n	8001b7e <I2C_Master_ADDR+0x152>
            hi2c->Instance->CR1 &= ~I2C_CR1_ACK;
 8001b1c:	6802      	ldr	r2, [r0, #0]
 8001b1e:	6813      	ldr	r3, [r2, #0]
 8001b20:	f423 6380 	bic.w	r3, r3, #1024	; 0x400
 8001b24:	6013      	str	r3, [r2, #0]
          __HAL_I2C_CLEAR_ADDRFLAG(hi2c);
 8001b26:	2300      	movs	r3, #0
 8001b28:	9305      	str	r3, [sp, #20]
 8001b2a:	6803      	ldr	r3, [r0, #0]
 8001b2c:	695a      	ldr	r2, [r3, #20]
 8001b2e:	9205      	str	r2, [sp, #20]
 8001b30:	699b      	ldr	r3, [r3, #24]
 8001b32:	9305      	str	r3, [sp, #20]
 8001b34:	9b05      	ldr	r3, [sp, #20]
 8001b36:	e7ab      	b.n	8001a90 <I2C_Master_ADDR+0x64>
            hi2c->Instance->CR1 &= ~I2C_CR1_ACK;
 8001b38:	6802      	ldr	r2, [r0, #0]
 8001b3a:	6813      	ldr	r3, [r2, #0]
 8001b3c:	f423 6380 	bic.w	r3, r3, #1024	; 0x400
 8001b40:	6013      	str	r3, [r2, #0]
          if((hi2c->Instance->CR2 & I2C_CR2_DMAEN) == I2C_CR2_DMAEN)
 8001b42:	6803      	ldr	r3, [r0, #0]
 8001b44:	685a      	ldr	r2, [r3, #4]
 8001b46:	f412 6f00 	tst.w	r2, #2048	; 0x800
 8001b4a:	d00c      	beq.n	8001b66 <I2C_Master_ADDR+0x13a>
            hi2c->Instance->CR1 &= ~I2C_CR1_ACK;
 8001b4c:	681a      	ldr	r2, [r3, #0]
 8001b4e:	f422 6280 	bic.w	r2, r2, #1024	; 0x400
 8001b52:	601a      	str	r2, [r3, #0]
            __HAL_I2C_CLEAR_ADDRFLAG(hi2c);
 8001b54:	2300      	movs	r3, #0
 8001b56:	9303      	str	r3, [sp, #12]
 8001b58:	6803      	ldr	r3, [r0, #0]
 8001b5a:	695a      	ldr	r2, [r3, #20]
 8001b5c:	9203      	str	r2, [sp, #12]
 8001b5e:	699b      	ldr	r3, [r3, #24]
 8001b60:	9303      	str	r3, [sp, #12]
 8001b62:	9b03      	ldr	r3, [sp, #12]
 8001b64:	e794      	b.n	8001a90 <I2C_Master_ADDR+0x64>
            __HAL_I2C_CLEAR_ADDRFLAG(hi2c);
 8001b66:	2200      	movs	r2, #0
 8001b68:	9204      	str	r2, [sp, #16]
 8001b6a:	695a      	ldr	r2, [r3, #20]
 8001b6c:	9204      	str	r2, [sp, #16]
 8001b6e:	699a      	ldr	r2, [r3, #24]
 8001b70:	9204      	str	r2, [sp, #16]
 8001b72:	9a04      	ldr	r2, [sp, #16]
            hi2c->Instance->CR1 |= I2C_CR1_STOP;
 8001b74:	681a      	ldr	r2, [r3, #0]
 8001b76:	f442 7200 	orr.w	r2, r2, #512	; 0x200
 8001b7a:	601a      	str	r2, [r3, #0]
 8001b7c:	e788      	b.n	8001a90 <I2C_Master_ADDR+0x64>
            hi2c->Instance->CR1 |= I2C_CR1_ACK;
 8001b7e:	6802      	ldr	r2, [r0, #0]
 8001b80:	6813      	ldr	r3, [r2, #0]
 8001b82:	f443 6380 	orr.w	r3, r3, #1024	; 0x400
 8001b86:	6013      	str	r3, [r2, #0]
 8001b88:	e7cd      	b.n	8001b26 <I2C_Master_ADDR+0xfa>
          hi2c->Instance->CR1 &= ~I2C_CR1_ACK;
 8001b8a:	6802      	ldr	r2, [r0, #0]
 8001b8c:	6813      	ldr	r3, [r2, #0]
 8001b8e:	f423 6380 	bic.w	r3, r3, #1024	; 0x400
 8001b92:	6013      	str	r3, [r2, #0]
          __HAL_I2C_CLEAR_ADDRFLAG(hi2c);
 8001b94:	2300      	movs	r3, #0
 8001b96:	9306      	str	r3, [sp, #24]
 8001b98:	6803      	ldr	r3, [r0, #0]
 8001b9a:	695a      	ldr	r2, [r3, #20]
 8001b9c:	9206      	str	r2, [sp, #24]
 8001b9e:	699a      	ldr	r2, [r3, #24]
 8001ba0:	9206      	str	r2, [sp, #24]
 8001ba2:	9a06      	ldr	r2, [sp, #24]
          hi2c->Instance->CR1 |= I2C_CR1_STOP;
 8001ba4:	681a      	ldr	r2, [r3, #0]
 8001ba6:	f442 7200 	orr.w	r2, r2, #512	; 0x200
 8001baa:	601a      	str	r2, [r3, #0]
 8001bac:	e770      	b.n	8001a90 <I2C_Master_ADDR+0x64>
        if(hi2c->XferOptions != I2C_NEXT_FRAME)
 8001bae:	6ac3      	ldr	r3, [r0, #44]	; 0x2c
 8001bb0:	2b02      	cmp	r3, #2
 8001bb2:	d01b      	beq.n	8001bec <I2C_Master_ADDR+0x1c0>
          hi2c->Instance->CR1 &= ~I2C_CR1_ACK;
 8001bb4:	6802      	ldr	r2, [r0, #0]
 8001bb6:	6813      	ldr	r3, [r2, #0]
 8001bb8:	f423 6380 	bic.w	r3, r3, #1024	; 0x400
 8001bbc:	6013      	str	r3, [r2, #0]
          hi2c->Instance->CR1 |= I2C_CR1_POS;
 8001bbe:	6802      	ldr	r2, [r0, #0]
 8001bc0:	6813      	ldr	r3, [r2, #0]
 8001bc2:	f443 6300 	orr.w	r3, r3, #2048	; 0x800
 8001bc6:	6013      	str	r3, [r2, #0]
        if((hi2c->Instance->CR2 & I2C_CR2_DMAEN) == I2C_CR2_DMAEN)
 8001bc8:	6803      	ldr	r3, [r0, #0]
 8001bca:	685a      	ldr	r2, [r3, #4]
 8001bcc:	f412 6f00 	tst.w	r2, #2048	; 0x800
 8001bd0:	d003      	beq.n	8001bda <I2C_Master_ADDR+0x1ae>
          hi2c->Instance->CR2 |= I2C_CR2_LAST;
 8001bd2:	685a      	ldr	r2, [r3, #4]
 8001bd4:	f442 5280 	orr.w	r2, r2, #4096	; 0x1000
 8001bd8:	605a      	str	r2, [r3, #4]
        __HAL_I2C_CLEAR_ADDRFLAG(hi2c);
 8001bda:	2300      	movs	r3, #0
 8001bdc:	9307      	str	r3, [sp, #28]
 8001bde:	6803      	ldr	r3, [r0, #0]
 8001be0:	695a      	ldr	r2, [r3, #20]
 8001be2:	9207      	str	r2, [sp, #28]
 8001be4:	699b      	ldr	r3, [r3, #24]
 8001be6:	9307      	str	r3, [sp, #28]
 8001be8:	9b07      	ldr	r3, [sp, #28]
 8001bea:	e751      	b.n	8001a90 <I2C_Master_ADDR+0x64>
          hi2c->Instance->CR1 |= I2C_CR1_ACK;
 8001bec:	6802      	ldr	r2, [r0, #0]
 8001bee:	6813      	ldr	r3, [r2, #0]
 8001bf0:	f443 6380 	orr.w	r3, r3, #1024	; 0x400
 8001bf4:	6013      	str	r3, [r2, #0]
 8001bf6:	e7e7      	b.n	8001bc8 <I2C_Master_ADDR+0x19c>

08001bf8 <I2C_SlaveTransmit_BTF>:
  *         the configuration information for I2C module
  * @retval HAL status
  */
static HAL_StatusTypeDef I2C_SlaveTransmit_BTF(I2C_HandleTypeDef *hi2c)
{
  if(hi2c->XferCount != 0U)
 8001bf8:	8d43      	ldrh	r3, [r0, #42]	; 0x2a
 8001bfa:	b29b      	uxth	r3, r3
 8001bfc:	b153      	cbz	r3, 8001c14 <I2C_SlaveTransmit_BTF+0x1c>
  {
    /* Write data to DR */
    hi2c->Instance->DR = (*hi2c->pBuffPtr++);
 8001bfe:	6802      	ldr	r2, [r0, #0]
 8001c00:	6a43      	ldr	r3, [r0, #36]	; 0x24
 8001c02:	1c59      	adds	r1, r3, #1
 8001c04:	6241      	str	r1, [r0, #36]	; 0x24
 8001c06:	781b      	ldrb	r3, [r3, #0]
 8001c08:	6113      	str	r3, [r2, #16]
    hi2c->XferCount--;
 8001c0a:	8d43      	ldrh	r3, [r0, #42]	; 0x2a
 8001c0c:	b29b      	uxth	r3, r3
 8001c0e:	3b01      	subs	r3, #1
 8001c10:	b29b      	uxth	r3, r3
 8001c12:	8543      	strh	r3, [r0, #42]	; 0x2a
  }
  return HAL_OK;
}
 8001c14:	2000      	movs	r0, #0
 8001c16:	4770      	bx	lr

08001c18 <I2C_SlaveReceive_BTF>:
  *         the configuration information for I2C module
  * @retval HAL status
  */
static HAL_StatusTypeDef I2C_SlaveReceive_BTF(I2C_HandleTypeDef *hi2c)
{
  if(hi2c->XferCount != 0U)
 8001c18:	8d43      	ldrh	r3, [r0, #42]	; 0x2a
 8001c1a:	b29b      	uxth	r3, r3
 8001c1c:	b153      	cbz	r3, 8001c34 <I2C_SlaveReceive_BTF+0x1c>
  {
    /* Read data from DR */
    (*hi2c->pBuffPtr++) = hi2c->Instance->DR;
 8001c1e:	6a43      	ldr	r3, [r0, #36]	; 0x24
 8001c20:	1c5a      	adds	r2, r3, #1
 8001c22:	6242      	str	r2, [r0, #36]	; 0x24
 8001c24:	6802      	ldr	r2, [r0, #0]
 8001c26:	6912      	ldr	r2, [r2, #16]
 8001c28:	701a      	strb	r2, [r3, #0]
    hi2c->XferCount--;
 8001c2a:	8d43      	ldrh	r3, [r0, #42]	; 0x2a
 8001c2c:	b29b      	uxth	r3, r3
 8001c2e:	3b01      	subs	r3, #1
 8001c30:	b29b      	uxth	r3, r3
 8001c32:	8543      	strh	r3, [r0, #42]	; 0x2a
  }
  return HAL_OK;
}
 8001c34:	2000      	movs	r0, #0
 8001c36:	4770      	bx	lr

08001c38 <HAL_I2C_Init>:
  if(hi2c == NULL)
 8001c38:	2800      	cmp	r0, #0
 8001c3a:	f000 8082 	beq.w	8001d42 <HAL_I2C_Init+0x10a>
{
 8001c3e:	b538      	push	{r3, r4, r5, lr}
 8001c40:	4604      	mov	r4, r0
  if(hi2c->State == HAL_I2C_STATE_RESET)
 8001c42:	f890 303d 	ldrb.w	r3, [r0, #61]	; 0x3d
 8001c46:	2b00      	cmp	r3, #0
 8001c48:	d041      	beq.n	8001cce <HAL_I2C_Init+0x96>
  hi2c->State = HAL_I2C_STATE_BUSY;
 8001c4a:	2324      	movs	r3, #36	; 0x24
 8001c4c:	f884 303d 	strb.w	r3, [r4, #61]	; 0x3d
  __HAL_I2C_DISABLE(hi2c);
 8001c50:	6822      	ldr	r2, [r4, #0]
 8001c52:	6813      	ldr	r3, [r2, #0]
 8001c54:	f023 0301 	bic.w	r3, r3, #1
 8001c58:	6013      	str	r3, [r2, #0]
  pclk1 = HAL_RCC_GetPCLK1Freq();
 8001c5a:	f000 fe5d 	bl	8002918 <HAL_RCC_GetPCLK1Freq>
  freqrange = I2C_FREQRANGE(pclk1);
 8001c5e:	4b3a      	ldr	r3, [pc, #232]	; (8001d48 <HAL_I2C_Init+0x110>)
 8001c60:	fba3 2300 	umull	r2, r3, r3, r0
 8001c64:	0c9b      	lsrs	r3, r3, #18
  hi2c->Instance->CR2 = freqrange;
 8001c66:	6822      	ldr	r2, [r4, #0]
 8001c68:	6053      	str	r3, [r2, #4]
  hi2c->Instance->TRISE = I2C_RISE_TIME(freqrange, hi2c->Init.ClockSpeed);
 8001c6a:	6821      	ldr	r1, [r4, #0]
 8001c6c:	6865      	ldr	r5, [r4, #4]
 8001c6e:	4a37      	ldr	r2, [pc, #220]	; (8001d4c <HAL_I2C_Init+0x114>)
 8001c70:	4295      	cmp	r5, r2
 8001c72:	d831      	bhi.n	8001cd8 <HAL_I2C_Init+0xa0>
 8001c74:	3301      	adds	r3, #1
 8001c76:	620b      	str	r3, [r1, #32]
  hi2c->Instance->CCR = I2C_SPEED(pclk1, hi2c->Init.ClockSpeed, hi2c->Init.DutyCycle);
 8001c78:	6821      	ldr	r1, [r4, #0]
 8001c7a:	6863      	ldr	r3, [r4, #4]
 8001c7c:	4a33      	ldr	r2, [pc, #204]	; (8001d4c <HAL_I2C_Init+0x114>)
 8001c7e:	4293      	cmp	r3, r2
 8001c80:	d834      	bhi.n	8001cec <HAL_I2C_Init+0xb4>
 8001c82:	005b      	lsls	r3, r3, #1
 8001c84:	fbb0 f0f3 	udiv	r0, r0, r3
 8001c88:	f3c0 030b 	ubfx	r3, r0, #0, #12
 8001c8c:	2b03      	cmp	r3, #3
 8001c8e:	d800      	bhi.n	8001c92 <HAL_I2C_Init+0x5a>
 8001c90:	2004      	movs	r0, #4
 8001c92:	61c8      	str	r0, [r1, #28]
  hi2c->Instance->CR1 = (hi2c->Init.GeneralCallMode | hi2c->Init.NoStretchMode);
 8001c94:	6822      	ldr	r2, [r4, #0]
 8001c96:	69e3      	ldr	r3, [r4, #28]
 8001c98:	6a21      	ldr	r1, [r4, #32]
 8001c9a:	430b      	orrs	r3, r1
 8001c9c:	6013      	str	r3, [r2, #0]
  hi2c->Instance->OAR1 = (hi2c->Init.AddressingMode | hi2c->Init.OwnAddress1);
 8001c9e:	6822      	ldr	r2, [r4, #0]
 8001ca0:	6923      	ldr	r3, [r4, #16]
 8001ca2:	68e1      	ldr	r1, [r4, #12]
 8001ca4:	430b      	orrs	r3, r1
 8001ca6:	6093      	str	r3, [r2, #8]
  hi2c->Instance->OAR2 = (hi2c->Init.DualAddressMode | hi2c->Init.OwnAddress2);
 8001ca8:	6822      	ldr	r2, [r4, #0]
 8001caa:	6963      	ldr	r3, [r4, #20]
 8001cac:	69a1      	ldr	r1, [r4, #24]
 8001cae:	430b      	orrs	r3, r1
 8001cb0:	60d3      	str	r3, [r2, #12]
  __HAL_I2C_ENABLE(hi2c);
 8001cb2:	6822      	ldr	r2, [r4, #0]
 8001cb4:	6813      	ldr	r3, [r2, #0]
 8001cb6:	f043 0301 	orr.w	r3, r3, #1
 8001cba:	6013      	str	r3, [r2, #0]
  hi2c->ErrorCode = HAL_I2C_ERROR_NONE;
 8001cbc:	2000      	movs	r0, #0
 8001cbe:	6420      	str	r0, [r4, #64]	; 0x40
  hi2c->State = HAL_I2C_STATE_READY;
 8001cc0:	2320      	movs	r3, #32
 8001cc2:	f884 303d 	strb.w	r3, [r4, #61]	; 0x3d
  hi2c->PreviousState = I2C_STATE_NONE;
 8001cc6:	6320      	str	r0, [r4, #48]	; 0x30
  hi2c->Mode = HAL_I2C_MODE_NONE;
 8001cc8:	f884 003e 	strb.w	r0, [r4, #62]	; 0x3e
  return HAL_OK;
 8001ccc:	bd38      	pop	{r3, r4, r5, pc}
    hi2c->Lock = HAL_UNLOCKED;
 8001cce:	f880 303c 	strb.w	r3, [r0, #60]	; 0x3c
    HAL_I2C_MspInit(hi2c);
 8001cd2:	f002 fe4d 	bl	8004970 <HAL_I2C_MspInit>
 8001cd6:	e7b8      	b.n	8001c4a <HAL_I2C_Init+0x12>
  hi2c->Instance->TRISE = I2C_RISE_TIME(freqrange, hi2c->Init.ClockSpeed);
 8001cd8:	f44f 7296 	mov.w	r2, #300	; 0x12c
 8001cdc:	fb02 f303 	mul.w	r3, r2, r3
 8001ce0:	4a1b      	ldr	r2, [pc, #108]	; (8001d50 <HAL_I2C_Init+0x118>)
 8001ce2:	fba2 2303 	umull	r2, r3, r2, r3
 8001ce6:	099b      	lsrs	r3, r3, #6
 8001ce8:	3301      	adds	r3, #1
 8001cea:	e7c4      	b.n	8001c76 <HAL_I2C_Init+0x3e>
  hi2c->Instance->CCR = I2C_SPEED(pclk1, hi2c->Init.ClockSpeed, hi2c->Init.DutyCycle);
 8001cec:	68a5      	ldr	r5, [r4, #8]
 8001cee:	b98d      	cbnz	r5, 8001d14 <HAL_I2C_Init+0xdc>
 8001cf0:	eb03 0243 	add.w	r2, r3, r3, lsl #1
 8001cf4:	fbb0 f2f2 	udiv	r2, r0, r2
 8001cf8:	f3c2 020b 	ubfx	r2, r2, #0, #12
 8001cfc:	fab2 f282 	clz	r2, r2
 8001d00:	0952      	lsrs	r2, r2, #5
 8001d02:	b9e2      	cbnz	r2, 8001d3e <HAL_I2C_Init+0x106>
 8001d04:	b995      	cbnz	r5, 8001d2c <HAL_I2C_Init+0xf4>
 8001d06:	eb03 0343 	add.w	r3, r3, r3, lsl #1
 8001d0a:	fbb0 f0f3 	udiv	r0, r0, r3
 8001d0e:	f440 4000 	orr.w	r0, r0, #32768	; 0x8000
 8001d12:	e7be      	b.n	8001c92 <HAL_I2C_Init+0x5a>
 8001d14:	eb03 0283 	add.w	r2, r3, r3, lsl #2
 8001d18:	eb02 0282 	add.w	r2, r2, r2, lsl #2
 8001d1c:	fbb0 f2f2 	udiv	r2, r0, r2
 8001d20:	f3c2 020b 	ubfx	r2, r2, #0, #12
 8001d24:	fab2 f282 	clz	r2, r2
 8001d28:	0952      	lsrs	r2, r2, #5
 8001d2a:	e7ea      	b.n	8001d02 <HAL_I2C_Init+0xca>
 8001d2c:	eb03 0383 	add.w	r3, r3, r3, lsl #2
 8001d30:	eb03 0383 	add.w	r3, r3, r3, lsl #2
 8001d34:	fbb0 f0f3 	udiv	r0, r0, r3
 8001d38:	f440 4040 	orr.w	r0, r0, #49152	; 0xc000
 8001d3c:	e7a9      	b.n	8001c92 <HAL_I2C_Init+0x5a>
 8001d3e:	2001      	movs	r0, #1
 8001d40:	e7a7      	b.n	8001c92 <HAL_I2C_Init+0x5a>
    return HAL_ERROR;
 8001d42:	2001      	movs	r0, #1
 8001d44:	4770      	bx	lr
 8001d46:	bf00      	nop
 8001d48:	431bde83 	.word	0x431bde83
 8001d4c:	000186a0 	.word	0x000186a0
 8001d50:	10624dd3 	.word	0x10624dd3

08001d54 <I2C_SlaveTransmit_TXE>:
  uint32_t CurrentState = hi2c->State;
 8001d54:	f890 303d 	ldrb.w	r3, [r0, #61]	; 0x3d
 8001d58:	b2da      	uxtb	r2, r3
  if(hi2c->XferCount != 0U)
 8001d5a:	8d43      	ldrh	r3, [r0, #42]	; 0x2a
 8001d5c:	b29b      	uxth	r3, r3
 8001d5e:	b1fb      	cbz	r3, 8001da0 <I2C_SlaveTransmit_TXE+0x4c>
{
 8001d60:	b510      	push	{r4, lr}
    hi2c->Instance->DR = (*hi2c->pBuffPtr++);
 8001d62:	6801      	ldr	r1, [r0, #0]
 8001d64:	6a43      	ldr	r3, [r0, #36]	; 0x24
 8001d66:	1c5c      	adds	r4, r3, #1
 8001d68:	6244      	str	r4, [r0, #36]	; 0x24
 8001d6a:	781b      	ldrb	r3, [r3, #0]
 8001d6c:	610b      	str	r3, [r1, #16]
    hi2c->XferCount--;
 8001d6e:	8d43      	ldrh	r3, [r0, #42]	; 0x2a
 8001d70:	b29b      	uxth	r3, r3
 8001d72:	3b01      	subs	r3, #1
 8001d74:	b29b      	uxth	r3, r3
 8001d76:	8543      	strh	r3, [r0, #42]	; 0x2a
    if((hi2c->XferCount == 0U) && (CurrentState == HAL_I2C_STATE_BUSY_TX_LISTEN))
 8001d78:	8d43      	ldrh	r3, [r0, #42]	; 0x2a
 8001d7a:	b29b      	uxth	r3, r3
 8001d7c:	b90b      	cbnz	r3, 8001d82 <I2C_SlaveTransmit_TXE+0x2e>
 8001d7e:	2a29      	cmp	r2, #41	; 0x29
 8001d80:	d001      	beq.n	8001d86 <I2C_SlaveTransmit_TXE+0x32>
}
 8001d82:	2000      	movs	r0, #0
 8001d84:	bd10      	pop	{r4, pc}
      __HAL_I2C_DISABLE_IT(hi2c, I2C_IT_BUF);
 8001d86:	6802      	ldr	r2, [r0, #0]
 8001d88:	6853      	ldr	r3, [r2, #4]
 8001d8a:	f423 6380 	bic.w	r3, r3, #1024	; 0x400
 8001d8e:	6053      	str	r3, [r2, #4]
      hi2c->PreviousState = I2C_STATE_SLAVE_BUSY_TX;
 8001d90:	2321      	movs	r3, #33	; 0x21
 8001d92:	6303      	str	r3, [r0, #48]	; 0x30
      hi2c->State = HAL_I2C_STATE_LISTEN;
 8001d94:	2328      	movs	r3, #40	; 0x28
 8001d96:	f880 303d 	strb.w	r3, [r0, #61]	; 0x3d
      HAL_I2C_SlaveTxCpltCallback(hi2c);
 8001d9a:	f003 f9dd 	bl	8005158 <HAL_I2C_SlaveTxCpltCallback>
 8001d9e:	e7f0      	b.n	8001d82 <I2C_SlaveTransmit_TXE+0x2e>
}
 8001da0:	2000      	movs	r0, #0
 8001da2:	4770      	bx	lr

08001da4 <I2C_SlaveReceive_RXNE>:
{
 8001da4:	b508      	push	{r3, lr}
  uint32_t CurrentState = hi2c->State;
 8001da6:	f890 303d 	ldrb.w	r3, [r0, #61]	; 0x3d
 8001daa:	b2da      	uxtb	r2, r3
  if(hi2c->XferCount != 0U)
 8001dac:	8d43      	ldrh	r3, [r0, #42]	; 0x2a
 8001dae:	b29b      	uxth	r3, r3
 8001db0:	b17b      	cbz	r3, 8001dd2 <I2C_SlaveReceive_RXNE+0x2e>
    (*hi2c->pBuffPtr++) = hi2c->Instance->DR;
 8001db2:	6a43      	ldr	r3, [r0, #36]	; 0x24
 8001db4:	1c59      	adds	r1, r3, #1
 8001db6:	6241      	str	r1, [r0, #36]	; 0x24
 8001db8:	6801      	ldr	r1, [r0, #0]
 8001dba:	6909      	ldr	r1, [r1, #16]
 8001dbc:	7019      	strb	r1, [r3, #0]
    hi2c->XferCount--;
 8001dbe:	8d43      	ldrh	r3, [r0, #42]	; 0x2a
 8001dc0:	b29b      	uxth	r3, r3
 8001dc2:	3b01      	subs	r3, #1
 8001dc4:	b29b      	uxth	r3, r3
 8001dc6:	8543      	strh	r3, [r0, #42]	; 0x2a
    if((hi2c->XferCount == 0U) && (CurrentState == HAL_I2C_STATE_BUSY_RX_LISTEN))
 8001dc8:	8d43      	ldrh	r3, [r0, #42]	; 0x2a
 8001dca:	b29b      	uxth	r3, r3
 8001dcc:	b90b      	cbnz	r3, 8001dd2 <I2C_SlaveReceive_RXNE+0x2e>
 8001dce:	2a2a      	cmp	r2, #42	; 0x2a
 8001dd0:	d001      	beq.n	8001dd6 <I2C_SlaveReceive_RXNE+0x32>
}
 8001dd2:	2000      	movs	r0, #0
 8001dd4:	bd08      	pop	{r3, pc}
      __HAL_I2C_DISABLE_IT(hi2c, I2C_IT_BUF);
 8001dd6:	6802      	ldr	r2, [r0, #0]
 8001dd8:	6853      	ldr	r3, [r2, #4]
 8001dda:	f423 6380 	bic.w	r3, r3, #1024	; 0x400
 8001dde:	6053      	str	r3, [r2, #4]
      hi2c->PreviousState = I2C_STATE_SLAVE_BUSY_RX;
 8001de0:	2322      	movs	r3, #34	; 0x22
 8001de2:	6303      	str	r3, [r0, #48]	; 0x30
      hi2c->State = HAL_I2C_STATE_LISTEN;
 8001de4:	2328      	movs	r3, #40	; 0x28
 8001de6:	f880 303d 	strb.w	r3, [r0, #61]	; 0x3d
      HAL_I2C_SlaveRxCpltCallback(hi2c);
 8001dea:	f003 f9eb 	bl	80051c4 <HAL_I2C_SlaveRxCpltCallback>
 8001dee:	e7f0      	b.n	8001dd2 <I2C_SlaveReceive_RXNE+0x2e>

08001df0 <HAL_I2C_AddrCallback>:
{
 8001df0:	4770      	bx	lr

08001df2 <I2C_Slave_ADDR>:
  * @param  hi2c Pointer to a I2C_HandleTypeDef structure that contains
  *         the configuration information for I2C module
  * @retval HAL status
  */
static HAL_StatusTypeDef I2C_Slave_ADDR(I2C_HandleTypeDef *hi2c)
{
 8001df2:	b508      	push	{r3, lr}
  uint8_t TransferDirection = I2C_DIRECTION_RECEIVE;
  uint16_t SlaveAddrCode = 0U;

  /* Transfer Direction requested by Master */
  if(__HAL_I2C_GET_FLAG(hi2c, I2C_FLAG_TRA) == RESET)
 8001df4:	6803      	ldr	r3, [r0, #0]
 8001df6:	699a      	ldr	r2, [r3, #24]
 8001df8:	f012 0f04 	tst.w	r2, #4
 8001dfc:	d009      	beq.n	8001e12 <I2C_Slave_ADDR+0x20>
  uint8_t TransferDirection = I2C_DIRECTION_RECEIVE;
 8001dfe:	2100      	movs	r1, #0
  {
    TransferDirection = I2C_DIRECTION_TRANSMIT;
  }
  
  if(__HAL_I2C_GET_FLAG(hi2c, I2C_FLAG_DUALF) == RESET)
 8001e00:	699b      	ldr	r3, [r3, #24]
 8001e02:	f013 0f80 	tst.w	r3, #128	; 0x80
 8001e06:	d006      	beq.n	8001e16 <I2C_Slave_ADDR+0x24>
  {
    SlaveAddrCode = hi2c->Init.OwnAddress1;
  }
  else
  {
    SlaveAddrCode = hi2c->Init.OwnAddress2;
 8001e08:	8b02      	ldrh	r2, [r0, #24]
  }

  /* Call Slave Addr callback */
  HAL_I2C_AddrCallback(hi2c, TransferDirection, SlaveAddrCode);
 8001e0a:	f7ff fff1 	bl	8001df0 <HAL_I2C_AddrCallback>

  return HAL_OK;
}
 8001e0e:	2000      	movs	r0, #0
 8001e10:	bd08      	pop	{r3, pc}
    TransferDirection = I2C_DIRECTION_TRANSMIT;
 8001e12:	2101      	movs	r1, #1
 8001e14:	e7f4      	b.n	8001e00 <I2C_Slave_ADDR+0xe>
    SlaveAddrCode = hi2c->Init.OwnAddress1;
 8001e16:	8982      	ldrh	r2, [r0, #12]
 8001e18:	e7f7      	b.n	8001e0a <I2C_Slave_ADDR+0x18>

08001e1a <HAL_I2C_ListenCpltCallback>:
{
 8001e1a:	4770      	bx	lr

08001e1c <I2C_Slave_AF>:
  * @param  hi2c Pointer to a I2C_HandleTypeDef structure that contains
  *         the configuration information for I2C module
  * @retval HAL status
  */
static HAL_StatusTypeDef I2C_Slave_AF(I2C_HandleTypeDef *hi2c)
{
 8001e1c:	b508      	push	{r3, lr}
  /* Declaration of temporary variables to prevent undefined behavior of volatile usage */
  uint32_t CurrentState       = hi2c->State;
 8001e1e:	f890 303d 	ldrb.w	r3, [r0, #61]	; 0x3d
 8001e22:	b2db      	uxtb	r3, r3
  uint32_t CurrentXferOptions = hi2c->XferOptions;
 8001e24:	6ac2      	ldr	r2, [r0, #44]	; 0x2c

  if(((CurrentXferOptions ==  I2C_FIRST_AND_LAST_FRAME) || (CurrentXferOptions == I2C_LAST_FRAME)) && \
 8001e26:	2a04      	cmp	r2, #4
 8001e28:	d009      	beq.n	8001e3e <I2C_Slave_AF+0x22>
 8001e2a:	2a08      	cmp	r2, #8
 8001e2c:	d007      	beq.n	8001e3e <I2C_Slave_AF+0x22>
    hi2c->Mode = HAL_I2C_MODE_NONE;
      
    /* Call the Listen Complete callback, to inform upper layer of the end of Listen usecase */
    HAL_I2C_ListenCpltCallback(hi2c);
  }
  else if(CurrentState == HAL_I2C_STATE_BUSY_TX)
 8001e2e:	2b21      	cmp	r3, #33	; 0x21
 8001e30:	d021      	beq.n	8001e76 <I2C_Slave_AF+0x5a>
  }
  else
  {
    /* Clear AF flag only */
    /* State Listen, but XferOptions == FIRST or NEXT */
    __HAL_I2C_CLEAR_FLAG(hi2c, I2C_FLAG_AF);
 8001e32:	6803      	ldr	r3, [r0, #0]
 8001e34:	f46f 6280 	mvn.w	r2, #1024	; 0x400
 8001e38:	615a      	str	r2, [r3, #20]
  }
  
  return HAL_OK;
}
 8001e3a:	2000      	movs	r0, #0
 8001e3c:	bd08      	pop	{r3, pc}
  if(((CurrentXferOptions ==  I2C_FIRST_AND_LAST_FRAME) || (CurrentXferOptions == I2C_LAST_FRAME)) && \
 8001e3e:	2b28      	cmp	r3, #40	; 0x28
 8001e40:	d1f5      	bne.n	8001e2e <I2C_Slave_AF+0x12>
    hi2c->XferOptions = I2C_NO_OPTION_FRAME;
 8001e42:	4b1a      	ldr	r3, [pc, #104]	; (8001eac <I2C_Slave_AF+0x90>)
 8001e44:	62c3      	str	r3, [r0, #44]	; 0x2c
    __HAL_I2C_DISABLE_IT(hi2c, I2C_IT_EVT | I2C_IT_BUF | I2C_IT_ERR);
 8001e46:	6802      	ldr	r2, [r0, #0]
 8001e48:	6853      	ldr	r3, [r2, #4]
 8001e4a:	f423 63e0 	bic.w	r3, r3, #1792	; 0x700
 8001e4e:	6053      	str	r3, [r2, #4]
    __HAL_I2C_CLEAR_FLAG(hi2c, I2C_FLAG_AF);
 8001e50:	6803      	ldr	r3, [r0, #0]
 8001e52:	f46f 6280 	mvn.w	r2, #1024	; 0x400
 8001e56:	615a      	str	r2, [r3, #20]
    hi2c->Instance->CR1 &= ~I2C_CR1_ACK;
 8001e58:	6802      	ldr	r2, [r0, #0]
 8001e5a:	6813      	ldr	r3, [r2, #0]
 8001e5c:	f423 6380 	bic.w	r3, r3, #1024	; 0x400
 8001e60:	6013      	str	r3, [r2, #0]
    hi2c->PreviousState = I2C_STATE_NONE;
 8001e62:	2300      	movs	r3, #0
 8001e64:	6303      	str	r3, [r0, #48]	; 0x30
    hi2c->State = HAL_I2C_STATE_READY;
 8001e66:	2220      	movs	r2, #32
 8001e68:	f880 203d 	strb.w	r2, [r0, #61]	; 0x3d
    hi2c->Mode = HAL_I2C_MODE_NONE;
 8001e6c:	f880 303e 	strb.w	r3, [r0, #62]	; 0x3e
    HAL_I2C_ListenCpltCallback(hi2c);
 8001e70:	f7ff ffd3 	bl	8001e1a <HAL_I2C_ListenCpltCallback>
 8001e74:	e7e1      	b.n	8001e3a <I2C_Slave_AF+0x1e>
    hi2c->XferOptions = I2C_NO_OPTION_FRAME;
 8001e76:	4b0d      	ldr	r3, [pc, #52]	; (8001eac <I2C_Slave_AF+0x90>)
 8001e78:	62c3      	str	r3, [r0, #44]	; 0x2c
    hi2c->PreviousState = I2C_STATE_SLAVE_BUSY_TX;
 8001e7a:	2321      	movs	r3, #33	; 0x21
 8001e7c:	6303      	str	r3, [r0, #48]	; 0x30
    hi2c->State = HAL_I2C_STATE_READY;
 8001e7e:	2320      	movs	r3, #32
 8001e80:	f880 303d 	strb.w	r3, [r0, #61]	; 0x3d
    hi2c->Mode = HAL_I2C_MODE_NONE;
 8001e84:	2300      	movs	r3, #0
 8001e86:	f880 303e 	strb.w	r3, [r0, #62]	; 0x3e
    __HAL_I2C_DISABLE_IT(hi2c, I2C_IT_EVT | I2C_IT_BUF | I2C_IT_ERR);
 8001e8a:	6802      	ldr	r2, [r0, #0]
 8001e8c:	6853      	ldr	r3, [r2, #4]
 8001e8e:	f423 63e0 	bic.w	r3, r3, #1792	; 0x700
 8001e92:	6053      	str	r3, [r2, #4]
    __HAL_I2C_CLEAR_FLAG(hi2c, I2C_FLAG_AF);
 8001e94:	6803      	ldr	r3, [r0, #0]
 8001e96:	f46f 6280 	mvn.w	r2, #1024	; 0x400
 8001e9a:	615a      	str	r2, [r3, #20]
    hi2c->Instance->CR1 &= ~I2C_CR1_ACK;
 8001e9c:	6802      	ldr	r2, [r0, #0]
 8001e9e:	6813      	ldr	r3, [r2, #0]
 8001ea0:	f423 6380 	bic.w	r3, r3, #1024	; 0x400
 8001ea4:	6013      	str	r3, [r2, #0]
    HAL_I2C_SlaveTxCpltCallback(hi2c);
 8001ea6:	f003 f957 	bl	8005158 <HAL_I2C_SlaveTxCpltCallback>
 8001eaa:	e7c6      	b.n	8001e3a <I2C_Slave_AF+0x1e>
 8001eac:	ffff0000 	.word	0xffff0000

08001eb0 <HAL_I2C_MemTxCpltCallback>:
{
 8001eb0:	4770      	bx	lr

08001eb2 <I2C_MasterTransmit_TXE>:
{
 8001eb2:	b510      	push	{r4, lr}
  uint32_t CurrentState       = hi2c->State;
 8001eb4:	f890 303d 	ldrb.w	r3, [r0, #61]	; 0x3d
 8001eb8:	b2db      	uxtb	r3, r3
  uint32_t CurrentMode        = hi2c->Mode;
 8001eba:	f890 203e 	ldrb.w	r2, [r0, #62]	; 0x3e
 8001ebe:	b2d2      	uxtb	r2, r2
  uint32_t CurrentXferOptions = hi2c->XferOptions;
 8001ec0:	6ac4      	ldr	r4, [r0, #44]	; 0x2c
  if((hi2c->XferSize == 0U) && (CurrentState == HAL_I2C_STATE_BUSY_TX))
 8001ec2:	8d01      	ldrh	r1, [r0, #40]	; 0x28
 8001ec4:	b909      	cbnz	r1, 8001eca <I2C_MasterTransmit_TXE+0x18>
 8001ec6:	2b21      	cmp	r3, #33	; 0x21
 8001ec8:	d005      	beq.n	8001ed6 <I2C_MasterTransmit_TXE+0x24>
  else if((CurrentState == HAL_I2C_STATE_BUSY_TX) || \
 8001eca:	2b21      	cmp	r3, #33	; 0x21
 8001ecc:	d03c      	beq.n	8001f48 <I2C_MasterTransmit_TXE+0x96>
 8001ece:	2a40      	cmp	r2, #64	; 0x40
 8001ed0:	d038      	beq.n	8001f44 <I2C_MasterTransmit_TXE+0x92>
}
 8001ed2:	2000      	movs	r0, #0
 8001ed4:	bd10      	pop	{r4, pc}
    if((CurrentXferOptions != I2C_FIRST_AND_LAST_FRAME) && (CurrentXferOptions != I2C_LAST_FRAME) && (CurrentXferOptions != I2C_NO_OPTION_FRAME))
 8001ed6:	2c04      	cmp	r4, #4
 8001ed8:	d004      	beq.n	8001ee4 <I2C_MasterTransmit_TXE+0x32>
 8001eda:	2c08      	cmp	r4, #8
 8001edc:	d002      	beq.n	8001ee4 <I2C_MasterTransmit_TXE+0x32>
 8001ede:	f514 3f80 	cmn.w	r4, #65536	; 0x10000
 8001ee2:	d119      	bne.n	8001f18 <I2C_MasterTransmit_TXE+0x66>
      __HAL_I2C_DISABLE_IT(hi2c, I2C_IT_EVT | I2C_IT_BUF | I2C_IT_ERR);
 8001ee4:	6802      	ldr	r2, [r0, #0]
 8001ee6:	6853      	ldr	r3, [r2, #4]
 8001ee8:	f423 63e0 	bic.w	r3, r3, #1792	; 0x700
 8001eec:	6053      	str	r3, [r2, #4]
      hi2c->Instance->CR1 |= I2C_CR1_STOP;
 8001eee:	6802      	ldr	r2, [r0, #0]
 8001ef0:	6813      	ldr	r3, [r2, #0]
 8001ef2:	f443 7300 	orr.w	r3, r3, #512	; 0x200
 8001ef6:	6013      	str	r3, [r2, #0]
      hi2c->PreviousState = I2C_STATE_NONE;
 8001ef8:	2300      	movs	r3, #0
 8001efa:	6303      	str	r3, [r0, #48]	; 0x30
      hi2c->State = HAL_I2C_STATE_READY;
 8001efc:	2320      	movs	r3, #32
 8001efe:	f880 303d 	strb.w	r3, [r0, #61]	; 0x3d
      if(hi2c->Mode == HAL_I2C_MODE_MEM)
 8001f02:	f890 303e 	ldrb.w	r3, [r0, #62]	; 0x3e
 8001f06:	b2db      	uxtb	r3, r3
 8001f08:	2b40      	cmp	r3, #64	; 0x40
 8001f0a:	d015      	beq.n	8001f38 <I2C_MasterTransmit_TXE+0x86>
        hi2c->Mode = HAL_I2C_MODE_NONE;
 8001f0c:	2300      	movs	r3, #0
 8001f0e:	f880 303e 	strb.w	r3, [r0, #62]	; 0x3e
        HAL_I2C_MasterTxCpltCallback(hi2c);
 8001f12:	f003 f907 	bl	8005124 <HAL_I2C_MasterTxCpltCallback>
 8001f16:	e7dc      	b.n	8001ed2 <I2C_MasterTransmit_TXE+0x20>
      __HAL_I2C_DISABLE_IT(hi2c, I2C_IT_EVT | I2C_IT_BUF | I2C_IT_ERR);
 8001f18:	6802      	ldr	r2, [r0, #0]
 8001f1a:	6853      	ldr	r3, [r2, #4]
 8001f1c:	f423 63e0 	bic.w	r3, r3, #1792	; 0x700
 8001f20:	6053      	str	r3, [r2, #4]
      hi2c->PreviousState = I2C_STATE_MASTER_BUSY_TX;
 8001f22:	2311      	movs	r3, #17
 8001f24:	6303      	str	r3, [r0, #48]	; 0x30
      hi2c->Mode = HAL_I2C_MODE_NONE;
 8001f26:	2300      	movs	r3, #0
 8001f28:	f880 303e 	strb.w	r3, [r0, #62]	; 0x3e
      hi2c->State = HAL_I2C_STATE_READY;
 8001f2c:	2320      	movs	r3, #32
 8001f2e:	f880 303d 	strb.w	r3, [r0, #61]	; 0x3d
      HAL_I2C_MasterTxCpltCallback(hi2c);
 8001f32:	f003 f8f7 	bl	8005124 <HAL_I2C_MasterTxCpltCallback>
 8001f36:	e7cc      	b.n	8001ed2 <I2C_MasterTransmit_TXE+0x20>
        hi2c->Mode = HAL_I2C_MODE_NONE;
 8001f38:	2300      	movs	r3, #0
 8001f3a:	f880 303e 	strb.w	r3, [r0, #62]	; 0x3e
        HAL_I2C_MemTxCpltCallback(hi2c);
 8001f3e:	f7ff ffb7 	bl	8001eb0 <HAL_I2C_MemTxCpltCallback>
 8001f42:	e7c6      	b.n	8001ed2 <I2C_MasterTransmit_TXE+0x20>
    ((CurrentMode == HAL_I2C_MODE_MEM) && (CurrentState == HAL_I2C_STATE_BUSY_RX)))
 8001f44:	2b22      	cmp	r3, #34	; 0x22
 8001f46:	d1c4      	bne.n	8001ed2 <I2C_MasterTransmit_TXE+0x20>
    if(hi2c->XferCount == 0U)
 8001f48:	8d43      	ldrh	r3, [r0, #42]	; 0x2a
 8001f4a:	b29b      	uxth	r3, r3
 8001f4c:	b183      	cbz	r3, 8001f70 <I2C_MasterTransmit_TXE+0xbe>
      if(hi2c->Mode == HAL_I2C_MODE_MEM)
 8001f4e:	f890 303e 	ldrb.w	r3, [r0, #62]	; 0x3e
 8001f52:	b2db      	uxtb	r3, r3
 8001f54:	2b40      	cmp	r3, #64	; 0x40
 8001f56:	d011      	beq.n	8001f7c <I2C_MasterTransmit_TXE+0xca>
        hi2c->Instance->DR = (*hi2c->pBuffPtr++);
 8001f58:	6802      	ldr	r2, [r0, #0]
 8001f5a:	6a43      	ldr	r3, [r0, #36]	; 0x24
 8001f5c:	1c59      	adds	r1, r3, #1
 8001f5e:	6241      	str	r1, [r0, #36]	; 0x24
 8001f60:	781b      	ldrb	r3, [r3, #0]
 8001f62:	6113      	str	r3, [r2, #16]
        hi2c->XferCount--;
 8001f64:	8d43      	ldrh	r3, [r0, #42]	; 0x2a
 8001f66:	b29b      	uxth	r3, r3
 8001f68:	3b01      	subs	r3, #1
 8001f6a:	b29b      	uxth	r3, r3
 8001f6c:	8543      	strh	r3, [r0, #42]	; 0x2a
 8001f6e:	e7b0      	b.n	8001ed2 <I2C_MasterTransmit_TXE+0x20>
      __HAL_I2C_DISABLE_IT(hi2c, I2C_IT_BUF);
 8001f70:	6802      	ldr	r2, [r0, #0]
 8001f72:	6853      	ldr	r3, [r2, #4]
 8001f74:	f423 6380 	bic.w	r3, r3, #1024	; 0x400
 8001f78:	6053      	str	r3, [r2, #4]
 8001f7a:	e7aa      	b.n	8001ed2 <I2C_MasterTransmit_TXE+0x20>
        if(hi2c->EventCount == 0)
 8001f7c:	6d03      	ldr	r3, [r0, #80]	; 0x50
 8001f7e:	b99b      	cbnz	r3, 8001fa8 <I2C_MasterTransmit_TXE+0xf6>
          if(hi2c->MemaddSize == I2C_MEMADD_SIZE_8BIT)
 8001f80:	6cc3      	ldr	r3, [r0, #76]	; 0x4c
 8001f82:	2b01      	cmp	r3, #1
 8001f84:	d008      	beq.n	8001f98 <I2C_MasterTransmit_TXE+0xe6>
            hi2c->Instance->DR = I2C_MEM_ADD_MSB(hi2c->Memaddress);
 8001f86:	6802      	ldr	r2, [r0, #0]
 8001f88:	6c83      	ldr	r3, [r0, #72]	; 0x48
 8001f8a:	f3c3 2307 	ubfx	r3, r3, #8, #8
 8001f8e:	6113      	str	r3, [r2, #16]
            hi2c->EventCount++;
 8001f90:	6d03      	ldr	r3, [r0, #80]	; 0x50
 8001f92:	3301      	adds	r3, #1
 8001f94:	6503      	str	r3, [r0, #80]	; 0x50
 8001f96:	e79c      	b.n	8001ed2 <I2C_MasterTransmit_TXE+0x20>
            hi2c->Instance->DR = I2C_MEM_ADD_LSB(hi2c->Memaddress);
 8001f98:	6802      	ldr	r2, [r0, #0]
 8001f9a:	6c83      	ldr	r3, [r0, #72]	; 0x48
 8001f9c:	b2db      	uxtb	r3, r3
 8001f9e:	6113      	str	r3, [r2, #16]
            hi2c->EventCount += 2;
 8001fa0:	6d03      	ldr	r3, [r0, #80]	; 0x50
 8001fa2:	3302      	adds	r3, #2
 8001fa4:	6503      	str	r3, [r0, #80]	; 0x50
 8001fa6:	e794      	b.n	8001ed2 <I2C_MasterTransmit_TXE+0x20>
        else if(hi2c->EventCount == 1)
 8001fa8:	6d03      	ldr	r3, [r0, #80]	; 0x50
 8001faa:	2b01      	cmp	r3, #1
 8001fac:	d018      	beq.n	8001fe0 <I2C_MasterTransmit_TXE+0x12e>
        else if(hi2c->EventCount == 2)
 8001fae:	6d03      	ldr	r3, [r0, #80]	; 0x50
 8001fb0:	2b02      	cmp	r3, #2
 8001fb2:	d18e      	bne.n	8001ed2 <I2C_MasterTransmit_TXE+0x20>
          if(hi2c->State == HAL_I2C_STATE_BUSY_RX)
 8001fb4:	f890 303d 	ldrb.w	r3, [r0, #61]	; 0x3d
 8001fb8:	b2db      	uxtb	r3, r3
 8001fba:	2b22      	cmp	r3, #34	; 0x22
 8001fbc:	d018      	beq.n	8001ff0 <I2C_MasterTransmit_TXE+0x13e>
          else if(hi2c->State == HAL_I2C_STATE_BUSY_TX)
 8001fbe:	f890 303d 	ldrb.w	r3, [r0, #61]	; 0x3d
 8001fc2:	b2db      	uxtb	r3, r3
 8001fc4:	2b21      	cmp	r3, #33	; 0x21
 8001fc6:	d184      	bne.n	8001ed2 <I2C_MasterTransmit_TXE+0x20>
            hi2c->Instance->DR = (*hi2c->pBuffPtr++);
 8001fc8:	6802      	ldr	r2, [r0, #0]
 8001fca:	6a43      	ldr	r3, [r0, #36]	; 0x24
 8001fcc:	1c59      	adds	r1, r3, #1
 8001fce:	6241      	str	r1, [r0, #36]	; 0x24
 8001fd0:	781b      	ldrb	r3, [r3, #0]
 8001fd2:	6113      	str	r3, [r2, #16]
            hi2c->XferCount--;
 8001fd4:	8d43      	ldrh	r3, [r0, #42]	; 0x2a
 8001fd6:	b29b      	uxth	r3, r3
 8001fd8:	3b01      	subs	r3, #1
 8001fda:	b29b      	uxth	r3, r3
 8001fdc:	8543      	strh	r3, [r0, #42]	; 0x2a
 8001fde:	e778      	b.n	8001ed2 <I2C_MasterTransmit_TXE+0x20>
          hi2c->Instance->DR = I2C_MEM_ADD_LSB(hi2c->Memaddress);
 8001fe0:	6802      	ldr	r2, [r0, #0]
 8001fe2:	6c83      	ldr	r3, [r0, #72]	; 0x48
 8001fe4:	b2db      	uxtb	r3, r3
 8001fe6:	6113      	str	r3, [r2, #16]
          hi2c->EventCount++;
 8001fe8:	6d03      	ldr	r3, [r0, #80]	; 0x50
 8001fea:	3301      	adds	r3, #1
 8001fec:	6503      	str	r3, [r0, #80]	; 0x50
 8001fee:	e770      	b.n	8001ed2 <I2C_MasterTransmit_TXE+0x20>
            hi2c->Instance->CR1 |= I2C_CR1_START;
 8001ff0:	6802      	ldr	r2, [r0, #0]
 8001ff2:	6813      	ldr	r3, [r2, #0]
 8001ff4:	f443 7380 	orr.w	r3, r3, #256	; 0x100
 8001ff8:	6013      	str	r3, [r2, #0]
 8001ffa:	e76a      	b.n	8001ed2 <I2C_MasterTransmit_TXE+0x20>

08001ffc <I2C_MasterTransmit_BTF>:
{
 8001ffc:	b508      	push	{r3, lr}
  uint32_t CurrentXferOptions = hi2c->XferOptions;
 8001ffe:	6ac2      	ldr	r2, [r0, #44]	; 0x2c
  if(hi2c->State == HAL_I2C_STATE_BUSY_TX)
 8002000:	f890 303d 	ldrb.w	r3, [r0, #61]	; 0x3d
 8002004:	b2db      	uxtb	r3, r3
 8002006:	2b21      	cmp	r3, #33	; 0x21
 8002008:	d001      	beq.n	800200e <I2C_MasterTransmit_BTF+0x12>
}
 800200a:	2000      	movs	r0, #0
 800200c:	bd08      	pop	{r3, pc}
    if(hi2c->XferCount != 0U)
 800200e:	8d43      	ldrh	r3, [r0, #42]	; 0x2a
 8002010:	b29b      	uxth	r3, r3
 8002012:	bb03      	cbnz	r3, 8002056 <I2C_MasterTransmit_BTF+0x5a>
      if((CurrentXferOptions != I2C_FIRST_AND_LAST_FRAME) && (CurrentXferOptions != I2C_LAST_FRAME) && (CurrentXferOptions != I2C_NO_OPTION_FRAME))
 8002014:	2a04      	cmp	r2, #4
 8002016:	d004      	beq.n	8002022 <I2C_MasterTransmit_BTF+0x26>
 8002018:	2a08      	cmp	r2, #8
 800201a:	d002      	beq.n	8002022 <I2C_MasterTransmit_BTF+0x26>
 800201c:	f512 3f80 	cmn.w	r2, #65536	; 0x10000
 8002020:	d125      	bne.n	800206e <I2C_MasterTransmit_BTF+0x72>
        __HAL_I2C_DISABLE_IT(hi2c, I2C_IT_EVT | I2C_IT_BUF | I2C_IT_ERR);
 8002022:	6802      	ldr	r2, [r0, #0]
 8002024:	6853      	ldr	r3, [r2, #4]
 8002026:	f423 63e0 	bic.w	r3, r3, #1792	; 0x700
 800202a:	6053      	str	r3, [r2, #4]
        hi2c->Instance->CR1 |= I2C_CR1_STOP;
 800202c:	6802      	ldr	r2, [r0, #0]
 800202e:	6813      	ldr	r3, [r2, #0]
 8002030:	f443 7300 	orr.w	r3, r3, #512	; 0x200
 8002034:	6013      	str	r3, [r2, #0]
        hi2c->PreviousState = I2C_STATE_NONE;
 8002036:	2300      	movs	r3, #0
 8002038:	6303      	str	r3, [r0, #48]	; 0x30
        hi2c->State = HAL_I2C_STATE_READY;
 800203a:	2320      	movs	r3, #32
 800203c:	f880 303d 	strb.w	r3, [r0, #61]	; 0x3d
        if(hi2c->Mode == HAL_I2C_MODE_MEM)
 8002040:	f890 303e 	ldrb.w	r3, [r0, #62]	; 0x3e
 8002044:	b2db      	uxtb	r3, r3
 8002046:	2b40      	cmp	r3, #64	; 0x40
 8002048:	d021      	beq.n	800208e <I2C_MasterTransmit_BTF+0x92>
          hi2c->Mode = HAL_I2C_MODE_NONE;
 800204a:	2300      	movs	r3, #0
 800204c:	f880 303e 	strb.w	r3, [r0, #62]	; 0x3e
          HAL_I2C_MasterTxCpltCallback(hi2c);
 8002050:	f003 f868 	bl	8005124 <HAL_I2C_MasterTxCpltCallback>
 8002054:	e7d9      	b.n	800200a <I2C_MasterTransmit_BTF+0xe>
      hi2c->Instance->DR = (*hi2c->pBuffPtr++);
 8002056:	6802      	ldr	r2, [r0, #0]
 8002058:	6a43      	ldr	r3, [r0, #36]	; 0x24
 800205a:	1c59      	adds	r1, r3, #1
 800205c:	6241      	str	r1, [r0, #36]	; 0x24
 800205e:	781b      	ldrb	r3, [r3, #0]
 8002060:	6113      	str	r3, [r2, #16]
      hi2c->XferCount--;
 8002062:	8d43      	ldrh	r3, [r0, #42]	; 0x2a
 8002064:	b29b      	uxth	r3, r3
 8002066:	3b01      	subs	r3, #1
 8002068:	b29b      	uxth	r3, r3
 800206a:	8543      	strh	r3, [r0, #42]	; 0x2a
 800206c:	e7cd      	b.n	800200a <I2C_MasterTransmit_BTF+0xe>
        __HAL_I2C_DISABLE_IT(hi2c, I2C_IT_EVT | I2C_IT_BUF | I2C_IT_ERR);
 800206e:	6802      	ldr	r2, [r0, #0]
 8002070:	6853      	ldr	r3, [r2, #4]
 8002072:	f423 63e0 	bic.w	r3, r3, #1792	; 0x700
 8002076:	6053      	str	r3, [r2, #4]
        hi2c->PreviousState = I2C_STATE_MASTER_BUSY_TX;
 8002078:	2311      	movs	r3, #17
 800207a:	6303      	str	r3, [r0, #48]	; 0x30
        hi2c->Mode = HAL_I2C_MODE_NONE;
 800207c:	2300      	movs	r3, #0
 800207e:	f880 303e 	strb.w	r3, [r0, #62]	; 0x3e
        hi2c->State = HAL_I2C_STATE_READY;
 8002082:	2320      	movs	r3, #32
 8002084:	f880 303d 	strb.w	r3, [r0, #61]	; 0x3d
        HAL_I2C_MasterTxCpltCallback(hi2c);
 8002088:	f003 f84c 	bl	8005124 <HAL_I2C_MasterTxCpltCallback>
 800208c:	e7bd      	b.n	800200a <I2C_MasterTransmit_BTF+0xe>
          hi2c->Mode = HAL_I2C_MODE_NONE;
 800208e:	2300      	movs	r3, #0
 8002090:	f880 303e 	strb.w	r3, [r0, #62]	; 0x3e
          HAL_I2C_MemTxCpltCallback(hi2c);
 8002094:	f7ff ff0c 	bl	8001eb0 <HAL_I2C_MemTxCpltCallback>
 8002098:	e7b7      	b.n	800200a <I2C_MasterTransmit_BTF+0xe>

0800209a <HAL_I2C_MemRxCpltCallback>:
{
 800209a:	4770      	bx	lr

0800209c <I2C_MasterReceive_RXNE>:
{
 800209c:	b508      	push	{r3, lr}
  if(hi2c->State == HAL_I2C_STATE_BUSY_RX)
 800209e:	f890 303d 	ldrb.w	r3, [r0, #61]	; 0x3d
 80020a2:	b2db      	uxtb	r3, r3
 80020a4:	2b22      	cmp	r3, #34	; 0x22
 80020a6:	d001      	beq.n	80020ac <I2C_MasterReceive_RXNE+0x10>
}
 80020a8:	2000      	movs	r0, #0
 80020aa:	bd08      	pop	{r3, pc}
    tmp = hi2c->XferCount;
 80020ac:	8d43      	ldrh	r3, [r0, #42]	; 0x2a
 80020ae:	b29b      	uxth	r3, r3
    if(tmp > 3U)
 80020b0:	2b03      	cmp	r3, #3
 80020b2:	d914      	bls.n	80020de <I2C_MasterReceive_RXNE+0x42>
      (*hi2c->pBuffPtr++) = hi2c->Instance->DR;
 80020b4:	6a43      	ldr	r3, [r0, #36]	; 0x24
 80020b6:	1c5a      	adds	r2, r3, #1
 80020b8:	6242      	str	r2, [r0, #36]	; 0x24
 80020ba:	6802      	ldr	r2, [r0, #0]
 80020bc:	6912      	ldr	r2, [r2, #16]
 80020be:	701a      	strb	r2, [r3, #0]
      hi2c->XferCount--;
 80020c0:	8d43      	ldrh	r3, [r0, #42]	; 0x2a
 80020c2:	b29b      	uxth	r3, r3
 80020c4:	3b01      	subs	r3, #1
 80020c6:	b29b      	uxth	r3, r3
 80020c8:	8543      	strh	r3, [r0, #42]	; 0x2a
      if(hi2c->XferCount == 3)
 80020ca:	8d43      	ldrh	r3, [r0, #42]	; 0x2a
 80020cc:	b29b      	uxth	r3, r3
 80020ce:	2b03      	cmp	r3, #3
 80020d0:	d1ea      	bne.n	80020a8 <I2C_MasterReceive_RXNE+0xc>
        __HAL_I2C_DISABLE_IT(hi2c, I2C_IT_BUF);
 80020d2:	6802      	ldr	r2, [r0, #0]
 80020d4:	6853      	ldr	r3, [r2, #4]
 80020d6:	f423 6380 	bic.w	r3, r3, #1024	; 0x400
 80020da:	6053      	str	r3, [r2, #4]
 80020dc:	e7e4      	b.n	80020a8 <I2C_MasterReceive_RXNE+0xc>
    else if((tmp == 1U) || (tmp == 0U))
 80020de:	2b01      	cmp	r3, #1
 80020e0:	d8e2      	bhi.n	80020a8 <I2C_MasterReceive_RXNE+0xc>
      hi2c->Instance->CR1 &= ~I2C_CR1_ACK;
 80020e2:	6802      	ldr	r2, [r0, #0]
 80020e4:	6813      	ldr	r3, [r2, #0]
 80020e6:	f423 6380 	bic.w	r3, r3, #1024	; 0x400
 80020ea:	6013      	str	r3, [r2, #0]
      __HAL_I2C_DISABLE_IT(hi2c, I2C_IT_EVT | I2C_IT_BUF | I2C_IT_ERR);
 80020ec:	6802      	ldr	r2, [r0, #0]
 80020ee:	6853      	ldr	r3, [r2, #4]
 80020f0:	f423 63e0 	bic.w	r3, r3, #1792	; 0x700
 80020f4:	6053      	str	r3, [r2, #4]
      (*hi2c->pBuffPtr++) = hi2c->Instance->DR;
 80020f6:	6a43      	ldr	r3, [r0, #36]	; 0x24
 80020f8:	1c5a      	adds	r2, r3, #1
 80020fa:	6242      	str	r2, [r0, #36]	; 0x24
 80020fc:	6802      	ldr	r2, [r0, #0]
 80020fe:	6912      	ldr	r2, [r2, #16]
 8002100:	701a      	strb	r2, [r3, #0]
      hi2c->XferCount--;
 8002102:	8d43      	ldrh	r3, [r0, #42]	; 0x2a
 8002104:	b29b      	uxth	r3, r3
 8002106:	3b01      	subs	r3, #1
 8002108:	b29b      	uxth	r3, r3
 800210a:	8543      	strh	r3, [r0, #42]	; 0x2a
      hi2c->State = HAL_I2C_STATE_READY;
 800210c:	2320      	movs	r3, #32
 800210e:	f880 303d 	strb.w	r3, [r0, #61]	; 0x3d
      hi2c->PreviousState = I2C_STATE_NONE;
 8002112:	2300      	movs	r3, #0
 8002114:	6303      	str	r3, [r0, #48]	; 0x30
      if(hi2c->Mode == HAL_I2C_MODE_MEM)
 8002116:	f890 303e 	ldrb.w	r3, [r0, #62]	; 0x3e
 800211a:	b2db      	uxtb	r3, r3
 800211c:	2b40      	cmp	r3, #64	; 0x40
 800211e:	d005      	beq.n	800212c <I2C_MasterReceive_RXNE+0x90>
        hi2c->Mode = HAL_I2C_MODE_NONE;
 8002120:	2300      	movs	r3, #0
 8002122:	f880 303e 	strb.w	r3, [r0, #62]	; 0x3e
        HAL_I2C_MasterRxCpltCallback(hi2c);
 8002126:	f003 f833 	bl	8005190 <HAL_I2C_MasterRxCpltCallback>
 800212a:	e7bd      	b.n	80020a8 <I2C_MasterReceive_RXNE+0xc>
        hi2c->Mode = HAL_I2C_MODE_NONE;
 800212c:	2300      	movs	r3, #0
 800212e:	f880 303e 	strb.w	r3, [r0, #62]	; 0x3e
        HAL_I2C_MemRxCpltCallback(hi2c);
 8002132:	f7ff ffb2 	bl	800209a <HAL_I2C_MemRxCpltCallback>
 8002136:	e7b7      	b.n	80020a8 <I2C_MasterReceive_RXNE+0xc>

08002138 <I2C_MasterReceive_BTF>:
{
 8002138:	b508      	push	{r3, lr}
  uint32_t CurrentXferOptions = hi2c->XferOptions;
 800213a:	6ac2      	ldr	r2, [r0, #44]	; 0x2c
  if(hi2c->XferCount == 4U)
 800213c:	8d43      	ldrh	r3, [r0, #42]	; 0x2a
 800213e:	b29b      	uxth	r3, r3
 8002140:	2b04      	cmp	r3, #4
 8002142:	d014      	beq.n	800216e <I2C_MasterReceive_BTF+0x36>
  else if(hi2c->XferCount == 3U)
 8002144:	8d43      	ldrh	r3, [r0, #42]	; 0x2a
 8002146:	b29b      	uxth	r3, r3
 8002148:	2b03      	cmp	r3, #3
 800214a:	d021      	beq.n	8002190 <I2C_MasterReceive_BTF+0x58>
  else if(hi2c->XferCount == 2U)
 800214c:	8d43      	ldrh	r3, [r0, #42]	; 0x2a
 800214e:	b29b      	uxth	r3, r3
 8002150:	2b02      	cmp	r3, #2
 8002152:	d033      	beq.n	80021bc <I2C_MasterReceive_BTF+0x84>
    (*hi2c->pBuffPtr++) = hi2c->Instance->DR;
 8002154:	6a43      	ldr	r3, [r0, #36]	; 0x24
 8002156:	1c5a      	adds	r2, r3, #1
 8002158:	6242      	str	r2, [r0, #36]	; 0x24
 800215a:	6802      	ldr	r2, [r0, #0]
 800215c:	6912      	ldr	r2, [r2, #16]
 800215e:	701a      	strb	r2, [r3, #0]
    hi2c->XferCount--;
 8002160:	8d43      	ldrh	r3, [r0, #42]	; 0x2a
 8002162:	b29b      	uxth	r3, r3
 8002164:	3b01      	subs	r3, #1
 8002166:	b29b      	uxth	r3, r3
 8002168:	8543      	strh	r3, [r0, #42]	; 0x2a
}
 800216a:	2000      	movs	r0, #0
 800216c:	bd08      	pop	{r3, pc}
    __HAL_I2C_DISABLE_IT(hi2c, I2C_IT_BUF);
 800216e:	6802      	ldr	r2, [r0, #0]
 8002170:	6853      	ldr	r3, [r2, #4]
 8002172:	f423 6380 	bic.w	r3, r3, #1024	; 0x400
 8002176:	6053      	str	r3, [r2, #4]
    (*hi2c->pBuffPtr++) = hi2c->Instance->DR;
 8002178:	6a43      	ldr	r3, [r0, #36]	; 0x24
 800217a:	1c5a      	adds	r2, r3, #1
 800217c:	6242      	str	r2, [r0, #36]	; 0x24
 800217e:	6802      	ldr	r2, [r0, #0]
 8002180:	6912      	ldr	r2, [r2, #16]
 8002182:	701a      	strb	r2, [r3, #0]
    hi2c->XferCount--;
 8002184:	8d43      	ldrh	r3, [r0, #42]	; 0x2a
 8002186:	b29b      	uxth	r3, r3
 8002188:	3b01      	subs	r3, #1
 800218a:	b29b      	uxth	r3, r3
 800218c:	8543      	strh	r3, [r0, #42]	; 0x2a
 800218e:	e7ec      	b.n	800216a <I2C_MasterReceive_BTF+0x32>
    __HAL_I2C_DISABLE_IT(hi2c, I2C_IT_BUF);
 8002190:	6802      	ldr	r2, [r0, #0]
 8002192:	6853      	ldr	r3, [r2, #4]
 8002194:	f423 6380 	bic.w	r3, r3, #1024	; 0x400
 8002198:	6053      	str	r3, [r2, #4]
    hi2c->Instance->CR1 &= ~I2C_CR1_ACK;
 800219a:	6802      	ldr	r2, [r0, #0]
 800219c:	6813      	ldr	r3, [r2, #0]
 800219e:	f423 6380 	bic.w	r3, r3, #1024	; 0x400
 80021a2:	6013      	str	r3, [r2, #0]
    (*hi2c->pBuffPtr++) = hi2c->Instance->DR;
 80021a4:	6a43      	ldr	r3, [r0, #36]	; 0x24
 80021a6:	1c5a      	adds	r2, r3, #1
 80021a8:	6242      	str	r2, [r0, #36]	; 0x24
 80021aa:	6802      	ldr	r2, [r0, #0]
 80021ac:	6912      	ldr	r2, [r2, #16]
 80021ae:	701a      	strb	r2, [r3, #0]
    hi2c->XferCount--;
 80021b0:	8d43      	ldrh	r3, [r0, #42]	; 0x2a
 80021b2:	b29b      	uxth	r3, r3
 80021b4:	3b01      	subs	r3, #1
 80021b6:	b29b      	uxth	r3, r3
 80021b8:	8543      	strh	r3, [r0, #42]	; 0x2a
 80021ba:	e7d6      	b.n	800216a <I2C_MasterReceive_BTF+0x32>
    if((CurrentXferOptions == I2C_NEXT_FRAME) || (CurrentXferOptions == I2C_FIRST_FRAME))
 80021bc:	3a01      	subs	r2, #1
 80021be:	2a01      	cmp	r2, #1
 80021c0:	d92f      	bls.n	8002222 <I2C_MasterReceive_BTF+0xea>
      hi2c->Instance->CR1 |= I2C_CR1_STOP;
 80021c2:	6802      	ldr	r2, [r0, #0]
 80021c4:	6813      	ldr	r3, [r2, #0]
 80021c6:	f443 7300 	orr.w	r3, r3, #512	; 0x200
 80021ca:	6013      	str	r3, [r2, #0]
    (*hi2c->pBuffPtr++) = hi2c->Instance->DR;
 80021cc:	6a43      	ldr	r3, [r0, #36]	; 0x24
 80021ce:	1c5a      	adds	r2, r3, #1
 80021d0:	6242      	str	r2, [r0, #36]	; 0x24
 80021d2:	6802      	ldr	r2, [r0, #0]
 80021d4:	6912      	ldr	r2, [r2, #16]
 80021d6:	701a      	strb	r2, [r3, #0]
    hi2c->XferCount--;
 80021d8:	8d43      	ldrh	r3, [r0, #42]	; 0x2a
 80021da:	b29b      	uxth	r3, r3
 80021dc:	3b01      	subs	r3, #1
 80021de:	b29b      	uxth	r3, r3
 80021e0:	8543      	strh	r3, [r0, #42]	; 0x2a
    (*hi2c->pBuffPtr++) = hi2c->Instance->DR;
 80021e2:	6a43      	ldr	r3, [r0, #36]	; 0x24
 80021e4:	1c5a      	adds	r2, r3, #1
 80021e6:	6242      	str	r2, [r0, #36]	; 0x24
 80021e8:	6802      	ldr	r2, [r0, #0]
 80021ea:	6912      	ldr	r2, [r2, #16]
 80021ec:	701a      	strb	r2, [r3, #0]
    hi2c->XferCount--;
 80021ee:	8d43      	ldrh	r3, [r0, #42]	; 0x2a
 80021f0:	b29b      	uxth	r3, r3
 80021f2:	3b01      	subs	r3, #1
 80021f4:	b29b      	uxth	r3, r3
 80021f6:	8543      	strh	r3, [r0, #42]	; 0x2a
    __HAL_I2C_DISABLE_IT(hi2c, I2C_IT_EVT | I2C_IT_ERR);
 80021f8:	6802      	ldr	r2, [r0, #0]
 80021fa:	6853      	ldr	r3, [r2, #4]
 80021fc:	f423 7340 	bic.w	r3, r3, #768	; 0x300
 8002200:	6053      	str	r3, [r2, #4]
    hi2c->State = HAL_I2C_STATE_READY;
 8002202:	2320      	movs	r3, #32
 8002204:	f880 303d 	strb.w	r3, [r0, #61]	; 0x3d
    hi2c->PreviousState = I2C_STATE_NONE;
 8002208:	2300      	movs	r3, #0
 800220a:	6303      	str	r3, [r0, #48]	; 0x30
    if(hi2c->Mode == HAL_I2C_MODE_MEM)
 800220c:	f890 303e 	ldrb.w	r3, [r0, #62]	; 0x3e
 8002210:	b2db      	uxtb	r3, r3
 8002212:	2b40      	cmp	r3, #64	; 0x40
 8002214:	d010      	beq.n	8002238 <I2C_MasterReceive_BTF+0x100>
      hi2c->Mode = HAL_I2C_MODE_NONE;
 8002216:	2300      	movs	r3, #0
 8002218:	f880 303e 	strb.w	r3, [r0, #62]	; 0x3e
      HAL_I2C_MasterRxCpltCallback(hi2c);
 800221c:	f002 ffb8 	bl	8005190 <HAL_I2C_MasterRxCpltCallback>
 8002220:	e7a3      	b.n	800216a <I2C_MasterReceive_BTF+0x32>
      hi2c->Instance->CR1 &= ~I2C_CR1_ACK;
 8002222:	6802      	ldr	r2, [r0, #0]
 8002224:	6813      	ldr	r3, [r2, #0]
 8002226:	f423 6380 	bic.w	r3, r3, #1024	; 0x400
 800222a:	6013      	str	r3, [r2, #0]
      hi2c->Instance->CR1 |= I2C_CR1_START;
 800222c:	6802      	ldr	r2, [r0, #0]
 800222e:	6813      	ldr	r3, [r2, #0]
 8002230:	f443 7380 	orr.w	r3, r3, #256	; 0x100
 8002234:	6013      	str	r3, [r2, #0]
 8002236:	e7c9      	b.n	80021cc <I2C_MasterReceive_BTF+0x94>
      hi2c->Mode = HAL_I2C_MODE_NONE;
 8002238:	2300      	movs	r3, #0
 800223a:	f880 303e 	strb.w	r3, [r0, #62]	; 0x3e
      HAL_I2C_MemRxCpltCallback(hi2c);
 800223e:	f7ff ff2c 	bl	800209a <HAL_I2C_MemRxCpltCallback>
 8002242:	e792      	b.n	800216a <I2C_MasterReceive_BTF+0x32>

08002244 <HAL_I2C_ErrorCallback>:
{
 8002244:	4770      	bx	lr

08002246 <HAL_I2C_AbortCpltCallback>:
{
 8002246:	4770      	bx	lr

08002248 <I2C_ITError>:
  * @brief  I2C interrupts error process
  * @param  hi2c I2C handle.
  * @retval None
  */
static void I2C_ITError(I2C_HandleTypeDef *hi2c)
{
 8002248:	b510      	push	{r4, lr}
 800224a:	4604      	mov	r4, r0
  /* Declaration of temporary variable to prevent undefined behavior of volatile usage */
  uint32_t CurrentState = hi2c->State;
 800224c:	f890 303d 	ldrb.w	r3, [r0, #61]	; 0x3d

  if((CurrentState == HAL_I2C_STATE_BUSY_TX_LISTEN) || (CurrentState == HAL_I2C_STATE_BUSY_RX_LISTEN))
 8002250:	3b29      	subs	r3, #41	; 0x29
 8002252:	2b01      	cmp	r3, #1
 8002254:	d937      	bls.n	80022c6 <I2C_ITError+0x7e>
  }
  else
  {
    /* If state is an abort treatment on going, don't change state */
    /* This change will be do later */
    if((hi2c->State != HAL_I2C_STATE_ABORT) && ((hi2c->Instance->CR2 & I2C_CR2_DMAEN) != I2C_CR2_DMAEN))
 8002256:	f890 303d 	ldrb.w	r3, [r0, #61]	; 0x3d
 800225a:	b2db      	uxtb	r3, r3
 800225c:	2b60      	cmp	r3, #96	; 0x60
 800225e:	d007      	beq.n	8002270 <I2C_ITError+0x28>
 8002260:	6803      	ldr	r3, [r0, #0]
 8002262:	685b      	ldr	r3, [r3, #4]
 8002264:	f413 6f00 	tst.w	r3, #2048	; 0x800
 8002268:	d102      	bne.n	8002270 <I2C_ITError+0x28>
    {
      hi2c->State = HAL_I2C_STATE_READY;
 800226a:	2320      	movs	r3, #32
 800226c:	f880 303d 	strb.w	r3, [r0, #61]	; 0x3d
    }
    hi2c->PreviousState = I2C_STATE_NONE;
 8002270:	2300      	movs	r3, #0
 8002272:	6323      	str	r3, [r4, #48]	; 0x30
    hi2c->Mode = HAL_I2C_MODE_NONE;
 8002274:	f884 303e 	strb.w	r3, [r4, #62]	; 0x3e
  }

  /* Disable Pos bit in I2C CR1 when error occurred in Master/Mem Receive IT Process */
  hi2c->Instance->CR1 &= ~I2C_CR1_POS;
 8002278:	6822      	ldr	r2, [r4, #0]
 800227a:	6813      	ldr	r3, [r2, #0]
 800227c:	f423 6300 	bic.w	r3, r3, #2048	; 0x800
 8002280:	6013      	str	r3, [r2, #0]

  /* Abort DMA transfer */
  if((hi2c->Instance->CR2 & I2C_CR2_DMAEN) == I2C_CR2_DMAEN)
 8002282:	6823      	ldr	r3, [r4, #0]
 8002284:	685a      	ldr	r2, [r3, #4]
 8002286:	f412 6f00 	tst.w	r2, #2048	; 0x800
 800228a:	d03f      	beq.n	800230c <I2C_ITError+0xc4>
  {
    hi2c->Instance->CR2 &= ~I2C_CR2_DMAEN;
 800228c:	685a      	ldr	r2, [r3, #4]
 800228e:	f422 6200 	bic.w	r2, r2, #2048	; 0x800
 8002292:	605a      	str	r2, [r3, #4]

    if(hi2c->hdmatx->State != HAL_DMA_STATE_READY)
 8002294:	6b62      	ldr	r2, [r4, #52]	; 0x34
 8002296:	f892 3035 	ldrb.w	r3, [r2, #53]	; 0x35
 800229a:	b2db      	uxtb	r3, r3
 800229c:	2b01      	cmp	r3, #1
 800229e:	d018      	beq.n	80022d2 <I2C_ITError+0x8a>
    {
      /* Set the DMA Abort callback : 
      will lead to call HAL_I2C_ErrorCallback() at end of DMA abort procedure */
      hi2c->hdmatx->XferAbortCallback = I2C_DMAAbort;
 80022a0:	4b3a      	ldr	r3, [pc, #232]	; (800238c <I2C_ITError+0x144>)
 80022a2:	6513      	str	r3, [r2, #80]	; 0x50

      if(HAL_DMA_Abort_IT(hi2c->hdmatx) != HAL_OK)
 80022a4:	6b60      	ldr	r0, [r4, #52]	; 0x34
 80022a6:	f7ff f985 	bl	80015b4 <HAL_DMA_Abort_IT>
 80022aa:	2800      	cmp	r0, #0
 80022ac:	d03f      	beq.n	800232e <I2C_ITError+0xe6>
      {
        /* Disable I2C peripheral to prevent dummy data in buffer */
        __HAL_I2C_DISABLE(hi2c);
 80022ae:	6822      	ldr	r2, [r4, #0]
 80022b0:	6813      	ldr	r3, [r2, #0]
 80022b2:	f023 0301 	bic.w	r3, r3, #1
 80022b6:	6013      	str	r3, [r2, #0]

        hi2c->State = HAL_I2C_STATE_READY;
 80022b8:	2320      	movs	r3, #32
 80022ba:	f884 303d 	strb.w	r3, [r4, #61]	; 0x3d

        /* Call Directly XferAbortCallback function in case of error */
        hi2c->hdmatx->XferAbortCallback(hi2c->hdmatx);
 80022be:	6b60      	ldr	r0, [r4, #52]	; 0x34
 80022c0:	6d03      	ldr	r3, [r0, #80]	; 0x50
 80022c2:	4798      	blx	r3
 80022c4:	e033      	b.n	800232e <I2C_ITError+0xe6>
    hi2c->PreviousState = I2C_STATE_NONE;
 80022c6:	2300      	movs	r3, #0
 80022c8:	6303      	str	r3, [r0, #48]	; 0x30
    hi2c->State = HAL_I2C_STATE_LISTEN;
 80022ca:	2328      	movs	r3, #40	; 0x28
 80022cc:	f880 303d 	strb.w	r3, [r0, #61]	; 0x3d
 80022d0:	e7d2      	b.n	8002278 <I2C_ITError+0x30>
    }
    else
    {
      /* Set the DMA Abort callback : 
      will lead to call HAL_I2C_ErrorCallback() at end of DMA abort procedure */
      hi2c->hdmarx->XferAbortCallback = I2C_DMAAbort;
 80022d2:	6ba3      	ldr	r3, [r4, #56]	; 0x38
 80022d4:	4a2d      	ldr	r2, [pc, #180]	; (800238c <I2C_ITError+0x144>)
 80022d6:	651a      	str	r2, [r3, #80]	; 0x50

      if(HAL_DMA_Abort_IT(hi2c->hdmarx) != HAL_OK)
 80022d8:	6ba0      	ldr	r0, [r4, #56]	; 0x38
 80022da:	f7ff f96b 	bl	80015b4 <HAL_DMA_Abort_IT>
 80022de:	b330      	cbz	r0, 800232e <I2C_ITError+0xe6>
      {
        /* Store Last receive data if any */
        if(__HAL_I2C_GET_FLAG(hi2c, I2C_FLAG_RXNE) == SET)
 80022e0:	6823      	ldr	r3, [r4, #0]
 80022e2:	695a      	ldr	r2, [r3, #20]
 80022e4:	f012 0f40 	tst.w	r2, #64	; 0x40
 80022e8:	d004      	beq.n	80022f4 <I2C_ITError+0xac>
        {
          /* Read data from DR */
          (*hi2c->pBuffPtr++) = hi2c->Instance->DR;
 80022ea:	6a62      	ldr	r2, [r4, #36]	; 0x24
 80022ec:	1c51      	adds	r1, r2, #1
 80022ee:	6261      	str	r1, [r4, #36]	; 0x24
 80022f0:	691b      	ldr	r3, [r3, #16]
 80022f2:	7013      	strb	r3, [r2, #0]
        }

        /* Disable I2C peripheral to prevent dummy data in buffer */
        __HAL_I2C_DISABLE(hi2c);
 80022f4:	6822      	ldr	r2, [r4, #0]
 80022f6:	6813      	ldr	r3, [r2, #0]
 80022f8:	f023 0301 	bic.w	r3, r3, #1
 80022fc:	6013      	str	r3, [r2, #0]

        hi2c->State = HAL_I2C_STATE_READY;
 80022fe:	2320      	movs	r3, #32
 8002300:	f884 303d 	strb.w	r3, [r4, #61]	; 0x3d

        /* Call Directly hi2c->hdmarx->XferAbortCallback function in case of error */
        hi2c->hdmarx->XferAbortCallback(hi2c->hdmarx);
 8002304:	6ba0      	ldr	r0, [r4, #56]	; 0x38
 8002306:	6d03      	ldr	r3, [r0, #80]	; 0x50
 8002308:	4798      	blx	r3
 800230a:	e010      	b.n	800232e <I2C_ITError+0xe6>
      }
    }
  }
  else if(hi2c->State == HAL_I2C_STATE_ABORT)
 800230c:	f894 203d 	ldrb.w	r2, [r4, #61]	; 0x3d
 8002310:	b2d2      	uxtb	r2, r2
 8002312:	2a60      	cmp	r2, #96	; 0x60
 8002314:	d011      	beq.n	800233a <I2C_ITError+0xf2>
    HAL_I2C_AbortCpltCallback(hi2c);
  }
  else
  {
    /* Store Last receive data if any */
    if(__HAL_I2C_GET_FLAG(hi2c, I2C_FLAG_RXNE) == SET)
 8002316:	695a      	ldr	r2, [r3, #20]
 8002318:	f012 0f40 	tst.w	r2, #64	; 0x40
 800231c:	d004      	beq.n	8002328 <I2C_ITError+0xe0>
    {
      /* Read data from DR */
      (*hi2c->pBuffPtr++) = hi2c->Instance->DR;
 800231e:	6a62      	ldr	r2, [r4, #36]	; 0x24
 8002320:	1c51      	adds	r1, r2, #1
 8002322:	6261      	str	r1, [r4, #36]	; 0x24
 8002324:	691b      	ldr	r3, [r3, #16]
 8002326:	7013      	strb	r3, [r2, #0]
    }

    /* Call user error callback */
    HAL_I2C_ErrorCallback(hi2c);
 8002328:	4620      	mov	r0, r4
 800232a:	f7ff ff8b 	bl	8002244 <HAL_I2C_ErrorCallback>
  }
  /* STOP Flag is not set after a NACK reception */
  /* So may inform upper layer that listen phase is stopped */
  /* during NACK error treatment */
  if((hi2c->State == HAL_I2C_STATE_LISTEN) && ((hi2c->ErrorCode & HAL_I2C_ERROR_AF) == HAL_I2C_ERROR_AF))
 800232e:	f894 303d 	ldrb.w	r3, [r4, #61]	; 0x3d
 8002332:	b2db      	uxtb	r3, r3
 8002334:	2b28      	cmp	r3, #40	; 0x28
 8002336:	d017      	beq.n	8002368 <I2C_ITError+0x120>
 8002338:	bd10      	pop	{r4, pc}
    hi2c->State = HAL_I2C_STATE_READY;
 800233a:	2220      	movs	r2, #32
 800233c:	f884 203d 	strb.w	r2, [r4, #61]	; 0x3d
    hi2c->ErrorCode = HAL_I2C_ERROR_NONE;
 8002340:	2200      	movs	r2, #0
 8002342:	6422      	str	r2, [r4, #64]	; 0x40
    if(__HAL_I2C_GET_FLAG(hi2c, I2C_FLAG_RXNE) == SET)
 8002344:	695a      	ldr	r2, [r3, #20]
 8002346:	f012 0f40 	tst.w	r2, #64	; 0x40
 800234a:	d004      	beq.n	8002356 <I2C_ITError+0x10e>
      (*hi2c->pBuffPtr++) = hi2c->Instance->DR;
 800234c:	6a62      	ldr	r2, [r4, #36]	; 0x24
 800234e:	1c51      	adds	r1, r2, #1
 8002350:	6261      	str	r1, [r4, #36]	; 0x24
 8002352:	691b      	ldr	r3, [r3, #16]
 8002354:	7013      	strb	r3, [r2, #0]
    __HAL_I2C_DISABLE(hi2c);
 8002356:	6822      	ldr	r2, [r4, #0]
 8002358:	6813      	ldr	r3, [r2, #0]
 800235a:	f023 0301 	bic.w	r3, r3, #1
 800235e:	6013      	str	r3, [r2, #0]
    HAL_I2C_AbortCpltCallback(hi2c);
 8002360:	4620      	mov	r0, r4
 8002362:	f7ff ff70 	bl	8002246 <HAL_I2C_AbortCpltCallback>
 8002366:	e7e2      	b.n	800232e <I2C_ITError+0xe6>
  if((hi2c->State == HAL_I2C_STATE_LISTEN) && ((hi2c->ErrorCode & HAL_I2C_ERROR_AF) == HAL_I2C_ERROR_AF))
 8002368:	6c23      	ldr	r3, [r4, #64]	; 0x40
 800236a:	f013 0f04 	tst.w	r3, #4
 800236e:	d0e3      	beq.n	8002338 <I2C_ITError+0xf0>
  {
    hi2c->XferOptions = I2C_NO_OPTION_FRAME;
 8002370:	4b07      	ldr	r3, [pc, #28]	; (8002390 <I2C_ITError+0x148>)
 8002372:	62e3      	str	r3, [r4, #44]	; 0x2c
    hi2c->PreviousState = I2C_STATE_NONE;
 8002374:	2300      	movs	r3, #0
 8002376:	6323      	str	r3, [r4, #48]	; 0x30
    hi2c->State = HAL_I2C_STATE_READY;
 8002378:	2220      	movs	r2, #32
 800237a:	f884 203d 	strb.w	r2, [r4, #61]	; 0x3d
    hi2c->Mode = HAL_I2C_MODE_NONE;
 800237e:	f884 303e 	strb.w	r3, [r4, #62]	; 0x3e
    
    /* Call the Listen Complete callback, to inform upper layer of the end of Listen usecase */
    HAL_I2C_ListenCpltCallback(hi2c);
 8002382:	4620      	mov	r0, r4
 8002384:	f7ff fd49 	bl	8001e1a <HAL_I2C_ListenCpltCallback>
  }
}
 8002388:	e7d6      	b.n	8002338 <I2C_ITError+0xf0>
 800238a:	bf00      	nop
 800238c:	080026d5 	.word	0x080026d5
 8002390:	ffff0000 	.word	0xffff0000

08002394 <I2C_Slave_STOPF>:
{
 8002394:	b510      	push	{r4, lr}
 8002396:	b082      	sub	sp, #8
  uint32_t CurrentState = hi2c->State;
 8002398:	f890 303d 	ldrb.w	r3, [r0, #61]	; 0x3d
 800239c:	b2db      	uxtb	r3, r3
  __HAL_I2C_DISABLE_IT(hi2c, I2C_IT_EVT | I2C_IT_BUF | I2C_IT_ERR);
 800239e:	6801      	ldr	r1, [r0, #0]
 80023a0:	684a      	ldr	r2, [r1, #4]
 80023a2:	f422 62e0 	bic.w	r2, r2, #1792	; 0x700
 80023a6:	604a      	str	r2, [r1, #4]
  __HAL_I2C_CLEAR_STOPFLAG(hi2c);
 80023a8:	2200      	movs	r2, #0
 80023aa:	9201      	str	r2, [sp, #4]
 80023ac:	6802      	ldr	r2, [r0, #0]
 80023ae:	6951      	ldr	r1, [r2, #20]
 80023b0:	9101      	str	r1, [sp, #4]
 80023b2:	6811      	ldr	r1, [r2, #0]
 80023b4:	f041 0101 	orr.w	r1, r1, #1
 80023b8:	6011      	str	r1, [r2, #0]
 80023ba:	9a01      	ldr	r2, [sp, #4]
  hi2c->Instance->CR1 &= ~I2C_CR1_ACK;
 80023bc:	6801      	ldr	r1, [r0, #0]
 80023be:	680a      	ldr	r2, [r1, #0]
 80023c0:	f422 6280 	bic.w	r2, r2, #1024	; 0x400
 80023c4:	600a      	str	r2, [r1, #0]
  if((hi2c->Instance->CR2 & I2C_CR2_DMAEN) == I2C_CR2_DMAEN)
 80023c6:	6801      	ldr	r1, [r0, #0]
 80023c8:	684a      	ldr	r2, [r1, #4]
 80023ca:	f412 6f00 	tst.w	r2, #2048	; 0x800
 80023ce:	d00e      	beq.n	80023ee <I2C_Slave_STOPF+0x5a>
    if((hi2c->State == HAL_I2C_STATE_BUSY_RX) || (hi2c->State == HAL_I2C_STATE_BUSY_RX_LISTEN))
 80023d0:	f890 203d 	ldrb.w	r2, [r0, #61]	; 0x3d
 80023d4:	b2d2      	uxtb	r2, r2
 80023d6:	2a22      	cmp	r2, #34	; 0x22
 80023d8:	d044      	beq.n	8002464 <I2C_Slave_STOPF+0xd0>
 80023da:	f890 203d 	ldrb.w	r2, [r0, #61]	; 0x3d
 80023de:	b2d2      	uxtb	r2, r2
 80023e0:	2a2a      	cmp	r2, #42	; 0x2a
 80023e2:	d03f      	beq.n	8002464 <I2C_Slave_STOPF+0xd0>
      hi2c->XferCount = __HAL_DMA_GET_COUNTER(hi2c->hdmatx);
 80023e4:	6b42      	ldr	r2, [r0, #52]	; 0x34
 80023e6:	6812      	ldr	r2, [r2, #0]
 80023e8:	6852      	ldr	r2, [r2, #4]
 80023ea:	b292      	uxth	r2, r2
 80023ec:	8542      	strh	r2, [r0, #42]	; 0x2a
  if(hi2c->XferCount != 0U)
 80023ee:	8d42      	ldrh	r2, [r0, #42]	; 0x2a
 80023f0:	b292      	uxth	r2, r2
 80023f2:	b302      	cbz	r2, 8002436 <I2C_Slave_STOPF+0xa2>
    if(__HAL_I2C_GET_FLAG(hi2c, I2C_FLAG_BTF) == SET)
 80023f4:	694a      	ldr	r2, [r1, #20]
 80023f6:	f012 0f04 	tst.w	r2, #4
 80023fa:	d009      	beq.n	8002410 <I2C_Slave_STOPF+0x7c>
      (*hi2c->pBuffPtr++) = hi2c->Instance->DR;
 80023fc:	6a42      	ldr	r2, [r0, #36]	; 0x24
 80023fe:	1c54      	adds	r4, r2, #1
 8002400:	6244      	str	r4, [r0, #36]	; 0x24
 8002402:	6909      	ldr	r1, [r1, #16]
 8002404:	7011      	strb	r1, [r2, #0]
      hi2c->XferCount--;
 8002406:	8d42      	ldrh	r2, [r0, #42]	; 0x2a
 8002408:	b292      	uxth	r2, r2
 800240a:	3a01      	subs	r2, #1
 800240c:	b292      	uxth	r2, r2
 800240e:	8542      	strh	r2, [r0, #42]	; 0x2a
    if(__HAL_I2C_GET_FLAG(hi2c, I2C_FLAG_RXNE) == SET)
 8002410:	6802      	ldr	r2, [r0, #0]
 8002412:	6951      	ldr	r1, [r2, #20]
 8002414:	f011 0f40 	tst.w	r1, #64	; 0x40
 8002418:	d009      	beq.n	800242e <I2C_Slave_STOPF+0x9a>
      (*hi2c->pBuffPtr++) = hi2c->Instance->DR;
 800241a:	6a41      	ldr	r1, [r0, #36]	; 0x24
 800241c:	1c4c      	adds	r4, r1, #1
 800241e:	6244      	str	r4, [r0, #36]	; 0x24
 8002420:	6912      	ldr	r2, [r2, #16]
 8002422:	700a      	strb	r2, [r1, #0]
      hi2c->XferCount--;
 8002424:	8d42      	ldrh	r2, [r0, #42]	; 0x2a
 8002426:	b292      	uxth	r2, r2
 8002428:	3a01      	subs	r2, #1
 800242a:	b292      	uxth	r2, r2
 800242c:	8542      	strh	r2, [r0, #42]	; 0x2a
    hi2c->ErrorCode |= HAL_I2C_ERROR_AF;
 800242e:	6c02      	ldr	r2, [r0, #64]	; 0x40
 8002430:	f042 0204 	orr.w	r2, r2, #4
 8002434:	6402      	str	r2, [r0, #64]	; 0x40
  if(hi2c->ErrorCode != HAL_I2C_ERROR_NONE)
 8002436:	6c02      	ldr	r2, [r0, #64]	; 0x40
 8002438:	b9d2      	cbnz	r2, 8002470 <I2C_Slave_STOPF+0xdc>
    if((CurrentState == HAL_I2C_STATE_LISTEN ) || (CurrentState == HAL_I2C_STATE_BUSY_RX_LISTEN) || \
 800243a:	2b28      	cmp	r3, #40	; 0x28
 800243c:	d01b      	beq.n	8002476 <I2C_Slave_STOPF+0xe2>
 800243e:	2b2a      	cmp	r3, #42	; 0x2a
 8002440:	d019      	beq.n	8002476 <I2C_Slave_STOPF+0xe2>
 8002442:	2b29      	cmp	r3, #41	; 0x29
 8002444:	d017      	beq.n	8002476 <I2C_Slave_STOPF+0xe2>
      if((hi2c->PreviousState  == I2C_STATE_SLAVE_BUSY_RX) || (CurrentState == HAL_I2C_STATE_BUSY_RX))
 8002446:	6b02      	ldr	r2, [r0, #48]	; 0x30
 8002448:	2a22      	cmp	r2, #34	; 0x22
 800244a:	d001      	beq.n	8002450 <I2C_Slave_STOPF+0xbc>
 800244c:	2b22      	cmp	r3, #34	; 0x22
 800244e:	d11d      	bne.n	800248c <I2C_Slave_STOPF+0xf8>
        hi2c->PreviousState = I2C_STATE_NONE;
 8002450:	2300      	movs	r3, #0
 8002452:	6303      	str	r3, [r0, #48]	; 0x30
        hi2c->State = HAL_I2C_STATE_READY;
 8002454:	2220      	movs	r2, #32
 8002456:	f880 203d 	strb.w	r2, [r0, #61]	; 0x3d
        hi2c->Mode = HAL_I2C_MODE_NONE;
 800245a:	f880 303e 	strb.w	r3, [r0, #62]	; 0x3e
        HAL_I2C_SlaveRxCpltCallback(hi2c);
 800245e:	f002 feb1 	bl	80051c4 <HAL_I2C_SlaveRxCpltCallback>
 8002462:	e013      	b.n	800248c <I2C_Slave_STOPF+0xf8>
      hi2c->XferCount = __HAL_DMA_GET_COUNTER(hi2c->hdmarx);
 8002464:	6b82      	ldr	r2, [r0, #56]	; 0x38
 8002466:	6812      	ldr	r2, [r2, #0]
 8002468:	6852      	ldr	r2, [r2, #4]
 800246a:	b292      	uxth	r2, r2
 800246c:	8542      	strh	r2, [r0, #42]	; 0x2a
 800246e:	e7be      	b.n	80023ee <I2C_Slave_STOPF+0x5a>
    I2C_ITError(hi2c);
 8002470:	f7ff feea 	bl	8002248 <I2C_ITError>
 8002474:	e00a      	b.n	800248c <I2C_Slave_STOPF+0xf8>
      hi2c->XferOptions = I2C_NO_OPTION_FRAME;
 8002476:	4b07      	ldr	r3, [pc, #28]	; (8002494 <I2C_Slave_STOPF+0x100>)
 8002478:	62c3      	str	r3, [r0, #44]	; 0x2c
      hi2c->PreviousState = I2C_STATE_NONE;
 800247a:	2300      	movs	r3, #0
 800247c:	6303      	str	r3, [r0, #48]	; 0x30
      hi2c->State = HAL_I2C_STATE_READY;
 800247e:	2220      	movs	r2, #32
 8002480:	f880 203d 	strb.w	r2, [r0, #61]	; 0x3d
      hi2c->Mode = HAL_I2C_MODE_NONE;
 8002484:	f880 303e 	strb.w	r3, [r0, #62]	; 0x3e
      HAL_I2C_ListenCpltCallback(hi2c);
 8002488:	f7ff fcc7 	bl	8001e1a <HAL_I2C_ListenCpltCallback>
}
 800248c:	2000      	movs	r0, #0
 800248e:	b002      	add	sp, #8
 8002490:	bd10      	pop	{r4, pc}
 8002492:	bf00      	nop
 8002494:	ffff0000 	.word	0xffff0000

08002498 <HAL_I2C_EV_IRQHandler>:
{
 8002498:	b5f8      	push	{r3, r4, r5, r6, r7, lr}
 800249a:	4605      	mov	r5, r0
  uint32_t sr2itflags   = READ_REG(hi2c->Instance->SR2);
 800249c:	6803      	ldr	r3, [r0, #0]
 800249e:	699f      	ldr	r7, [r3, #24]
  uint32_t sr1itflags   = READ_REG(hi2c->Instance->SR1);
 80024a0:	695c      	ldr	r4, [r3, #20]
  uint32_t itsources    = READ_REG(hi2c->Instance->CR2);
 80024a2:	685e      	ldr	r6, [r3, #4]
  uint32_t CurrentMode  = hi2c->Mode;
 80024a4:	f890 303e 	ldrb.w	r3, [r0, #62]	; 0x3e
 80024a8:	b2db      	uxtb	r3, r3
  if((CurrentMode == HAL_I2C_MODE_MASTER) || (CurrentMode == HAL_I2C_MODE_MEM))
 80024aa:	2b10      	cmp	r3, #16
 80024ac:	d025      	beq.n	80024fa <HAL_I2C_EV_IRQHandler+0x62>
 80024ae:	2b40      	cmp	r3, #64	; 0x40
 80024b0:	d023      	beq.n	80024fa <HAL_I2C_EV_IRQHandler+0x62>
    if(((sr1itflags & I2C_FLAG_ADDR) != RESET) && ((itsources & I2C_IT_EVT) != RESET))
 80024b2:	4b4c      	ldr	r3, [pc, #304]	; (80025e4 <HAL_I2C_EV_IRQHandler+0x14c>)
 80024b4:	4023      	ands	r3, r4
 80024b6:	b113      	cbz	r3, 80024be <HAL_I2C_EV_IRQHandler+0x26>
 80024b8:	f416 7f00 	tst.w	r6, #512	; 0x200
 80024bc:	d16e      	bne.n	800259c <HAL_I2C_EV_IRQHandler+0x104>
    else if(((sr1itflags & I2C_FLAG_STOPF) != RESET) && ((itsources & I2C_IT_EVT) != RESET))
 80024be:	4b4a      	ldr	r3, [pc, #296]	; (80025e8 <HAL_I2C_EV_IRQHandler+0x150>)
 80024c0:	4023      	ands	r3, r4
 80024c2:	b113      	cbz	r3, 80024ca <HAL_I2C_EV_IRQHandler+0x32>
 80024c4:	f416 7f00 	tst.w	r6, #512	; 0x200
 80024c8:	d16b      	bne.n	80025a2 <HAL_I2C_EV_IRQHandler+0x10a>
    else if((sr2itflags & I2C_FLAG_TRA) != RESET)
 80024ca:	4b48      	ldr	r3, [pc, #288]	; (80025ec <HAL_I2C_EV_IRQHandler+0x154>)
 80024cc:	403b      	ands	r3, r7
 80024ce:	2b00      	cmp	r3, #0
 80024d0:	d06f      	beq.n	80025b2 <HAL_I2C_EV_IRQHandler+0x11a>
      if(((sr1itflags & I2C_FLAG_TXE) != RESET) && ((itsources & I2C_IT_BUF) != RESET) && ((sr1itflags & I2C_FLAG_BTF) == RESET))
 80024d2:	4b47      	ldr	r3, [pc, #284]	; (80025f0 <HAL_I2C_EV_IRQHandler+0x158>)
 80024d4:	4023      	ands	r3, r4
 80024d6:	b133      	cbz	r3, 80024e6 <HAL_I2C_EV_IRQHandler+0x4e>
 80024d8:	f416 6f80 	tst.w	r6, #1024	; 0x400
 80024dc:	d003      	beq.n	80024e6 <HAL_I2C_EV_IRQHandler+0x4e>
 80024de:	4b45      	ldr	r3, [pc, #276]	; (80025f4 <HAL_I2C_EV_IRQHandler+0x15c>)
 80024e0:	4023      	ands	r3, r4
 80024e2:	2b00      	cmp	r3, #0
 80024e4:	d061      	beq.n	80025aa <HAL_I2C_EV_IRQHandler+0x112>
      else if(((sr1itflags & I2C_FLAG_BTF) != RESET) && ((itsources & I2C_IT_EVT) != RESET))
 80024e6:	4b43      	ldr	r3, [pc, #268]	; (80025f4 <HAL_I2C_EV_IRQHandler+0x15c>)
 80024e8:	4023      	ands	r3, r4
 80024ea:	b353      	cbz	r3, 8002542 <HAL_I2C_EV_IRQHandler+0xaa>
 80024ec:	f416 7f00 	tst.w	r6, #512	; 0x200
 80024f0:	d027      	beq.n	8002542 <HAL_I2C_EV_IRQHandler+0xaa>
        I2C_SlaveTransmit_BTF(hi2c);
 80024f2:	4628      	mov	r0, r5
 80024f4:	f7ff fb80 	bl	8001bf8 <I2C_SlaveTransmit_BTF>
 80024f8:	bdf8      	pop	{r3, r4, r5, r6, r7, pc}
    if(((sr1itflags & I2C_FLAG_SB) != RESET) && ((itsources & I2C_IT_EVT) != RESET))
 80024fa:	f014 1f01 	tst.w	r4, #65537	; 0x10001
 80024fe:	d002      	beq.n	8002506 <HAL_I2C_EV_IRQHandler+0x6e>
 8002500:	f416 7f00 	tst.w	r6, #512	; 0x200
 8002504:	d11e      	bne.n	8002544 <HAL_I2C_EV_IRQHandler+0xac>
    else if(((sr1itflags & I2C_FLAG_ADD10) != RESET) && ((itsources & I2C_IT_EVT) != RESET))
 8002506:	4b3c      	ldr	r3, [pc, #240]	; (80025f8 <HAL_I2C_EV_IRQHandler+0x160>)
 8002508:	4023      	ands	r3, r4
 800250a:	b113      	cbz	r3, 8002512 <HAL_I2C_EV_IRQHandler+0x7a>
 800250c:	f416 7f00 	tst.w	r6, #512	; 0x200
 8002510:	d11c      	bne.n	800254c <HAL_I2C_EV_IRQHandler+0xb4>
    else if(((sr1itflags & I2C_FLAG_ADDR) != RESET) && ((itsources & I2C_IT_EVT) != RESET))
 8002512:	4b34      	ldr	r3, [pc, #208]	; (80025e4 <HAL_I2C_EV_IRQHandler+0x14c>)
 8002514:	4023      	ands	r3, r4
 8002516:	b113      	cbz	r3, 800251e <HAL_I2C_EV_IRQHandler+0x86>
 8002518:	f416 7f00 	tst.w	r6, #512	; 0x200
 800251c:	d11a      	bne.n	8002554 <HAL_I2C_EV_IRQHandler+0xbc>
    if((sr2itflags & I2C_FLAG_TRA) != RESET)
 800251e:	4b33      	ldr	r3, [pc, #204]	; (80025ec <HAL_I2C_EV_IRQHandler+0x154>)
 8002520:	403b      	ands	r3, r7
 8002522:	b31b      	cbz	r3, 800256c <HAL_I2C_EV_IRQHandler+0xd4>
      if(((sr1itflags & I2C_FLAG_TXE) != RESET) && ((itsources & I2C_IT_BUF) != RESET) && ((sr1itflags & I2C_FLAG_BTF) == RESET))
 8002524:	4b32      	ldr	r3, [pc, #200]	; (80025f0 <HAL_I2C_EV_IRQHandler+0x158>)
 8002526:	4023      	ands	r3, r4
 8002528:	b12b      	cbz	r3, 8002536 <HAL_I2C_EV_IRQHandler+0x9e>
 800252a:	f416 6f80 	tst.w	r6, #1024	; 0x400
 800252e:	d002      	beq.n	8002536 <HAL_I2C_EV_IRQHandler+0x9e>
 8002530:	4b30      	ldr	r3, [pc, #192]	; (80025f4 <HAL_I2C_EV_IRQHandler+0x15c>)
 8002532:	4023      	ands	r3, r4
 8002534:	b193      	cbz	r3, 800255c <HAL_I2C_EV_IRQHandler+0xc4>
      else if(((sr1itflags & I2C_FLAG_BTF) != RESET) && ((itsources & I2C_IT_EVT) != RESET))
 8002536:	4b2f      	ldr	r3, [pc, #188]	; (80025f4 <HAL_I2C_EV_IRQHandler+0x15c>)
 8002538:	4023      	ands	r3, r4
 800253a:	b113      	cbz	r3, 8002542 <HAL_I2C_EV_IRQHandler+0xaa>
 800253c:	f416 7f00 	tst.w	r6, #512	; 0x200
 8002540:	d110      	bne.n	8002564 <HAL_I2C_EV_IRQHandler+0xcc>
 8002542:	bdf8      	pop	{r3, r4, r5, r6, r7, pc}
      I2C_Master_SB(hi2c);
 8002544:	4628      	mov	r0, r5
 8002546:	f7ff fa26 	bl	8001996 <I2C_Master_SB>
 800254a:	e7e8      	b.n	800251e <HAL_I2C_EV_IRQHandler+0x86>
      I2C_Master_ADD10(hi2c);
 800254c:	4628      	mov	r0, r5
 800254e:	f7ff fa67 	bl	8001a20 <I2C_Master_ADD10>
 8002552:	e7e4      	b.n	800251e <HAL_I2C_EV_IRQHandler+0x86>
      I2C_Master_ADDR(hi2c);
 8002554:	4628      	mov	r0, r5
 8002556:	f7ff fa69 	bl	8001a2c <I2C_Master_ADDR>
 800255a:	e7e0      	b.n	800251e <HAL_I2C_EV_IRQHandler+0x86>
        I2C_MasterTransmit_TXE(hi2c);
 800255c:	4628      	mov	r0, r5
 800255e:	f7ff fca8 	bl	8001eb2 <I2C_MasterTransmit_TXE>
 8002562:	bdf8      	pop	{r3, r4, r5, r6, r7, pc}
        I2C_MasterTransmit_BTF(hi2c);
 8002564:	4628      	mov	r0, r5
 8002566:	f7ff fd49 	bl	8001ffc <I2C_MasterTransmit_BTF>
 800256a:	bdf8      	pop	{r3, r4, r5, r6, r7, pc}
      if(((sr1itflags & I2C_FLAG_RXNE) != RESET) && ((itsources & I2C_IT_BUF) != RESET) && ((sr1itflags & I2C_FLAG_BTF) == RESET))
 800256c:	4b23      	ldr	r3, [pc, #140]	; (80025fc <HAL_I2C_EV_IRQHandler+0x164>)
 800256e:	4023      	ands	r3, r4
 8002570:	b12b      	cbz	r3, 800257e <HAL_I2C_EV_IRQHandler+0xe6>
 8002572:	f416 6f80 	tst.w	r6, #1024	; 0x400
 8002576:	d002      	beq.n	800257e <HAL_I2C_EV_IRQHandler+0xe6>
 8002578:	4b1e      	ldr	r3, [pc, #120]	; (80025f4 <HAL_I2C_EV_IRQHandler+0x15c>)
 800257a:	4023      	ands	r3, r4
 800257c:	b153      	cbz	r3, 8002594 <HAL_I2C_EV_IRQHandler+0xfc>
      else if(((sr1itflags & I2C_FLAG_BTF) != RESET) && ((itsources & I2C_IT_EVT) != RESET))
 800257e:	4b1d      	ldr	r3, [pc, #116]	; (80025f4 <HAL_I2C_EV_IRQHandler+0x15c>)
 8002580:	4023      	ands	r3, r4
 8002582:	2b00      	cmp	r3, #0
 8002584:	d0dd      	beq.n	8002542 <HAL_I2C_EV_IRQHandler+0xaa>
 8002586:	f416 7f00 	tst.w	r6, #512	; 0x200
 800258a:	d0da      	beq.n	8002542 <HAL_I2C_EV_IRQHandler+0xaa>
        I2C_MasterReceive_BTF(hi2c);
 800258c:	4628      	mov	r0, r5
 800258e:	f7ff fdd3 	bl	8002138 <I2C_MasterReceive_BTF>
 8002592:	bdf8      	pop	{r3, r4, r5, r6, r7, pc}
        I2C_MasterReceive_RXNE(hi2c);
 8002594:	4628      	mov	r0, r5
 8002596:	f7ff fd81 	bl	800209c <I2C_MasterReceive_RXNE>
 800259a:	bdf8      	pop	{r3, r4, r5, r6, r7, pc}
      I2C_Slave_ADDR(hi2c);
 800259c:	f7ff fc29 	bl	8001df2 <I2C_Slave_ADDR>
 80025a0:	bdf8      	pop	{r3, r4, r5, r6, r7, pc}
      I2C_Slave_STOPF(hi2c);
 80025a2:	4628      	mov	r0, r5
 80025a4:	f7ff fef6 	bl	8002394 <I2C_Slave_STOPF>
 80025a8:	bdf8      	pop	{r3, r4, r5, r6, r7, pc}
        I2C_SlaveTransmit_TXE(hi2c);
 80025aa:	4628      	mov	r0, r5
 80025ac:	f7ff fbd2 	bl	8001d54 <I2C_SlaveTransmit_TXE>
 80025b0:	bdf8      	pop	{r3, r4, r5, r6, r7, pc}
      if(((sr1itflags & I2C_FLAG_RXNE) != RESET) && ((itsources & I2C_IT_BUF) != RESET) && ((sr1itflags & I2C_FLAG_BTF) == RESET))
 80025b2:	4b12      	ldr	r3, [pc, #72]	; (80025fc <HAL_I2C_EV_IRQHandler+0x164>)
 80025b4:	4023      	ands	r3, r4
 80025b6:	b12b      	cbz	r3, 80025c4 <HAL_I2C_EV_IRQHandler+0x12c>
 80025b8:	f416 6f80 	tst.w	r6, #1024	; 0x400
 80025bc:	d002      	beq.n	80025c4 <HAL_I2C_EV_IRQHandler+0x12c>
 80025be:	4b0d      	ldr	r3, [pc, #52]	; (80025f4 <HAL_I2C_EV_IRQHandler+0x15c>)
 80025c0:	4023      	ands	r3, r4
 80025c2:	b153      	cbz	r3, 80025da <HAL_I2C_EV_IRQHandler+0x142>
      else if(((sr1itflags & I2C_FLAG_BTF) != RESET) && ((itsources & I2C_IT_EVT) != RESET))
 80025c4:	4b0b      	ldr	r3, [pc, #44]	; (80025f4 <HAL_I2C_EV_IRQHandler+0x15c>)
 80025c6:	4023      	ands	r3, r4
 80025c8:	2b00      	cmp	r3, #0
 80025ca:	d0ba      	beq.n	8002542 <HAL_I2C_EV_IRQHandler+0xaa>
 80025cc:	f416 7f00 	tst.w	r6, #512	; 0x200
 80025d0:	d0b7      	beq.n	8002542 <HAL_I2C_EV_IRQHandler+0xaa>
        I2C_SlaveReceive_BTF(hi2c);
 80025d2:	4628      	mov	r0, r5
 80025d4:	f7ff fb20 	bl	8001c18 <I2C_SlaveReceive_BTF>
}
 80025d8:	e7b3      	b.n	8002542 <HAL_I2C_EV_IRQHandler+0xaa>
        I2C_SlaveReceive_RXNE(hi2c);
 80025da:	4628      	mov	r0, r5
 80025dc:	f7ff fbe2 	bl	8001da4 <I2C_SlaveReceive_RXNE>
 80025e0:	bdf8      	pop	{r3, r4, r5, r6, r7, pc}
 80025e2:	bf00      	nop
 80025e4:	00010002 	.word	0x00010002
 80025e8:	00010010 	.word	0x00010010
 80025ec:	00100004 	.word	0x00100004
 80025f0:	00010080 	.word	0x00010080
 80025f4:	00010004 	.word	0x00010004
 80025f8:	00010008 	.word	0x00010008
 80025fc:	00010040 	.word	0x00010040

08002600 <HAL_I2C_ER_IRQHandler>:
{
 8002600:	b570      	push	{r4, r5, r6, lr}
 8002602:	4604      	mov	r4, r0
  uint32_t sr1itflags = READ_REG(hi2c->Instance->SR1);
 8002604:	6803      	ldr	r3, [r0, #0]
 8002606:	695d      	ldr	r5, [r3, #20]
  uint32_t itsources  = READ_REG(hi2c->Instance->CR2);
 8002608:	685e      	ldr	r6, [r3, #4]
  if(((sr1itflags & I2C_FLAG_BERR) != RESET) && ((itsources & I2C_IT_ERR) != RESET))
 800260a:	4a31      	ldr	r2, [pc, #196]	; (80026d0 <HAL_I2C_ER_IRQHandler+0xd0>)
 800260c:	4215      	tst	r5, r2
 800260e:	d009      	beq.n	8002624 <HAL_I2C_ER_IRQHandler+0x24>
 8002610:	f416 7f80 	tst.w	r6, #256	; 0x100
 8002614:	d006      	beq.n	8002624 <HAL_I2C_ER_IRQHandler+0x24>
    hi2c->ErrorCode |= HAL_I2C_ERROR_BERR;
 8002616:	6c02      	ldr	r2, [r0, #64]	; 0x40
 8002618:	f042 0201 	orr.w	r2, r2, #1
 800261c:	6402      	str	r2, [r0, #64]	; 0x40
    __HAL_I2C_CLEAR_FLAG(hi2c, I2C_FLAG_BERR);
 800261e:	f46f 7280 	mvn.w	r2, #256	; 0x100
 8002622:	615a      	str	r2, [r3, #20]
  if(((sr1itflags & I2C_FLAG_ARLO) != RESET) && ((itsources & I2C_IT_ERR) != RESET))
 8002624:	f415 3f81 	tst.w	r5, #66048	; 0x10200
 8002628:	d00a      	beq.n	8002640 <HAL_I2C_ER_IRQHandler+0x40>
 800262a:	f416 7f80 	tst.w	r6, #256	; 0x100
 800262e:	d007      	beq.n	8002640 <HAL_I2C_ER_IRQHandler+0x40>
    hi2c->ErrorCode |= HAL_I2C_ERROR_ARLO;
 8002630:	6c23      	ldr	r3, [r4, #64]	; 0x40
 8002632:	f043 0302 	orr.w	r3, r3, #2
 8002636:	6423      	str	r3, [r4, #64]	; 0x40
    __HAL_I2C_CLEAR_FLAG(hi2c, I2C_FLAG_ARLO);
 8002638:	6823      	ldr	r3, [r4, #0]
 800263a:	f46f 7200 	mvn.w	r2, #512	; 0x200
 800263e:	615a      	str	r2, [r3, #20]
  if(((sr1itflags & I2C_FLAG_AF) != RESET) && ((itsources & I2C_IT_ERR) != RESET))
 8002640:	f415 3f82 	tst.w	r5, #66560	; 0x10400
 8002644:	d01a      	beq.n	800267c <HAL_I2C_ER_IRQHandler+0x7c>
 8002646:	f416 7f80 	tst.w	r6, #256	; 0x100
 800264a:	d017      	beq.n	800267c <HAL_I2C_ER_IRQHandler+0x7c>
    tmp1 = hi2c->Mode;
 800264c:	f894 303e 	ldrb.w	r3, [r4, #62]	; 0x3e
 8002650:	b2db      	uxtb	r3, r3
    tmp2 = hi2c->XferCount;
 8002652:	8d62      	ldrh	r2, [r4, #42]	; 0x2a
 8002654:	b291      	uxth	r1, r2
    tmp3 = hi2c->State;
 8002656:	f894 203d 	ldrb.w	r2, [r4, #61]	; 0x3d
 800265a:	b2d2      	uxtb	r2, r2
    tmp4 = hi2c->PreviousState;
 800265c:	6b20      	ldr	r0, [r4, #48]	; 0x30
    if((tmp1 == HAL_I2C_MODE_SLAVE) && (tmp2 == 0U) && \
 800265e:	2b20      	cmp	r3, #32
 8002660:	d01d      	beq.n	800269e <HAL_I2C_ER_IRQHandler+0x9e>
      hi2c->ErrorCode |= HAL_I2C_ERROR_AF;
 8002662:	6c23      	ldr	r3, [r4, #64]	; 0x40
 8002664:	f043 0304 	orr.w	r3, r3, #4
 8002668:	6423      	str	r3, [r4, #64]	; 0x40
      if(hi2c->Mode == HAL_I2C_MODE_MASTER)
 800266a:	f894 303e 	ldrb.w	r3, [r4, #62]	; 0x3e
 800266e:	b2db      	uxtb	r3, r3
 8002670:	2b10      	cmp	r3, #16
 8002672:	d022      	beq.n	80026ba <HAL_I2C_ER_IRQHandler+0xba>
      __HAL_I2C_CLEAR_FLAG(hi2c, I2C_FLAG_AF);
 8002674:	6823      	ldr	r3, [r4, #0]
 8002676:	f46f 6280 	mvn.w	r2, #1024	; 0x400
 800267a:	615a      	str	r2, [r3, #20]
  if(((sr1itflags & I2C_FLAG_OVR) != RESET) && ((itsources & I2C_IT_ERR) != RESET))
 800267c:	f415 3f84 	tst.w	r5, #67584	; 0x10800
 8002680:	d00a      	beq.n	8002698 <HAL_I2C_ER_IRQHandler+0x98>
 8002682:	f416 7f80 	tst.w	r6, #256	; 0x100
 8002686:	d007      	beq.n	8002698 <HAL_I2C_ER_IRQHandler+0x98>
    hi2c->ErrorCode |= HAL_I2C_ERROR_OVR;
 8002688:	6c23      	ldr	r3, [r4, #64]	; 0x40
 800268a:	f043 0308 	orr.w	r3, r3, #8
 800268e:	6423      	str	r3, [r4, #64]	; 0x40
    __HAL_I2C_CLEAR_FLAG(hi2c, I2C_FLAG_OVR);
 8002690:	6823      	ldr	r3, [r4, #0]
 8002692:	f46f 6200 	mvn.w	r2, #2048	; 0x800
 8002696:	615a      	str	r2, [r3, #20]
  if(hi2c->ErrorCode != HAL_I2C_ERROR_NONE)
 8002698:	6c23      	ldr	r3, [r4, #64]	; 0x40
 800269a:	b9a3      	cbnz	r3, 80026c6 <HAL_I2C_ER_IRQHandler+0xc6>
 800269c:	bd70      	pop	{r4, r5, r6, pc}
    if((tmp1 == HAL_I2C_MODE_SLAVE) && (tmp2 == 0U) && \
 800269e:	2900      	cmp	r1, #0
 80026a0:	d1df      	bne.n	8002662 <HAL_I2C_ER_IRQHandler+0x62>
 80026a2:	2a21      	cmp	r2, #33	; 0x21
 80026a4:	d005      	beq.n	80026b2 <HAL_I2C_ER_IRQHandler+0xb2>
      ((tmp3 == HAL_I2C_STATE_BUSY_TX) || (tmp3 == HAL_I2C_STATE_BUSY_TX_LISTEN) || \
 80026a6:	2a29      	cmp	r2, #41	; 0x29
 80026a8:	d003      	beq.n	80026b2 <HAL_I2C_ER_IRQHandler+0xb2>
 80026aa:	2a28      	cmp	r2, #40	; 0x28
 80026ac:	d1d9      	bne.n	8002662 <HAL_I2C_ER_IRQHandler+0x62>
      ((tmp3 == HAL_I2C_STATE_LISTEN) && (tmp4 == I2C_STATE_SLAVE_BUSY_TX))))
 80026ae:	2821      	cmp	r0, #33	; 0x21
 80026b0:	d1d7      	bne.n	8002662 <HAL_I2C_ER_IRQHandler+0x62>
      I2C_Slave_AF(hi2c);
 80026b2:	4620      	mov	r0, r4
 80026b4:	f7ff fbb2 	bl	8001e1c <I2C_Slave_AF>
 80026b8:	e7e0      	b.n	800267c <HAL_I2C_ER_IRQHandler+0x7c>
        SET_BIT(hi2c->Instance->CR1,I2C_CR1_STOP);
 80026ba:	6822      	ldr	r2, [r4, #0]
 80026bc:	6813      	ldr	r3, [r2, #0]
 80026be:	f443 7300 	orr.w	r3, r3, #512	; 0x200
 80026c2:	6013      	str	r3, [r2, #0]
 80026c4:	e7d6      	b.n	8002674 <HAL_I2C_ER_IRQHandler+0x74>
    I2C_ITError(hi2c);
 80026c6:	4620      	mov	r0, r4
 80026c8:	f7ff fdbe 	bl	8002248 <I2C_ITError>
}
 80026cc:	e7e6      	b.n	800269c <HAL_I2C_ER_IRQHandler+0x9c>
 80026ce:	bf00      	nop
 80026d0:	00010100 	.word	0x00010100

080026d4 <I2C_DMAAbort>:
  *        (To be called at end of DMA Abort procedure).
  * @param hdma DMA handle.
  * @retval None
  */
static void I2C_DMAAbort(DMA_HandleTypeDef *hdma)
{
 80026d4:	b508      	push	{r3, lr}
  I2C_HandleTypeDef* hi2c = ( I2C_HandleTypeDef* )((DMA_HandleTypeDef* )hdma)->Parent;
 80026d6:	6b80      	ldr	r0, [r0, #56]	; 0x38
  
  /* Disable Acknowledge */
  hi2c->Instance->CR1 &= ~I2C_CR1_ACK;
 80026d8:	6802      	ldr	r2, [r0, #0]
 80026da:	6813      	ldr	r3, [r2, #0]
 80026dc:	f423 6380 	bic.w	r3, r3, #1024	; 0x400
 80026e0:	6013      	str	r3, [r2, #0]

  hi2c->XferCount = 0U;
 80026e2:	2300      	movs	r3, #0
 80026e4:	8543      	strh	r3, [r0, #42]	; 0x2a

  /* Reset XferAbortCallback */
  hi2c->hdmatx->XferAbortCallback = NULL;
 80026e6:	6b42      	ldr	r2, [r0, #52]	; 0x34
 80026e8:	6513      	str	r3, [r2, #80]	; 0x50
  hi2c->hdmarx->XferAbortCallback = NULL;
 80026ea:	6b82      	ldr	r2, [r0, #56]	; 0x38
 80026ec:	6513      	str	r3, [r2, #80]	; 0x50

  /* Check if come from abort from user */
  if(hi2c->State == HAL_I2C_STATE_ABORT)
 80026ee:	f890 303d 	ldrb.w	r3, [r0, #61]	; 0x3d
 80026f2:	b2db      	uxtb	r3, r3
 80026f4:	2b60      	cmp	r3, #96	; 0x60
 80026f6:	d00d      	beq.n	8002714 <I2C_DMAAbort+0x40>
    /* Call the corresponding callback to inform upper layer of End of Transfer */
    HAL_I2C_AbortCpltCallback(hi2c);
  }
  else
  {
    hi2c->State = HAL_I2C_STATE_READY;
 80026f8:	2320      	movs	r3, #32
 80026fa:	f880 303d 	strb.w	r3, [r0, #61]	; 0x3d
    hi2c->Mode = HAL_I2C_MODE_NONE;
 80026fe:	2300      	movs	r3, #0
 8002700:	f880 303e 	strb.w	r3, [r0, #62]	; 0x3e

    /* Disable I2C peripheral to prevent dummy data in buffer */
    __HAL_I2C_DISABLE(hi2c);
 8002704:	6802      	ldr	r2, [r0, #0]
 8002706:	6813      	ldr	r3, [r2, #0]
 8002708:	f023 0301 	bic.w	r3, r3, #1
 800270c:	6013      	str	r3, [r2, #0]

    /* Call the corresponding callback to inform upper layer of End of Transfer */
    HAL_I2C_ErrorCallback(hi2c);
 800270e:	f7ff fd99 	bl	8002244 <HAL_I2C_ErrorCallback>
 8002712:	bd08      	pop	{r3, pc}
    hi2c->State = HAL_I2C_STATE_READY;
 8002714:	2320      	movs	r3, #32
 8002716:	f880 303d 	strb.w	r3, [r0, #61]	; 0x3d
    hi2c->Mode = HAL_I2C_MODE_NONE;
 800271a:	2300      	movs	r3, #0
 800271c:	f880 303e 	strb.w	r3, [r0, #62]	; 0x3e
    hi2c->ErrorCode = HAL_I2C_ERROR_NONE;
 8002720:	6403      	str	r3, [r0, #64]	; 0x40
    __HAL_I2C_DISABLE(hi2c);
 8002722:	6802      	ldr	r2, [r0, #0]
 8002724:	6813      	ldr	r3, [r2, #0]
 8002726:	f023 0301 	bic.w	r3, r3, #1
 800272a:	6013      	str	r3, [r2, #0]
    HAL_I2C_AbortCpltCallback(hi2c);
 800272c:	f7ff fd8b 	bl	8002246 <HAL_I2C_AbortCpltCallback>
 8002730:	bd08      	pop	{r3, pc}
	...

08002734 <HAL_PWREx_EnableOverDrive>:
  *         During the Over-drive switch activation, no peripheral clocks should be enabled.   
  *         The peripheral clocks must be enabled once the Over-drive mode is activated.   
  * @retval HAL status
  */
HAL_StatusTypeDef HAL_PWREx_EnableOverDrive(void)
{
 8002734:	b510      	push	{r4, lr}
 8002736:	b082      	sub	sp, #8
  uint32_t tickstart = 0U;

  __HAL_RCC_PWR_CLK_ENABLE();
 8002738:	2300      	movs	r3, #0
 800273a:	9301      	str	r3, [sp, #4]
 800273c:	4b19      	ldr	r3, [pc, #100]	; (80027a4 <HAL_PWREx_EnableOverDrive+0x70>)
 800273e:	6c1a      	ldr	r2, [r3, #64]	; 0x40
 8002740:	f042 5280 	orr.w	r2, r2, #268435456	; 0x10000000
 8002744:	641a      	str	r2, [r3, #64]	; 0x40
 8002746:	6c1b      	ldr	r3, [r3, #64]	; 0x40
 8002748:	f003 5380 	and.w	r3, r3, #268435456	; 0x10000000
 800274c:	9301      	str	r3, [sp, #4]
 800274e:	9b01      	ldr	r3, [sp, #4]
  
  /* Enable the Over-drive to extend the clock frequency to 180 Mhz */
  __HAL_PWR_OVERDRIVE_ENABLE();
 8002750:	2201      	movs	r2, #1
 8002752:	4b15      	ldr	r3, [pc, #84]	; (80027a8 <HAL_PWREx_EnableOverDrive+0x74>)
 8002754:	601a      	str	r2, [r3, #0]

  /* Get tick */
  tickstart = HAL_GetTick();
 8002756:	f7fe fc17 	bl	8000f88 <HAL_GetTick>
 800275a:	4604      	mov	r4, r0

  while(!__HAL_PWR_GET_FLAG(PWR_FLAG_ODRDY))
 800275c:	4b13      	ldr	r3, [pc, #76]	; (80027ac <HAL_PWREx_EnableOverDrive+0x78>)
 800275e:	685b      	ldr	r3, [r3, #4]
 8002760:	f413 3f80 	tst.w	r3, #65536	; 0x10000
 8002764:	d108      	bne.n	8002778 <HAL_PWREx_EnableOverDrive+0x44>
  {
    if((HAL_GetTick() - tickstart) > PWR_OVERDRIVE_TIMEOUT_VALUE)
 8002766:	f7fe fc0f 	bl	8000f88 <HAL_GetTick>
 800276a:	1b00      	subs	r0, r0, r4
 800276c:	f5b0 7f7a 	cmp.w	r0, #1000	; 0x3e8
 8002770:	d9f4      	bls.n	800275c <HAL_PWREx_EnableOverDrive+0x28>
    {
      return HAL_TIMEOUT;
 8002772:	2003      	movs	r0, #3
    {
      return HAL_TIMEOUT;
    }
  } 
  return HAL_OK;
}
 8002774:	b002      	add	sp, #8
 8002776:	bd10      	pop	{r4, pc}
  __HAL_PWR_OVERDRIVESWITCHING_ENABLE();
 8002778:	2201      	movs	r2, #1
 800277a:	4b0d      	ldr	r3, [pc, #52]	; (80027b0 <HAL_PWREx_EnableOverDrive+0x7c>)
 800277c:	601a      	str	r2, [r3, #0]
  tickstart = HAL_GetTick();
 800277e:	f7fe fc03 	bl	8000f88 <HAL_GetTick>
 8002782:	4604      	mov	r4, r0
  while(!__HAL_PWR_GET_FLAG(PWR_FLAG_ODSWRDY))
 8002784:	4b09      	ldr	r3, [pc, #36]	; (80027ac <HAL_PWREx_EnableOverDrive+0x78>)
 8002786:	685b      	ldr	r3, [r3, #4]
 8002788:	f413 3f00 	tst.w	r3, #131072	; 0x20000
 800278c:	d107      	bne.n	800279e <HAL_PWREx_EnableOverDrive+0x6a>
    if((HAL_GetTick() - tickstart ) > PWR_OVERDRIVE_TIMEOUT_VALUE)
 800278e:	f7fe fbfb 	bl	8000f88 <HAL_GetTick>
 8002792:	1b00      	subs	r0, r0, r4
 8002794:	f5b0 7f7a 	cmp.w	r0, #1000	; 0x3e8
 8002798:	d9f4      	bls.n	8002784 <HAL_PWREx_EnableOverDrive+0x50>
      return HAL_TIMEOUT;
 800279a:	2003      	movs	r0, #3
 800279c:	e7ea      	b.n	8002774 <HAL_PWREx_EnableOverDrive+0x40>
  return HAL_OK;
 800279e:	2000      	movs	r0, #0
 80027a0:	e7e8      	b.n	8002774 <HAL_PWREx_EnableOverDrive+0x40>
 80027a2:	bf00      	nop
 80027a4:	40023800 	.word	0x40023800
 80027a8:	420e0040 	.word	0x420e0040
 80027ac:	40007000 	.word	0x40007000
 80027b0:	420e0044 	.word	0x420e0044

080027b4 <HAL_RCC_ClockConfig>:
HAL_StatusTypeDef HAL_RCC_ClockConfig(RCC_ClkInitTypeDef  *RCC_ClkInitStruct, uint32_t FLatency)
{
  uint32_t tickstart;

  /* Check Null pointer */
  if(RCC_ClkInitStruct == NULL)
 80027b4:	2800      	cmp	r0, #0
 80027b6:	f000 809d 	beq.w	80028f4 <HAL_RCC_ClockConfig+0x140>
{
 80027ba:	b570      	push	{r4, r5, r6, lr}
 80027bc:	4604      	mov	r4, r0
  /* To correctly read data from FLASH memory, the number of wait states (LATENCY)
    must be correctly programmed according to the frequency of the CPU clock
    (HCLK) and the supply voltage of the device. */

  /* Increasing the number of wait states because of higher CPU frequency */
  if(FLatency > __HAL_FLASH_GET_LATENCY())
 80027be:	4b4f      	ldr	r3, [pc, #316]	; (80028fc <HAL_RCC_ClockConfig+0x148>)
 80027c0:	681b      	ldr	r3, [r3, #0]
 80027c2:	f003 030f 	and.w	r3, r3, #15
 80027c6:	428b      	cmp	r3, r1
 80027c8:	d209      	bcs.n	80027de <HAL_RCC_ClockConfig+0x2a>
  {
    /* Program the new number of wait states to the LATENCY bits in the FLASH_ACR register */
    __HAL_FLASH_SET_LATENCY(FLatency);
 80027ca:	b2cb      	uxtb	r3, r1
 80027cc:	4a4b      	ldr	r2, [pc, #300]	; (80028fc <HAL_RCC_ClockConfig+0x148>)
 80027ce:	7013      	strb	r3, [r2, #0]

    /* Check that the new number of wait states is taken into account to access the Flash
    memory by reading the FLASH_ACR register */
    if(__HAL_FLASH_GET_LATENCY() != FLatency)
 80027d0:	6813      	ldr	r3, [r2, #0]
 80027d2:	f003 030f 	and.w	r3, r3, #15
 80027d6:	4299      	cmp	r1, r3
 80027d8:	d001      	beq.n	80027de <HAL_RCC_ClockConfig+0x2a>
    {
      return HAL_ERROR;
 80027da:	2001      	movs	r0, #1
 80027dc:	bd70      	pop	{r4, r5, r6, pc}
    }
  }

  /*-------------------------- HCLK Configuration --------------------------*/
  if(((RCC_ClkInitStruct->ClockType) & RCC_CLOCKTYPE_HCLK) == RCC_CLOCKTYPE_HCLK)
 80027de:	6823      	ldr	r3, [r4, #0]
 80027e0:	f013 0f02 	tst.w	r3, #2
 80027e4:	d017      	beq.n	8002816 <HAL_RCC_ClockConfig+0x62>
  {
    /* Set the highest APBx dividers in order to ensure that we do not go through
       a non-spec phase whatever we decrease or increase HCLK. */
    if(((RCC_ClkInitStruct->ClockType) & RCC_CLOCKTYPE_PCLK1) == RCC_CLOCKTYPE_PCLK1)
 80027e6:	f013 0f04 	tst.w	r3, #4
 80027ea:	d004      	beq.n	80027f6 <HAL_RCC_ClockConfig+0x42>
    {
      MODIFY_REG(RCC->CFGR, RCC_CFGR_PPRE1, RCC_HCLK_DIV16);
 80027ec:	4a44      	ldr	r2, [pc, #272]	; (8002900 <HAL_RCC_ClockConfig+0x14c>)
 80027ee:	6893      	ldr	r3, [r2, #8]
 80027f0:	f443 53e0 	orr.w	r3, r3, #7168	; 0x1c00
 80027f4:	6093      	str	r3, [r2, #8]
    }

    if(((RCC_ClkInitStruct->ClockType) & RCC_CLOCKTYPE_PCLK2) == RCC_CLOCKTYPE_PCLK2)
 80027f6:	6823      	ldr	r3, [r4, #0]
 80027f8:	f013 0f08 	tst.w	r3, #8
 80027fc:	d004      	beq.n	8002808 <HAL_RCC_ClockConfig+0x54>
    {
      MODIFY_REG(RCC->CFGR, RCC_CFGR_PPRE2, (RCC_HCLK_DIV16 << 3));
 80027fe:	4a40      	ldr	r2, [pc, #256]	; (8002900 <HAL_RCC_ClockConfig+0x14c>)
 8002800:	6893      	ldr	r3, [r2, #8]
 8002802:	f443 4360 	orr.w	r3, r3, #57344	; 0xe000
 8002806:	6093      	str	r3, [r2, #8]
    }

    assert_param(IS_RCC_HCLK(RCC_ClkInitStruct->AHBCLKDivider));
    MODIFY_REG(RCC->CFGR, RCC_CFGR_HPRE, RCC_ClkInitStruct->AHBCLKDivider);
 8002808:	4a3d      	ldr	r2, [pc, #244]	; (8002900 <HAL_RCC_ClockConfig+0x14c>)
 800280a:	6893      	ldr	r3, [r2, #8]
 800280c:	f023 03f0 	bic.w	r3, r3, #240	; 0xf0
 8002810:	68a0      	ldr	r0, [r4, #8]
 8002812:	4303      	orrs	r3, r0
 8002814:	6093      	str	r3, [r2, #8]
 8002816:	460d      	mov	r5, r1
  }

  /*------------------------- SYSCLK Configuration ---------------------------*/
  if(((RCC_ClkInitStruct->ClockType) & RCC_CLOCKTYPE_SYSCLK) == RCC_CLOCKTYPE_SYSCLK)
 8002818:	6823      	ldr	r3, [r4, #0]
 800281a:	f013 0f01 	tst.w	r3, #1
 800281e:	d032      	beq.n	8002886 <HAL_RCC_ClockConfig+0xd2>
  {
    assert_param(IS_RCC_SYSCLKSOURCE(RCC_ClkInitStruct->SYSCLKSource));

    /* HSE is selected as System Clock Source */
    if(RCC_ClkInitStruct->SYSCLKSource == RCC_SYSCLKSOURCE_HSE)
 8002820:	6863      	ldr	r3, [r4, #4]
 8002822:	2b01      	cmp	r3, #1
 8002824:	d021      	beq.n	800286a <HAL_RCC_ClockConfig+0xb6>
      {
        return HAL_ERROR;
      }
    }
    /* PLL is selected as System Clock Source */
    else if((RCC_ClkInitStruct->SYSCLKSource == RCC_SYSCLKSOURCE_PLLCLK)   ||
 8002826:	1e9a      	subs	r2, r3, #2
 8002828:	2a01      	cmp	r2, #1
 800282a:	d925      	bls.n	8002878 <HAL_RCC_ClockConfig+0xc4>
    }
    /* HSI is selected as System Clock Source */
    else
    {
      /* Check the HSI ready flag */
      if(__HAL_RCC_GET_FLAG(RCC_FLAG_HSIRDY) == RESET)
 800282c:	4a34      	ldr	r2, [pc, #208]	; (8002900 <HAL_RCC_ClockConfig+0x14c>)
 800282e:	6812      	ldr	r2, [r2, #0]
 8002830:	f012 0f02 	tst.w	r2, #2
 8002834:	d060      	beq.n	80028f8 <HAL_RCC_ClockConfig+0x144>
      {
        return HAL_ERROR;
      }
    }

    __HAL_RCC_SYSCLK_CONFIG(RCC_ClkInitStruct->SYSCLKSource);
 8002836:	4932      	ldr	r1, [pc, #200]	; (8002900 <HAL_RCC_ClockConfig+0x14c>)
 8002838:	688a      	ldr	r2, [r1, #8]
 800283a:	f022 0203 	bic.w	r2, r2, #3
 800283e:	4313      	orrs	r3, r2
 8002840:	608b      	str	r3, [r1, #8]

    /* Get Start Tick */
    tickstart = HAL_GetTick();
 8002842:	f7fe fba1 	bl	8000f88 <HAL_GetTick>
 8002846:	4606      	mov	r6, r0

    while (__HAL_RCC_GET_SYSCLK_SOURCE() != (RCC_ClkInitStruct->SYSCLKSource << RCC_CFGR_SWS_Pos))
 8002848:	4b2d      	ldr	r3, [pc, #180]	; (8002900 <HAL_RCC_ClockConfig+0x14c>)
 800284a:	689b      	ldr	r3, [r3, #8]
 800284c:	f003 030c 	and.w	r3, r3, #12
 8002850:	6862      	ldr	r2, [r4, #4]
 8002852:	ebb3 0f82 	cmp.w	r3, r2, lsl #2
 8002856:	d016      	beq.n	8002886 <HAL_RCC_ClockConfig+0xd2>
    {
      if ((HAL_GetTick() - tickstart) > CLOCKSWITCH_TIMEOUT_VALUE)
 8002858:	f7fe fb96 	bl	8000f88 <HAL_GetTick>
 800285c:	1b80      	subs	r0, r0, r6
 800285e:	f241 3388 	movw	r3, #5000	; 0x1388
 8002862:	4298      	cmp	r0, r3
 8002864:	d9f0      	bls.n	8002848 <HAL_RCC_ClockConfig+0x94>
      {
        return HAL_TIMEOUT;
 8002866:	2003      	movs	r0, #3
 8002868:	bd70      	pop	{r4, r5, r6, pc}
      if(__HAL_RCC_GET_FLAG(RCC_FLAG_HSERDY) == RESET)
 800286a:	4a25      	ldr	r2, [pc, #148]	; (8002900 <HAL_RCC_ClockConfig+0x14c>)
 800286c:	6812      	ldr	r2, [r2, #0]
 800286e:	f412 3f00 	tst.w	r2, #131072	; 0x20000
 8002872:	d1e0      	bne.n	8002836 <HAL_RCC_ClockConfig+0x82>
        return HAL_ERROR;
 8002874:	2001      	movs	r0, #1
 8002876:	bd70      	pop	{r4, r5, r6, pc}
      if(__HAL_RCC_GET_FLAG(RCC_FLAG_PLLRDY) == RESET)
 8002878:	4a21      	ldr	r2, [pc, #132]	; (8002900 <HAL_RCC_ClockConfig+0x14c>)
 800287a:	6812      	ldr	r2, [r2, #0]
 800287c:	f012 7f00 	tst.w	r2, #33554432	; 0x2000000
 8002880:	d1d9      	bne.n	8002836 <HAL_RCC_ClockConfig+0x82>
        return HAL_ERROR;
 8002882:	2001      	movs	r0, #1
 8002884:	bd70      	pop	{r4, r5, r6, pc}
      }
    }
  }

  /* Decreasing the number of wait states because of lower CPU frequency */
  if(FLatency < __HAL_FLASH_GET_LATENCY())
 8002886:	4b1d      	ldr	r3, [pc, #116]	; (80028fc <HAL_RCC_ClockConfig+0x148>)
 8002888:	681b      	ldr	r3, [r3, #0]
 800288a:	f003 030f 	and.w	r3, r3, #15
 800288e:	429d      	cmp	r5, r3
 8002890:	d209      	bcs.n	80028a6 <HAL_RCC_ClockConfig+0xf2>
  {
     /* Program the new number of wait states to the LATENCY bits in the FLASH_ACR register */
    __HAL_FLASH_SET_LATENCY(FLatency);
 8002892:	b2ea      	uxtb	r2, r5
 8002894:	4b19      	ldr	r3, [pc, #100]	; (80028fc <HAL_RCC_ClockConfig+0x148>)
 8002896:	701a      	strb	r2, [r3, #0]

    /* Check that the new number of wait states is taken into account to access the Flash
    memory by reading the FLASH_ACR register */
    if(__HAL_FLASH_GET_LATENCY() != FLatency)
 8002898:	681b      	ldr	r3, [r3, #0]
 800289a:	f003 030f 	and.w	r3, r3, #15
 800289e:	429d      	cmp	r5, r3
 80028a0:	d001      	beq.n	80028a6 <HAL_RCC_ClockConfig+0xf2>
    {
      return HAL_ERROR;
 80028a2:	2001      	movs	r0, #1

  /* Configure the source of time base considering new system clocks settings */
  HAL_InitTick (TICK_INT_PRIORITY);

  return HAL_OK;
}
 80028a4:	bd70      	pop	{r4, r5, r6, pc}
  if(((RCC_ClkInitStruct->ClockType) & RCC_CLOCKTYPE_PCLK1) == RCC_CLOCKTYPE_PCLK1)
 80028a6:	6823      	ldr	r3, [r4, #0]
 80028a8:	f013 0f04 	tst.w	r3, #4
 80028ac:	d006      	beq.n	80028bc <HAL_RCC_ClockConfig+0x108>
    MODIFY_REG(RCC->CFGR, RCC_CFGR_PPRE1, RCC_ClkInitStruct->APB1CLKDivider);
 80028ae:	4a14      	ldr	r2, [pc, #80]	; (8002900 <HAL_RCC_ClockConfig+0x14c>)
 80028b0:	6893      	ldr	r3, [r2, #8]
 80028b2:	f423 53e0 	bic.w	r3, r3, #7168	; 0x1c00
 80028b6:	68e1      	ldr	r1, [r4, #12]
 80028b8:	430b      	orrs	r3, r1
 80028ba:	6093      	str	r3, [r2, #8]
  if(((RCC_ClkInitStruct->ClockType) & RCC_CLOCKTYPE_PCLK2) == RCC_CLOCKTYPE_PCLK2)
 80028bc:	6823      	ldr	r3, [r4, #0]
 80028be:	f013 0f08 	tst.w	r3, #8
 80028c2:	d007      	beq.n	80028d4 <HAL_RCC_ClockConfig+0x120>
    MODIFY_REG(RCC->CFGR, RCC_CFGR_PPRE2, ((RCC_ClkInitStruct->APB2CLKDivider) << 3U));
 80028c4:	4a0e      	ldr	r2, [pc, #56]	; (8002900 <HAL_RCC_ClockConfig+0x14c>)
 80028c6:	6893      	ldr	r3, [r2, #8]
 80028c8:	f423 4360 	bic.w	r3, r3, #57344	; 0xe000
 80028cc:	6921      	ldr	r1, [r4, #16]
 80028ce:	ea43 03c1 	orr.w	r3, r3, r1, lsl #3
 80028d2:	6093      	str	r3, [r2, #8]
  SystemCoreClock = HAL_RCC_GetSysClockFreq() >> AHBPrescTable[(RCC->CFGR & RCC_CFGR_HPRE)>> RCC_CFGR_HPRE_Pos];
 80028d4:	f000 f840 	bl	8002958 <HAL_RCC_GetSysClockFreq>
 80028d8:	4b09      	ldr	r3, [pc, #36]	; (8002900 <HAL_RCC_ClockConfig+0x14c>)
 80028da:	689b      	ldr	r3, [r3, #8]
 80028dc:	f3c3 1303 	ubfx	r3, r3, #4, #4
 80028e0:	4a08      	ldr	r2, [pc, #32]	; (8002904 <HAL_RCC_ClockConfig+0x150>)
 80028e2:	5cd3      	ldrb	r3, [r2, r3]
 80028e4:	40d8      	lsrs	r0, r3
 80028e6:	4b08      	ldr	r3, [pc, #32]	; (8002908 <HAL_RCC_ClockConfig+0x154>)
 80028e8:	6018      	str	r0, [r3, #0]
  HAL_InitTick (TICK_INT_PRIORITY);
 80028ea:	2000      	movs	r0, #0
 80028ec:	f7fe fb00 	bl	8000ef0 <HAL_InitTick>
  return HAL_OK;
 80028f0:	2000      	movs	r0, #0
 80028f2:	bd70      	pop	{r4, r5, r6, pc}
    return HAL_ERROR;
 80028f4:	2001      	movs	r0, #1
 80028f6:	4770      	bx	lr
        return HAL_ERROR;
 80028f8:	2001      	movs	r0, #1
 80028fa:	bd70      	pop	{r4, r5, r6, pc}
 80028fc:	40023c00 	.word	0x40023c00
 8002900:	40023800 	.word	0x40023800
 8002904:	08008380 	.word	0x08008380
 8002908:	20000008 	.word	0x20000008

0800290c <HAL_RCC_GetHCLKFreq>:
  * @retval HCLK frequency
  */
uint32_t HAL_RCC_GetHCLKFreq(void)
{
  return SystemCoreClock;
}
 800290c:	4b01      	ldr	r3, [pc, #4]	; (8002914 <HAL_RCC_GetHCLKFreq+0x8>)
 800290e:	6818      	ldr	r0, [r3, #0]
 8002910:	4770      	bx	lr
 8002912:	bf00      	nop
 8002914:	20000008 	.word	0x20000008

08002918 <HAL_RCC_GetPCLK1Freq>:
  * @note   Each time PCLK1 changes, this function must be called to update the
  *         right PCLK1 value. Otherwise, any configuration based on this function will be incorrect.
  * @retval PCLK1 frequency
  */
uint32_t HAL_RCC_GetPCLK1Freq(void)
{
 8002918:	b508      	push	{r3, lr}
  /* Get HCLK source and Compute PCLK1 frequency ---------------------------*/
  return (HAL_RCC_GetHCLKFreq() >> APBPrescTable[(RCC->CFGR & RCC_CFGR_PPRE1)>> RCC_CFGR_PPRE1_Pos]);
 800291a:	f7ff fff7 	bl	800290c <HAL_RCC_GetHCLKFreq>
 800291e:	4b04      	ldr	r3, [pc, #16]	; (8002930 <HAL_RCC_GetPCLK1Freq+0x18>)
 8002920:	689b      	ldr	r3, [r3, #8]
 8002922:	f3c3 2382 	ubfx	r3, r3, #10, #3
 8002926:	4a03      	ldr	r2, [pc, #12]	; (8002934 <HAL_RCC_GetPCLK1Freq+0x1c>)
 8002928:	5cd3      	ldrb	r3, [r2, r3]
}
 800292a:	40d8      	lsrs	r0, r3
 800292c:	bd08      	pop	{r3, pc}
 800292e:	bf00      	nop
 8002930:	40023800 	.word	0x40023800
 8002934:	08008390 	.word	0x08008390

08002938 <HAL_RCC_GetPCLK2Freq>:
  * @note   Each time PCLK2 changes, this function must be called to update the
  *         right PCLK2 value. Otherwise, any configuration based on this function will be incorrect.
  * @retval PCLK2 frequency
  */
uint32_t HAL_RCC_GetPCLK2Freq(void)
{
 8002938:	b508      	push	{r3, lr}
  /* Get HCLK source and Compute PCLK2 frequency ---------------------------*/
  return (HAL_RCC_GetHCLKFreq()>> APBPrescTable[(RCC->CFGR & RCC_CFGR_PPRE2)>> RCC_CFGR_PPRE2_Pos]);
 800293a:	f7ff ffe7 	bl	800290c <HAL_RCC_GetHCLKFreq>
 800293e:	4b04      	ldr	r3, [pc, #16]	; (8002950 <HAL_RCC_GetPCLK2Freq+0x18>)
 8002940:	689b      	ldr	r3, [r3, #8]
 8002942:	f3c3 3342 	ubfx	r3, r3, #13, #3
 8002946:	4a03      	ldr	r2, [pc, #12]	; (8002954 <HAL_RCC_GetPCLK2Freq+0x1c>)
 8002948:	5cd3      	ldrb	r3, [r2, r3]
}
 800294a:	40d8      	lsrs	r0, r3
 800294c:	bd08      	pop	{r3, pc}
 800294e:	bf00      	nop
 8002950:	40023800 	.word	0x40023800
 8002954:	08008390 	.word	0x08008390

08002958 <HAL_RCC_GetSysClockFreq>:
  *
  *
  * @retval SYSCLK frequency
  */
uint32_t HAL_RCC_GetSysClockFreq(void)
{
 8002958:	b5f8      	push	{r3, r4, r5, r6, r7, lr}
  uint32_t pllp = 0U;
  uint32_t pllr = 0U;
  uint32_t sysclockfreq = 0U;

  /* Get SYSCLK source -------------------------------------------------------*/
  switch (RCC->CFGR & RCC_CFGR_SWS)
 800295a:	4b5c      	ldr	r3, [pc, #368]	; (8002acc <HAL_RCC_GetSysClockFreq+0x174>)
 800295c:	689b      	ldr	r3, [r3, #8]
 800295e:	f003 030c 	and.w	r3, r3, #12
 8002962:	2b08      	cmp	r3, #8
 8002964:	d006      	beq.n	8002974 <HAL_RCC_GetSysClockFreq+0x1c>
 8002966:	2b0c      	cmp	r3, #12
 8002968:	d05a      	beq.n	8002a20 <HAL_RCC_GetSysClockFreq+0xc8>
 800296a:	2b04      	cmp	r3, #4
 800296c:	f000 80ac 	beq.w	8002ac8 <HAL_RCC_GetSysClockFreq+0x170>
  {
    case RCC_CFGR_SWS_HSI:  /* HSI used as system clock source */
    {
      sysclockfreq = HSI_VALUE;
 8002970:	4857      	ldr	r0, [pc, #348]	; (8002ad0 <HAL_RCC_GetSysClockFreq+0x178>)
 8002972:	bdf8      	pop	{r3, r4, r5, r6, r7, pc}
    }
    case RCC_CFGR_SWS_PLL:  /* PLL/PLLP used as system clock  source */
    {
      /* PLL_VCO = (HSE_VALUE or HSI_VALUE / PLLM) * PLLN
      SYSCLK = PLL_VCO / PLLP */
      pllm = RCC->PLLCFGR & RCC_PLLCFGR_PLLM;
 8002974:	4b55      	ldr	r3, [pc, #340]	; (8002acc <HAL_RCC_GetSysClockFreq+0x174>)
 8002976:	685a      	ldr	r2, [r3, #4]
 8002978:	f002 023f 	and.w	r2, r2, #63	; 0x3f
      if(__HAL_RCC_GET_PLL_OSCSOURCE() != RCC_PLLSOURCE_HSI)
 800297c:	685b      	ldr	r3, [r3, #4]
 800297e:	f413 0f80 	tst.w	r3, #4194304	; 0x400000
 8002982:	d02a      	beq.n	80029da <HAL_RCC_GetSysClockFreq+0x82>
      {
        /* HSE used as PLL clock source */
        pllvco = (uint32_t) ((((uint64_t) HSE_VALUE * ((uint64_t) ((RCC->PLLCFGR & RCC_PLLCFGR_PLLN) >> RCC_PLLCFGR_PLLN_Pos)))) / (uint64_t)pllm);
 8002984:	4b51      	ldr	r3, [pc, #324]	; (8002acc <HAL_RCC_GetSysClockFreq+0x174>)
 8002986:	685b      	ldr	r3, [r3, #4]
 8002988:	f3c3 1388 	ubfx	r3, r3, #6, #9
 800298c:	461e      	mov	r6, r3
 800298e:	2700      	movs	r7, #0
 8002990:	015c      	lsls	r4, r3, #5
 8002992:	2500      	movs	r5, #0
 8002994:	1ae4      	subs	r4, r4, r3
 8002996:	eb65 0507 	sbc.w	r5, r5, r7
 800299a:	01a9      	lsls	r1, r5, #6
 800299c:	ea41 6194 	orr.w	r1, r1, r4, lsr #26
 80029a0:	01a0      	lsls	r0, r4, #6
 80029a2:	1b00      	subs	r0, r0, r4
 80029a4:	eb61 0105 	sbc.w	r1, r1, r5
 80029a8:	00cb      	lsls	r3, r1, #3
 80029aa:	ea43 7350 	orr.w	r3, r3, r0, lsr #29
 80029ae:	00c4      	lsls	r4, r0, #3
 80029b0:	19a0      	adds	r0, r4, r6
 80029b2:	eb43 0107 	adc.w	r1, r3, r7
 80029b6:	024b      	lsls	r3, r1, #9
 80029b8:	ea43 53d0 	orr.w	r3, r3, r0, lsr #23
 80029bc:	0244      	lsls	r4, r0, #9
 80029be:	4620      	mov	r0, r4
 80029c0:	4619      	mov	r1, r3
 80029c2:	2300      	movs	r3, #0
 80029c4:	f7fe f90c 	bl	8000be0 <__aeabi_uldivmod>
      else
      {
        /* HSI used as PLL clock source */
        pllvco = (uint32_t) ((((uint64_t) HSI_VALUE * ((uint64_t) ((RCC->PLLCFGR & RCC_PLLCFGR_PLLN) >> RCC_PLLCFGR_PLLN_Pos)))) / (uint64_t)pllm);
      }
      pllp = ((((RCC->PLLCFGR & RCC_PLLCFGR_PLLP) >> RCC_PLLCFGR_PLLP_Pos) + 1U) *2U);
 80029c8:	4b40      	ldr	r3, [pc, #256]	; (8002acc <HAL_RCC_GetSysClockFreq+0x174>)
 80029ca:	685b      	ldr	r3, [r3, #4]
 80029cc:	f3c3 4301 	ubfx	r3, r3, #16, #2
 80029d0:	3301      	adds	r3, #1
 80029d2:	005b      	lsls	r3, r3, #1

      sysclockfreq = pllvco/pllp;
 80029d4:	fbb0 f0f3 	udiv	r0, r0, r3
      break;
 80029d8:	bdf8      	pop	{r3, r4, r5, r6, r7, pc}
        pllvco = (uint32_t) ((((uint64_t) HSI_VALUE * ((uint64_t) ((RCC->PLLCFGR & RCC_PLLCFGR_PLLN) >> RCC_PLLCFGR_PLLN_Pos)))) / (uint64_t)pllm);
 80029da:	4b3c      	ldr	r3, [pc, #240]	; (8002acc <HAL_RCC_GetSysClockFreq+0x174>)
 80029dc:	685b      	ldr	r3, [r3, #4]
 80029de:	f3c3 1388 	ubfx	r3, r3, #6, #9
 80029e2:	461e      	mov	r6, r3
 80029e4:	2700      	movs	r7, #0
 80029e6:	015c      	lsls	r4, r3, #5
 80029e8:	2500      	movs	r5, #0
 80029ea:	1ae4      	subs	r4, r4, r3
 80029ec:	eb65 0507 	sbc.w	r5, r5, r7
 80029f0:	01a9      	lsls	r1, r5, #6
 80029f2:	ea41 6194 	orr.w	r1, r1, r4, lsr #26
 80029f6:	01a0      	lsls	r0, r4, #6
 80029f8:	1b00      	subs	r0, r0, r4
 80029fa:	eb61 0105 	sbc.w	r1, r1, r5
 80029fe:	00cb      	lsls	r3, r1, #3
 8002a00:	ea43 7350 	orr.w	r3, r3, r0, lsr #29
 8002a04:	00c4      	lsls	r4, r0, #3
 8002a06:	19a0      	adds	r0, r4, r6
 8002a08:	eb43 0107 	adc.w	r1, r3, r7
 8002a0c:	028b      	lsls	r3, r1, #10
 8002a0e:	ea43 5390 	orr.w	r3, r3, r0, lsr #22
 8002a12:	0284      	lsls	r4, r0, #10
 8002a14:	4620      	mov	r0, r4
 8002a16:	4619      	mov	r1, r3
 8002a18:	2300      	movs	r3, #0
 8002a1a:	f7fe f8e1 	bl	8000be0 <__aeabi_uldivmod>
 8002a1e:	e7d3      	b.n	80029c8 <HAL_RCC_GetSysClockFreq+0x70>
    }
    case RCC_CFGR_SWS_PLLR:  /* PLL/PLLR used as system clock  source */
    {
      /* PLL_VCO = (HSE_VALUE or HSI_VALUE / PLLM) * PLLN
      SYSCLK = PLL_VCO / PLLR */
      pllm = RCC->PLLCFGR & RCC_PLLCFGR_PLLM;
 8002a20:	4b2a      	ldr	r3, [pc, #168]	; (8002acc <HAL_RCC_GetSysClockFreq+0x174>)
 8002a22:	685a      	ldr	r2, [r3, #4]
 8002a24:	f002 023f 	and.w	r2, r2, #63	; 0x3f
      if(__HAL_RCC_GET_PLL_OSCSOURCE() != RCC_PLLSOURCE_HSI)
 8002a28:	685b      	ldr	r3, [r3, #4]
 8002a2a:	f413 0f80 	tst.w	r3, #4194304	; 0x400000
 8002a2e:	d028      	beq.n	8002a82 <HAL_RCC_GetSysClockFreq+0x12a>
      {
        /* HSE used as PLL clock source */
        pllvco = (uint32_t) ((((uint64_t) HSE_VALUE * ((uint64_t) ((RCC->PLLCFGR & RCC_PLLCFGR_PLLN) >> RCC_PLLCFGR_PLLN_Pos)))) / (uint64_t)pllm);
 8002a30:	4b26      	ldr	r3, [pc, #152]	; (8002acc <HAL_RCC_GetSysClockFreq+0x174>)
 8002a32:	685b      	ldr	r3, [r3, #4]
 8002a34:	f3c3 1388 	ubfx	r3, r3, #6, #9
 8002a38:	461e      	mov	r6, r3
 8002a3a:	2700      	movs	r7, #0
 8002a3c:	015c      	lsls	r4, r3, #5
 8002a3e:	2500      	movs	r5, #0
 8002a40:	1ae4      	subs	r4, r4, r3
 8002a42:	eb65 0507 	sbc.w	r5, r5, r7
 8002a46:	01a9      	lsls	r1, r5, #6
 8002a48:	ea41 6194 	orr.w	r1, r1, r4, lsr #26
 8002a4c:	01a0      	lsls	r0, r4, #6
 8002a4e:	1b00      	subs	r0, r0, r4
 8002a50:	eb61 0105 	sbc.w	r1, r1, r5
 8002a54:	00cb      	lsls	r3, r1, #3
 8002a56:	ea43 7350 	orr.w	r3, r3, r0, lsr #29
 8002a5a:	00c4      	lsls	r4, r0, #3
 8002a5c:	19a0      	adds	r0, r4, r6
 8002a5e:	eb43 0107 	adc.w	r1, r3, r7
 8002a62:	024b      	lsls	r3, r1, #9
 8002a64:	ea43 53d0 	orr.w	r3, r3, r0, lsr #23
 8002a68:	0244      	lsls	r4, r0, #9
 8002a6a:	4620      	mov	r0, r4
 8002a6c:	4619      	mov	r1, r3
 8002a6e:	2300      	movs	r3, #0
 8002a70:	f7fe f8b6 	bl	8000be0 <__aeabi_uldivmod>
      else
      {
        /* HSI used as PLL clock source */
        pllvco = (uint32_t) ((((uint64_t) HSI_VALUE * ((uint64_t) ((RCC->PLLCFGR & RCC_PLLCFGR_PLLN) >> RCC_PLLCFGR_PLLN_Pos)))) / (uint64_t)pllm);
      }
      pllr = ((RCC->PLLCFGR & RCC_PLLCFGR_PLLR) >> RCC_PLLCFGR_PLLR_Pos);
 8002a74:	4b15      	ldr	r3, [pc, #84]	; (8002acc <HAL_RCC_GetSysClockFreq+0x174>)
 8002a76:	685b      	ldr	r3, [r3, #4]
 8002a78:	f3c3 7302 	ubfx	r3, r3, #28, #3

      sysclockfreq = pllvco/pllr;
 8002a7c:	fbb0 f0f3 	udiv	r0, r0, r3
      break;
 8002a80:	bdf8      	pop	{r3, r4, r5, r6, r7, pc}
        pllvco = (uint32_t) ((((uint64_t) HSI_VALUE * ((uint64_t) ((RCC->PLLCFGR & RCC_PLLCFGR_PLLN) >> RCC_PLLCFGR_PLLN_Pos)))) / (uint64_t)pllm);
 8002a82:	4b12      	ldr	r3, [pc, #72]	; (8002acc <HAL_RCC_GetSysClockFreq+0x174>)
 8002a84:	685b      	ldr	r3, [r3, #4]
 8002a86:	f3c3 1388 	ubfx	r3, r3, #6, #9
 8002a8a:	461e      	mov	r6, r3
 8002a8c:	2700      	movs	r7, #0
 8002a8e:	015c      	lsls	r4, r3, #5
 8002a90:	2500      	movs	r5, #0
 8002a92:	1ae4      	subs	r4, r4, r3
 8002a94:	eb65 0507 	sbc.w	r5, r5, r7
 8002a98:	01a9      	lsls	r1, r5, #6
 8002a9a:	ea41 6194 	orr.w	r1, r1, r4, lsr #26
 8002a9e:	01a0      	lsls	r0, r4, #6
 8002aa0:	1b00      	subs	r0, r0, r4
 8002aa2:	eb61 0105 	sbc.w	r1, r1, r5
 8002aa6:	00cb      	lsls	r3, r1, #3
 8002aa8:	ea43 7350 	orr.w	r3, r3, r0, lsr #29
 8002aac:	00c4      	lsls	r4, r0, #3
 8002aae:	19a0      	adds	r0, r4, r6
 8002ab0:	eb43 0107 	adc.w	r1, r3, r7
 8002ab4:	028b      	lsls	r3, r1, #10
 8002ab6:	ea43 5390 	orr.w	r3, r3, r0, lsr #22
 8002aba:	0284      	lsls	r4, r0, #10
 8002abc:	4620      	mov	r0, r4
 8002abe:	4619      	mov	r1, r3
 8002ac0:	2300      	movs	r3, #0
 8002ac2:	f7fe f88d 	bl	8000be0 <__aeabi_uldivmod>
 8002ac6:	e7d5      	b.n	8002a74 <HAL_RCC_GetSysClockFreq+0x11c>
      sysclockfreq = HSE_VALUE;
 8002ac8:	4802      	ldr	r0, [pc, #8]	; (8002ad4 <HAL_RCC_GetSysClockFreq+0x17c>)
      sysclockfreq = HSI_VALUE;
      break;
    }
  }
  return sysclockfreq;
}
 8002aca:	bdf8      	pop	{r3, r4, r5, r6, r7, pc}
 8002acc:	40023800 	.word	0x40023800
 8002ad0:	00f42400 	.word	0x00f42400
 8002ad4:	007a1200 	.word	0x007a1200

08002ad8 <HAL_RCC_OscConfig>:
  * @note   This function add the PLL/PLLR factor management during PLL configuration this feature
  *         is only available in STM32F410xx/STM32F446xx/STM32F469xx/STM32F479xx/STM32F412Zx/STM32F412Vx/STM32F412Rx/STM32F412Cx devices
  * @retval HAL status
  */
HAL_StatusTypeDef HAL_RCC_OscConfig(RCC_OscInitTypeDef  *RCC_OscInitStruct)
{
 8002ad8:	b570      	push	{r4, r5, r6, lr}
 8002ada:	b082      	sub	sp, #8
 8002adc:	4604      	mov	r4, r0
  uint32_t tickstart = 0U;

  /* Check the parameters */
  assert_param(IS_RCC_OSCILLATORTYPE(RCC_OscInitStruct->OscillatorType));
  /*------------------------------- HSE Configuration ------------------------*/
  if(((RCC_OscInitStruct->OscillatorType) & RCC_OSCILLATORTYPE_HSE) == RCC_OSCILLATORTYPE_HSE)
 8002ade:	6803      	ldr	r3, [r0, #0]
 8002ae0:	f013 0f01 	tst.w	r3, #1
 8002ae4:	d041      	beq.n	8002b6a <HAL_RCC_OscConfig+0x92>
  {
    /* Check the parameters */
    assert_param(IS_RCC_HSE(RCC_OscInitStruct->HSEState));
    /* When the HSE is used as system clock or clock source for PLL in these cases HSE will not disabled */
#if defined(STM32F446xx)
    if((__HAL_RCC_GET_SYSCLK_SOURCE() == RCC_CFGR_SWS_HSE)                                                                     ||\
 8002ae6:	4ba6      	ldr	r3, [pc, #664]	; (8002d80 <HAL_RCC_OscConfig+0x2a8>)
 8002ae8:	689b      	ldr	r3, [r3, #8]
 8002aea:	f003 030c 	and.w	r3, r3, #12
 8002aee:	2b04      	cmp	r3, #4
 8002af0:	d032      	beq.n	8002b58 <HAL_RCC_OscConfig+0x80>
      ((__HAL_RCC_GET_SYSCLK_SOURCE() == RCC_CFGR_SWS_PLL) && ((RCC->PLLCFGR & RCC_PLLCFGR_PLLSRC) == RCC_PLLCFGR_PLLSRC_HSE)) ||\
 8002af2:	4ba3      	ldr	r3, [pc, #652]	; (8002d80 <HAL_RCC_OscConfig+0x2a8>)
 8002af4:	689b      	ldr	r3, [r3, #8]
 8002af6:	f003 030c 	and.w	r3, r3, #12
    if((__HAL_RCC_GET_SYSCLK_SOURCE() == RCC_CFGR_SWS_HSE)                                                                     ||\
 8002afa:	2b08      	cmp	r3, #8
 8002afc:	d027      	beq.n	8002b4e <HAL_RCC_OscConfig+0x76>
      ((__HAL_RCC_GET_SYSCLK_SOURCE() == RCC_CFGR_SWS_PLLR) && ((RCC->PLLCFGR & RCC_PLLCFGR_PLLSRC) == RCC_PLLCFGR_PLLSRC_HSE)))
 8002afe:	4ba0      	ldr	r3, [pc, #640]	; (8002d80 <HAL_RCC_OscConfig+0x2a8>)
 8002b00:	689b      	ldr	r3, [r3, #8]
 8002b02:	f003 030c 	and.w	r3, r3, #12
      ((__HAL_RCC_GET_SYSCLK_SOURCE() == RCC_CFGR_SWS_PLL) && ((RCC->PLLCFGR & RCC_PLLCFGR_PLLSRC) == RCC_PLLCFGR_PLLSRC_HSE)) ||\
 8002b06:	2b0c      	cmp	r3, #12
 8002b08:	d059      	beq.n	8002bbe <HAL_RCC_OscConfig+0xe6>
      }
    }
    else
    {
      /* Set the new HSE configuration ---------------------------------------*/
      __HAL_RCC_HSE_CONFIG(RCC_OscInitStruct->HSEState);
 8002b0a:	6863      	ldr	r3, [r4, #4]
 8002b0c:	f5b3 3f80 	cmp.w	r3, #65536	; 0x10000
 8002b10:	d05b      	beq.n	8002bca <HAL_RCC_OscConfig+0xf2>
 8002b12:	f5b3 2fa0 	cmp.w	r3, #327680	; 0x50000
 8002b16:	d05e      	beq.n	8002bd6 <HAL_RCC_OscConfig+0xfe>
 8002b18:	4b99      	ldr	r3, [pc, #612]	; (8002d80 <HAL_RCC_OscConfig+0x2a8>)
 8002b1a:	681a      	ldr	r2, [r3, #0]
 8002b1c:	f422 3280 	bic.w	r2, r2, #65536	; 0x10000
 8002b20:	601a      	str	r2, [r3, #0]
 8002b22:	681a      	ldr	r2, [r3, #0]
 8002b24:	f422 2280 	bic.w	r2, r2, #262144	; 0x40000
 8002b28:	601a      	str	r2, [r3, #0]

      /* Check the HSE State */
      if((RCC_OscInitStruct->HSEState) != RCC_HSE_OFF)
 8002b2a:	6863      	ldr	r3, [r4, #4]
 8002b2c:	2b00      	cmp	r3, #0
 8002b2e:	d05c      	beq.n	8002bea <HAL_RCC_OscConfig+0x112>
      {
        /* Get Start Tick*/
        tickstart = HAL_GetTick();
 8002b30:	f7fe fa2a 	bl	8000f88 <HAL_GetTick>
 8002b34:	4605      	mov	r5, r0

        /* Wait till HSE is ready */
        while(__HAL_RCC_GET_FLAG(RCC_FLAG_HSERDY) == RESET)
 8002b36:	4b92      	ldr	r3, [pc, #584]	; (8002d80 <HAL_RCC_OscConfig+0x2a8>)
 8002b38:	681b      	ldr	r3, [r3, #0]
 8002b3a:	f413 3f00 	tst.w	r3, #131072	; 0x20000
 8002b3e:	d114      	bne.n	8002b6a <HAL_RCC_OscConfig+0x92>
        {
          if((HAL_GetTick() - tickstart ) > HSE_TIMEOUT_VALUE)
 8002b40:	f7fe fa22 	bl	8000f88 <HAL_GetTick>
 8002b44:	1b40      	subs	r0, r0, r5
 8002b46:	2864      	cmp	r0, #100	; 0x64
 8002b48:	d9f5      	bls.n	8002b36 <HAL_RCC_OscConfig+0x5e>
          {
            return HAL_TIMEOUT;
 8002b4a:	2003      	movs	r0, #3
 8002b4c:	e19d      	b.n	8002e8a <HAL_RCC_OscConfig+0x3b2>
      ((__HAL_RCC_GET_SYSCLK_SOURCE() == RCC_CFGR_SWS_PLL) && ((RCC->PLLCFGR & RCC_PLLCFGR_PLLSRC) == RCC_PLLCFGR_PLLSRC_HSE)) ||\
 8002b4e:	4b8c      	ldr	r3, [pc, #560]	; (8002d80 <HAL_RCC_OscConfig+0x2a8>)
 8002b50:	685b      	ldr	r3, [r3, #4]
 8002b52:	f413 0f80 	tst.w	r3, #4194304	; 0x400000
 8002b56:	d0d2      	beq.n	8002afe <HAL_RCC_OscConfig+0x26>
      if((__HAL_RCC_GET_FLAG(RCC_FLAG_HSERDY) != RESET) && (RCC_OscInitStruct->HSEState == RCC_HSE_OFF))
 8002b58:	4b89      	ldr	r3, [pc, #548]	; (8002d80 <HAL_RCC_OscConfig+0x2a8>)
 8002b5a:	681b      	ldr	r3, [r3, #0]
 8002b5c:	f413 3f00 	tst.w	r3, #131072	; 0x20000
 8002b60:	d003      	beq.n	8002b6a <HAL_RCC_OscConfig+0x92>
 8002b62:	6863      	ldr	r3, [r4, #4]
 8002b64:	2b00      	cmp	r3, #0
 8002b66:	f000 818d 	beq.w	8002e84 <HAL_RCC_OscConfig+0x3ac>
        }
      }
    }
  }
  /*----------------------------- HSI Configuration --------------------------*/
  if(((RCC_OscInitStruct->OscillatorType) & RCC_OSCILLATORTYPE_HSI) == RCC_OSCILLATORTYPE_HSI)
 8002b6a:	6823      	ldr	r3, [r4, #0]
 8002b6c:	f013 0f02 	tst.w	r3, #2
 8002b70:	d067      	beq.n	8002c42 <HAL_RCC_OscConfig+0x16a>
    assert_param(IS_RCC_HSI(RCC_OscInitStruct->HSIState));
    assert_param(IS_RCC_CALIBRATION_VALUE(RCC_OscInitStruct->HSICalibrationValue));

    /* Check if HSI is used as system clock or as PLL source when PLL is selected as system clock */
#if defined(STM32F446xx)
    if((__HAL_RCC_GET_SYSCLK_SOURCE() == RCC_CFGR_SWS_HSI)                                                                     ||\
 8002b72:	4b83      	ldr	r3, [pc, #524]	; (8002d80 <HAL_RCC_OscConfig+0x2a8>)
 8002b74:	689b      	ldr	r3, [r3, #8]
 8002b76:	f013 0f0c 	tst.w	r3, #12
 8002b7a:	d04a      	beq.n	8002c12 <HAL_RCC_OscConfig+0x13a>
      ((__HAL_RCC_GET_SYSCLK_SOURCE() == RCC_CFGR_SWS_PLL) && ((RCC->PLLCFGR & RCC_PLLCFGR_PLLSRC) == RCC_PLLCFGR_PLLSRC_HSI)) ||\
 8002b7c:	4b80      	ldr	r3, [pc, #512]	; (8002d80 <HAL_RCC_OscConfig+0x2a8>)
 8002b7e:	689b      	ldr	r3, [r3, #8]
 8002b80:	f003 030c 	and.w	r3, r3, #12
    if((__HAL_RCC_GET_SYSCLK_SOURCE() == RCC_CFGR_SWS_HSI)                                                                     ||\
 8002b84:	2b08      	cmp	r3, #8
 8002b86:	d03f      	beq.n	8002c08 <HAL_RCC_OscConfig+0x130>
      ((__HAL_RCC_GET_SYSCLK_SOURCE() == RCC_CFGR_SWS_PLLR) && ((RCC->PLLCFGR & RCC_PLLCFGR_PLLSRC) == RCC_PLLCFGR_PLLSRC_HSI)))
 8002b88:	4b7d      	ldr	r3, [pc, #500]	; (8002d80 <HAL_RCC_OscConfig+0x2a8>)
 8002b8a:	689b      	ldr	r3, [r3, #8]
 8002b8c:	f003 030c 	and.w	r3, r3, #12
      ((__HAL_RCC_GET_SYSCLK_SOURCE() == RCC_CFGR_SWS_PLL) && ((RCC->PLLCFGR & RCC_PLLCFGR_PLLSRC) == RCC_PLLCFGR_PLLSRC_HSI)) ||\
 8002b90:	2b0c      	cmp	r3, #12
 8002b92:	d048      	beq.n	8002c26 <HAL_RCC_OscConfig+0x14e>
      }
    }
    else
    {
      /* Check the HSI State */
      if((RCC_OscInitStruct->HSIState)!= RCC_HSI_OFF)
 8002b94:	68e3      	ldr	r3, [r4, #12]
 8002b96:	2b00      	cmp	r3, #0
 8002b98:	d074      	beq.n	8002c84 <HAL_RCC_OscConfig+0x1ac>
      {
        /* Enable the Internal High Speed oscillator (HSI). */
        __HAL_RCC_HSI_ENABLE();
 8002b9a:	2201      	movs	r2, #1
 8002b9c:	4b79      	ldr	r3, [pc, #484]	; (8002d84 <HAL_RCC_OscConfig+0x2ac>)
 8002b9e:	601a      	str	r2, [r3, #0]

        /* Get Start Tick*/
        tickstart = HAL_GetTick();
 8002ba0:	f7fe f9f2 	bl	8000f88 <HAL_GetTick>
 8002ba4:	4605      	mov	r5, r0

        /* Wait till HSI is ready */
        while(__HAL_RCC_GET_FLAG(RCC_FLAG_HSIRDY) == RESET)
 8002ba6:	4b76      	ldr	r3, [pc, #472]	; (8002d80 <HAL_RCC_OscConfig+0x2a8>)
 8002ba8:	681b      	ldr	r3, [r3, #0]
 8002baa:	f013 0f02 	tst.w	r3, #2
 8002bae:	d160      	bne.n	8002c72 <HAL_RCC_OscConfig+0x19a>
        {
          if((HAL_GetTick() - tickstart ) > HSI_TIMEOUT_VALUE)
 8002bb0:	f7fe f9ea 	bl	8000f88 <HAL_GetTick>
 8002bb4:	1b40      	subs	r0, r0, r5
 8002bb6:	2802      	cmp	r0, #2
 8002bb8:	d9f5      	bls.n	8002ba6 <HAL_RCC_OscConfig+0xce>
          {
            return HAL_TIMEOUT;
 8002bba:	2003      	movs	r0, #3
 8002bbc:	e165      	b.n	8002e8a <HAL_RCC_OscConfig+0x3b2>
      ((__HAL_RCC_GET_SYSCLK_SOURCE() == RCC_CFGR_SWS_PLLR) && ((RCC->PLLCFGR & RCC_PLLCFGR_PLLSRC) == RCC_PLLCFGR_PLLSRC_HSE)))
 8002bbe:	4b70      	ldr	r3, [pc, #448]	; (8002d80 <HAL_RCC_OscConfig+0x2a8>)
 8002bc0:	685b      	ldr	r3, [r3, #4]
 8002bc2:	f413 0f80 	tst.w	r3, #4194304	; 0x400000
 8002bc6:	d0a0      	beq.n	8002b0a <HAL_RCC_OscConfig+0x32>
 8002bc8:	e7c6      	b.n	8002b58 <HAL_RCC_OscConfig+0x80>
      __HAL_RCC_HSE_CONFIG(RCC_OscInitStruct->HSEState);
 8002bca:	4a6d      	ldr	r2, [pc, #436]	; (8002d80 <HAL_RCC_OscConfig+0x2a8>)
 8002bcc:	6813      	ldr	r3, [r2, #0]
 8002bce:	f443 3380 	orr.w	r3, r3, #65536	; 0x10000
 8002bd2:	6013      	str	r3, [r2, #0]
 8002bd4:	e7a9      	b.n	8002b2a <HAL_RCC_OscConfig+0x52>
 8002bd6:	4b6a      	ldr	r3, [pc, #424]	; (8002d80 <HAL_RCC_OscConfig+0x2a8>)
 8002bd8:	681a      	ldr	r2, [r3, #0]
 8002bda:	f442 2280 	orr.w	r2, r2, #262144	; 0x40000
 8002bde:	601a      	str	r2, [r3, #0]
 8002be0:	681a      	ldr	r2, [r3, #0]
 8002be2:	f442 3280 	orr.w	r2, r2, #65536	; 0x10000
 8002be6:	601a      	str	r2, [r3, #0]
 8002be8:	e79f      	b.n	8002b2a <HAL_RCC_OscConfig+0x52>
        tickstart = HAL_GetTick();
 8002bea:	f7fe f9cd 	bl	8000f88 <HAL_GetTick>
 8002bee:	4605      	mov	r5, r0
        while(__HAL_RCC_GET_FLAG(RCC_FLAG_HSERDY) != RESET)
 8002bf0:	4b63      	ldr	r3, [pc, #396]	; (8002d80 <HAL_RCC_OscConfig+0x2a8>)
 8002bf2:	681b      	ldr	r3, [r3, #0]
 8002bf4:	f413 3f00 	tst.w	r3, #131072	; 0x20000
 8002bf8:	d0b7      	beq.n	8002b6a <HAL_RCC_OscConfig+0x92>
          if((HAL_GetTick() - tickstart ) > HSE_TIMEOUT_VALUE)
 8002bfa:	f7fe f9c5 	bl	8000f88 <HAL_GetTick>
 8002bfe:	1b40      	subs	r0, r0, r5
 8002c00:	2864      	cmp	r0, #100	; 0x64
 8002c02:	d9f5      	bls.n	8002bf0 <HAL_RCC_OscConfig+0x118>
            return HAL_TIMEOUT;
 8002c04:	2003      	movs	r0, #3
 8002c06:	e140      	b.n	8002e8a <HAL_RCC_OscConfig+0x3b2>
      ((__HAL_RCC_GET_SYSCLK_SOURCE() == RCC_CFGR_SWS_PLL) && ((RCC->PLLCFGR & RCC_PLLCFGR_PLLSRC) == RCC_PLLCFGR_PLLSRC_HSI)) ||\
 8002c08:	4b5d      	ldr	r3, [pc, #372]	; (8002d80 <HAL_RCC_OscConfig+0x2a8>)
 8002c0a:	685b      	ldr	r3, [r3, #4]
 8002c0c:	f413 0f80 	tst.w	r3, #4194304	; 0x400000
 8002c10:	d1ba      	bne.n	8002b88 <HAL_RCC_OscConfig+0xb0>
      if((__HAL_RCC_GET_FLAG(RCC_FLAG_HSIRDY) != RESET) && (RCC_OscInitStruct->HSIState != RCC_HSI_ON))
 8002c12:	4b5b      	ldr	r3, [pc, #364]	; (8002d80 <HAL_RCC_OscConfig+0x2a8>)
 8002c14:	681b      	ldr	r3, [r3, #0]
 8002c16:	f013 0f02 	tst.w	r3, #2
 8002c1a:	d00a      	beq.n	8002c32 <HAL_RCC_OscConfig+0x15a>
 8002c1c:	68e3      	ldr	r3, [r4, #12]
 8002c1e:	2b01      	cmp	r3, #1
 8002c20:	d007      	beq.n	8002c32 <HAL_RCC_OscConfig+0x15a>
        return HAL_ERROR;
 8002c22:	2001      	movs	r0, #1
 8002c24:	e131      	b.n	8002e8a <HAL_RCC_OscConfig+0x3b2>
      ((__HAL_RCC_GET_SYSCLK_SOURCE() == RCC_CFGR_SWS_PLLR) && ((RCC->PLLCFGR & RCC_PLLCFGR_PLLSRC) == RCC_PLLCFGR_PLLSRC_HSI)))
 8002c26:	4b56      	ldr	r3, [pc, #344]	; (8002d80 <HAL_RCC_OscConfig+0x2a8>)
 8002c28:	685b      	ldr	r3, [r3, #4]
 8002c2a:	f413 0f80 	tst.w	r3, #4194304	; 0x400000
 8002c2e:	d1b1      	bne.n	8002b94 <HAL_RCC_OscConfig+0xbc>
 8002c30:	e7ef      	b.n	8002c12 <HAL_RCC_OscConfig+0x13a>
        __HAL_RCC_HSI_CALIBRATIONVALUE_ADJUST(RCC_OscInitStruct->HSICalibrationValue);
 8002c32:	4a53      	ldr	r2, [pc, #332]	; (8002d80 <HAL_RCC_OscConfig+0x2a8>)
 8002c34:	6813      	ldr	r3, [r2, #0]
 8002c36:	f023 03f8 	bic.w	r3, r3, #248	; 0xf8
 8002c3a:	6921      	ldr	r1, [r4, #16]
 8002c3c:	ea43 03c1 	orr.w	r3, r3, r1, lsl #3
 8002c40:	6013      	str	r3, [r2, #0]
        }
      }
    }
  }
  /*------------------------------ LSI Configuration -------------------------*/
  if(((RCC_OscInitStruct->OscillatorType) & RCC_OSCILLATORTYPE_LSI) == RCC_OSCILLATORTYPE_LSI)
 8002c42:	6823      	ldr	r3, [r4, #0]
 8002c44:	f013 0f08 	tst.w	r3, #8
 8002c48:	d040      	beq.n	8002ccc <HAL_RCC_OscConfig+0x1f4>
  {
    /* Check the parameters */
    assert_param(IS_RCC_LSI(RCC_OscInitStruct->LSIState));

    /* Check the LSI State */
    if((RCC_OscInitStruct->LSIState)!= RCC_LSI_OFF)
 8002c4a:	6963      	ldr	r3, [r4, #20]
 8002c4c:	b363      	cbz	r3, 8002ca8 <HAL_RCC_OscConfig+0x1d0>
    {
      /* Enable the Internal Low Speed oscillator (LSI). */
      __HAL_RCC_LSI_ENABLE();
 8002c4e:	2201      	movs	r2, #1
 8002c50:	4b4d      	ldr	r3, [pc, #308]	; (8002d88 <HAL_RCC_OscConfig+0x2b0>)
 8002c52:	601a      	str	r2, [r3, #0]

      /* Get Start Tick*/
      tickstart = HAL_GetTick();
 8002c54:	f7fe f998 	bl	8000f88 <HAL_GetTick>
 8002c58:	4605      	mov	r5, r0

      /* Wait till LSI is ready */
      while(__HAL_RCC_GET_FLAG(RCC_FLAG_LSIRDY) == RESET)
 8002c5a:	4b49      	ldr	r3, [pc, #292]	; (8002d80 <HAL_RCC_OscConfig+0x2a8>)
 8002c5c:	6f5b      	ldr	r3, [r3, #116]	; 0x74
 8002c5e:	f013 0f02 	tst.w	r3, #2
 8002c62:	d133      	bne.n	8002ccc <HAL_RCC_OscConfig+0x1f4>
      {
        if((HAL_GetTick() - tickstart ) > LSI_TIMEOUT_VALUE)
 8002c64:	f7fe f990 	bl	8000f88 <HAL_GetTick>
 8002c68:	1b40      	subs	r0, r0, r5
 8002c6a:	2802      	cmp	r0, #2
 8002c6c:	d9f5      	bls.n	8002c5a <HAL_RCC_OscConfig+0x182>
        {
          return HAL_TIMEOUT;
 8002c6e:	2003      	movs	r0, #3
 8002c70:	e10b      	b.n	8002e8a <HAL_RCC_OscConfig+0x3b2>
        __HAL_RCC_HSI_CALIBRATIONVALUE_ADJUST(RCC_OscInitStruct->HSICalibrationValue);
 8002c72:	4a43      	ldr	r2, [pc, #268]	; (8002d80 <HAL_RCC_OscConfig+0x2a8>)
 8002c74:	6813      	ldr	r3, [r2, #0]
 8002c76:	f023 03f8 	bic.w	r3, r3, #248	; 0xf8
 8002c7a:	6921      	ldr	r1, [r4, #16]
 8002c7c:	ea43 03c1 	orr.w	r3, r3, r1, lsl #3
 8002c80:	6013      	str	r3, [r2, #0]
 8002c82:	e7de      	b.n	8002c42 <HAL_RCC_OscConfig+0x16a>
        __HAL_RCC_HSI_DISABLE();
 8002c84:	2200      	movs	r2, #0
 8002c86:	4b3f      	ldr	r3, [pc, #252]	; (8002d84 <HAL_RCC_OscConfig+0x2ac>)
 8002c88:	601a      	str	r2, [r3, #0]
        tickstart = HAL_GetTick();
 8002c8a:	f7fe f97d 	bl	8000f88 <HAL_GetTick>
 8002c8e:	4605      	mov	r5, r0
        while(__HAL_RCC_GET_FLAG(RCC_FLAG_HSIRDY) != RESET)
 8002c90:	4b3b      	ldr	r3, [pc, #236]	; (8002d80 <HAL_RCC_OscConfig+0x2a8>)
 8002c92:	681b      	ldr	r3, [r3, #0]
 8002c94:	f013 0f02 	tst.w	r3, #2
 8002c98:	d0d3      	beq.n	8002c42 <HAL_RCC_OscConfig+0x16a>
          if((HAL_GetTick() - tickstart ) > HSI_TIMEOUT_VALUE)
 8002c9a:	f7fe f975 	bl	8000f88 <HAL_GetTick>
 8002c9e:	1b40      	subs	r0, r0, r5
 8002ca0:	2802      	cmp	r0, #2
 8002ca2:	d9f5      	bls.n	8002c90 <HAL_RCC_OscConfig+0x1b8>
            return HAL_TIMEOUT;
 8002ca4:	2003      	movs	r0, #3
 8002ca6:	e0f0      	b.n	8002e8a <HAL_RCC_OscConfig+0x3b2>
      }
    }
    else
    {
      /* Disable the Internal Low Speed oscillator (LSI). */
      __HAL_RCC_LSI_DISABLE();
 8002ca8:	2200      	movs	r2, #0
 8002caa:	4b37      	ldr	r3, [pc, #220]	; (8002d88 <HAL_RCC_OscConfig+0x2b0>)
 8002cac:	601a      	str	r2, [r3, #0]

      /* Get Start Tick*/
      tickstart = HAL_GetTick();
 8002cae:	f7fe f96b 	bl	8000f88 <HAL_GetTick>
 8002cb2:	4605      	mov	r5, r0

      /* Wait till LSI is ready */
      while(__HAL_RCC_GET_FLAG(RCC_FLAG_LSIRDY) != RESET)
 8002cb4:	4b32      	ldr	r3, [pc, #200]	; (8002d80 <HAL_RCC_OscConfig+0x2a8>)
 8002cb6:	6f5b      	ldr	r3, [r3, #116]	; 0x74
 8002cb8:	f013 0f02 	tst.w	r3, #2
 8002cbc:	d006      	beq.n	8002ccc <HAL_RCC_OscConfig+0x1f4>
      {
        if((HAL_GetTick() - tickstart ) > LSI_TIMEOUT_VALUE)
 8002cbe:	f7fe f963 	bl	8000f88 <HAL_GetTick>
 8002cc2:	1b40      	subs	r0, r0, r5
 8002cc4:	2802      	cmp	r0, #2
 8002cc6:	d9f5      	bls.n	8002cb4 <HAL_RCC_OscConfig+0x1dc>
        {
          return HAL_TIMEOUT;
 8002cc8:	2003      	movs	r0, #3
 8002cca:	e0de      	b.n	8002e8a <HAL_RCC_OscConfig+0x3b2>
        }
      }
    }
  }
  /*------------------------------ LSE Configuration -------------------------*/
  if(((RCC_OscInitStruct->OscillatorType) & RCC_OSCILLATORTYPE_LSE) == RCC_OSCILLATORTYPE_LSE)
 8002ccc:	6823      	ldr	r3, [r4, #0]
 8002cce:	f013 0f04 	tst.w	r3, #4
 8002cd2:	d079      	beq.n	8002dc8 <HAL_RCC_OscConfig+0x2f0>
    /* Check the parameters */
    assert_param(IS_RCC_LSE(RCC_OscInitStruct->LSEState));

    /* Update LSE configuration in Backup Domain control register    */
    /* Requires to enable write access to Backup Domain of necessary */
    if(__HAL_RCC_PWR_IS_CLK_DISABLED())
 8002cd4:	4b2a      	ldr	r3, [pc, #168]	; (8002d80 <HAL_RCC_OscConfig+0x2a8>)
 8002cd6:	6c1b      	ldr	r3, [r3, #64]	; 0x40
 8002cd8:	f013 5f80 	tst.w	r3, #268435456	; 0x10000000
 8002cdc:	d133      	bne.n	8002d46 <HAL_RCC_OscConfig+0x26e>
    {
      __HAL_RCC_PWR_CLK_ENABLE();
 8002cde:	2300      	movs	r3, #0
 8002ce0:	9301      	str	r3, [sp, #4]
 8002ce2:	4b27      	ldr	r3, [pc, #156]	; (8002d80 <HAL_RCC_OscConfig+0x2a8>)
 8002ce4:	6c1a      	ldr	r2, [r3, #64]	; 0x40
 8002ce6:	f042 5280 	orr.w	r2, r2, #268435456	; 0x10000000
 8002cea:	641a      	str	r2, [r3, #64]	; 0x40
 8002cec:	6c1b      	ldr	r3, [r3, #64]	; 0x40
 8002cee:	f003 5380 	and.w	r3, r3, #268435456	; 0x10000000
 8002cf2:	9301      	str	r3, [sp, #4]
 8002cf4:	9b01      	ldr	r3, [sp, #4]
      pwrclkchanged = SET;
 8002cf6:	2501      	movs	r5, #1
    }

    if(HAL_IS_BIT_CLR(PWR->CR, PWR_CR_DBP))
 8002cf8:	4b24      	ldr	r3, [pc, #144]	; (8002d8c <HAL_RCC_OscConfig+0x2b4>)
 8002cfa:	681b      	ldr	r3, [r3, #0]
 8002cfc:	f413 7f80 	tst.w	r3, #256	; 0x100
 8002d00:	d023      	beq.n	8002d4a <HAL_RCC_OscConfig+0x272>
        }
      }
    }

    /* Set the new LSE configuration -----------------------------------------*/
    __HAL_RCC_LSE_CONFIG(RCC_OscInitStruct->LSEState);
 8002d02:	68a3      	ldr	r3, [r4, #8]
 8002d04:	2b01      	cmp	r3, #1
 8002d06:	d034      	beq.n	8002d72 <HAL_RCC_OscConfig+0x29a>
 8002d08:	2b05      	cmp	r3, #5
 8002d0a:	d041      	beq.n	8002d90 <HAL_RCC_OscConfig+0x2b8>
 8002d0c:	4b1c      	ldr	r3, [pc, #112]	; (8002d80 <HAL_RCC_OscConfig+0x2a8>)
 8002d0e:	6f1a      	ldr	r2, [r3, #112]	; 0x70
 8002d10:	f022 0201 	bic.w	r2, r2, #1
 8002d14:	671a      	str	r2, [r3, #112]	; 0x70
 8002d16:	6f1a      	ldr	r2, [r3, #112]	; 0x70
 8002d18:	f022 0204 	bic.w	r2, r2, #4
 8002d1c:	671a      	str	r2, [r3, #112]	; 0x70
    /* Check the LSE State */
    if((RCC_OscInitStruct->LSEState) != RCC_LSE_OFF)
 8002d1e:	68a3      	ldr	r3, [r4, #8]
 8002d20:	2b00      	cmp	r3, #0
 8002d22:	d03f      	beq.n	8002da4 <HAL_RCC_OscConfig+0x2cc>
    {
      /* Get Start Tick*/
      tickstart = HAL_GetTick();
 8002d24:	f7fe f930 	bl	8000f88 <HAL_GetTick>
 8002d28:	4606      	mov	r6, r0

      /* Wait till LSE is ready */
      while(__HAL_RCC_GET_FLAG(RCC_FLAG_LSERDY) == RESET)
 8002d2a:	4b15      	ldr	r3, [pc, #84]	; (8002d80 <HAL_RCC_OscConfig+0x2a8>)
 8002d2c:	6f1b      	ldr	r3, [r3, #112]	; 0x70
 8002d2e:	f013 0f02 	tst.w	r3, #2
 8002d32:	d148      	bne.n	8002dc6 <HAL_RCC_OscConfig+0x2ee>
      {
        if((HAL_GetTick() - tickstart ) > RCC_LSE_TIMEOUT_VALUE)
 8002d34:	f7fe f928 	bl	8000f88 <HAL_GetTick>
 8002d38:	1b80      	subs	r0, r0, r6
 8002d3a:	f241 3388 	movw	r3, #5000	; 0x1388
 8002d3e:	4298      	cmp	r0, r3
 8002d40:	d9f3      	bls.n	8002d2a <HAL_RCC_OscConfig+0x252>
        {
          return HAL_TIMEOUT;
 8002d42:	2003      	movs	r0, #3
 8002d44:	e0a1      	b.n	8002e8a <HAL_RCC_OscConfig+0x3b2>
    FlagStatus       pwrclkchanged = RESET;
 8002d46:	2500      	movs	r5, #0
 8002d48:	e7d6      	b.n	8002cf8 <HAL_RCC_OscConfig+0x220>
      SET_BIT(PWR->CR, PWR_CR_DBP);
 8002d4a:	4a10      	ldr	r2, [pc, #64]	; (8002d8c <HAL_RCC_OscConfig+0x2b4>)
 8002d4c:	6813      	ldr	r3, [r2, #0]
 8002d4e:	f443 7380 	orr.w	r3, r3, #256	; 0x100
 8002d52:	6013      	str	r3, [r2, #0]
      tickstart = HAL_GetTick();
 8002d54:	f7fe f918 	bl	8000f88 <HAL_GetTick>
 8002d58:	4606      	mov	r6, r0
      while(HAL_IS_BIT_CLR(PWR->CR, PWR_CR_DBP))
 8002d5a:	4b0c      	ldr	r3, [pc, #48]	; (8002d8c <HAL_RCC_OscConfig+0x2b4>)
 8002d5c:	681b      	ldr	r3, [r3, #0]
 8002d5e:	f413 7f80 	tst.w	r3, #256	; 0x100
 8002d62:	d1ce      	bne.n	8002d02 <HAL_RCC_OscConfig+0x22a>
        if((HAL_GetTick() - tickstart) > RCC_DBP_TIMEOUT_VALUE)
 8002d64:	f7fe f910 	bl	8000f88 <HAL_GetTick>
 8002d68:	1b80      	subs	r0, r0, r6
 8002d6a:	2802      	cmp	r0, #2
 8002d6c:	d9f5      	bls.n	8002d5a <HAL_RCC_OscConfig+0x282>
          return HAL_TIMEOUT;
 8002d6e:	2003      	movs	r0, #3
 8002d70:	e08b      	b.n	8002e8a <HAL_RCC_OscConfig+0x3b2>
    __HAL_RCC_LSE_CONFIG(RCC_OscInitStruct->LSEState);
 8002d72:	4a03      	ldr	r2, [pc, #12]	; (8002d80 <HAL_RCC_OscConfig+0x2a8>)
 8002d74:	6f13      	ldr	r3, [r2, #112]	; 0x70
 8002d76:	f043 0301 	orr.w	r3, r3, #1
 8002d7a:	6713      	str	r3, [r2, #112]	; 0x70
 8002d7c:	e7cf      	b.n	8002d1e <HAL_RCC_OscConfig+0x246>
 8002d7e:	bf00      	nop
 8002d80:	40023800 	.word	0x40023800
 8002d84:	42470000 	.word	0x42470000
 8002d88:	42470e80 	.word	0x42470e80
 8002d8c:	40007000 	.word	0x40007000
 8002d90:	4b40      	ldr	r3, [pc, #256]	; (8002e94 <HAL_RCC_OscConfig+0x3bc>)
 8002d92:	6f1a      	ldr	r2, [r3, #112]	; 0x70
 8002d94:	f042 0204 	orr.w	r2, r2, #4
 8002d98:	671a      	str	r2, [r3, #112]	; 0x70
 8002d9a:	6f1a      	ldr	r2, [r3, #112]	; 0x70
 8002d9c:	f042 0201 	orr.w	r2, r2, #1
 8002da0:	671a      	str	r2, [r3, #112]	; 0x70
 8002da2:	e7bc      	b.n	8002d1e <HAL_RCC_OscConfig+0x246>
      }
    }
    else
    {
      /* Get Start Tick*/
      tickstart = HAL_GetTick();
 8002da4:	f7fe f8f0 	bl	8000f88 <HAL_GetTick>
 8002da8:	4606      	mov	r6, r0

      /* Wait till LSE is ready */
      while(__HAL_RCC_GET_FLAG(RCC_FLAG_LSERDY) != RESET)
 8002daa:	4b3a      	ldr	r3, [pc, #232]	; (8002e94 <HAL_RCC_OscConfig+0x3bc>)
 8002dac:	6f1b      	ldr	r3, [r3, #112]	; 0x70
 8002dae:	f013 0f02 	tst.w	r3, #2
 8002db2:	d008      	beq.n	8002dc6 <HAL_RCC_OscConfig+0x2ee>
      {
        if((HAL_GetTick() - tickstart ) > RCC_LSE_TIMEOUT_VALUE)
 8002db4:	f7fe f8e8 	bl	8000f88 <HAL_GetTick>
 8002db8:	1b80      	subs	r0, r0, r6
 8002dba:	f241 3388 	movw	r3, #5000	; 0x1388
 8002dbe:	4298      	cmp	r0, r3
 8002dc0:	d9f3      	bls.n	8002daa <HAL_RCC_OscConfig+0x2d2>
        {
          return HAL_TIMEOUT;
 8002dc2:	2003      	movs	r0, #3
 8002dc4:	e061      	b.n	8002e8a <HAL_RCC_OscConfig+0x3b2>
        }
      }
    }

    /* Restore clock configuration if changed */
    if(pwrclkchanged == SET)
 8002dc6:	b9e5      	cbnz	r5, 8002e02 <HAL_RCC_OscConfig+0x32a>
    }
  }
  /*-------------------------------- PLL Configuration -----------------------*/
  /* Check the parameters */
  assert_param(IS_RCC_PLL(RCC_OscInitStruct->PLL.PLLState));
  if ((RCC_OscInitStruct->PLL.PLLState) != RCC_PLL_NONE)
 8002dc8:	69a3      	ldr	r3, [r4, #24]
 8002dca:	2b00      	cmp	r3, #0
 8002dcc:	d05c      	beq.n	8002e88 <HAL_RCC_OscConfig+0x3b0>
  {
    /* Check if the PLL is used as system clock or not */
    if(__HAL_RCC_GET_SYSCLK_SOURCE() != RCC_CFGR_SWS_PLL)
 8002dce:	4a31      	ldr	r2, [pc, #196]	; (8002e94 <HAL_RCC_OscConfig+0x3bc>)
 8002dd0:	6892      	ldr	r2, [r2, #8]
 8002dd2:	f002 020c 	and.w	r2, r2, #12
 8002dd6:	2a08      	cmp	r2, #8
 8002dd8:	d059      	beq.n	8002e8e <HAL_RCC_OscConfig+0x3b6>
    {
      if((RCC_OscInitStruct->PLL.PLLState) == RCC_PLL_ON)
 8002dda:	2b02      	cmp	r3, #2
 8002ddc:	d017      	beq.n	8002e0e <HAL_RCC_OscConfig+0x336>
        }
      }
      else
      {
        /* Disable the main PLL. */
        __HAL_RCC_PLL_DISABLE();
 8002dde:	2200      	movs	r2, #0
 8002de0:	4b2d      	ldr	r3, [pc, #180]	; (8002e98 <HAL_RCC_OscConfig+0x3c0>)
 8002de2:	601a      	str	r2, [r3, #0]

        /* Get Start Tick*/
        tickstart = HAL_GetTick();
 8002de4:	f7fe f8d0 	bl	8000f88 <HAL_GetTick>
 8002de8:	4604      	mov	r4, r0

        /* Wait till PLL is ready */
        while(__HAL_RCC_GET_FLAG(RCC_FLAG_PLLRDY) != RESET)
 8002dea:	4b2a      	ldr	r3, [pc, #168]	; (8002e94 <HAL_RCC_OscConfig+0x3bc>)
 8002dec:	681b      	ldr	r3, [r3, #0]
 8002dee:	f013 7f00 	tst.w	r3, #33554432	; 0x2000000
 8002df2:	d045      	beq.n	8002e80 <HAL_RCC_OscConfig+0x3a8>
        {
          if((HAL_GetTick() - tickstart ) > PLL_TIMEOUT_VALUE)
 8002df4:	f7fe f8c8 	bl	8000f88 <HAL_GetTick>
 8002df8:	1b00      	subs	r0, r0, r4
 8002dfa:	2802      	cmp	r0, #2
 8002dfc:	d9f5      	bls.n	8002dea <HAL_RCC_OscConfig+0x312>
          {
            return HAL_TIMEOUT;
 8002dfe:	2003      	movs	r0, #3
 8002e00:	e043      	b.n	8002e8a <HAL_RCC_OscConfig+0x3b2>
      __HAL_RCC_PWR_CLK_DISABLE();
 8002e02:	4a24      	ldr	r2, [pc, #144]	; (8002e94 <HAL_RCC_OscConfig+0x3bc>)
 8002e04:	6c13      	ldr	r3, [r2, #64]	; 0x40
 8002e06:	f023 5380 	bic.w	r3, r3, #268435456	; 0x10000000
 8002e0a:	6413      	str	r3, [r2, #64]	; 0x40
 8002e0c:	e7dc      	b.n	8002dc8 <HAL_RCC_OscConfig+0x2f0>
        __HAL_RCC_PLL_DISABLE();
 8002e0e:	2200      	movs	r2, #0
 8002e10:	4b21      	ldr	r3, [pc, #132]	; (8002e98 <HAL_RCC_OscConfig+0x3c0>)
 8002e12:	601a      	str	r2, [r3, #0]
        tickstart = HAL_GetTick();
 8002e14:	f7fe f8b8 	bl	8000f88 <HAL_GetTick>
 8002e18:	4605      	mov	r5, r0
        while(__HAL_RCC_GET_FLAG(RCC_FLAG_PLLRDY) != RESET)
 8002e1a:	4b1e      	ldr	r3, [pc, #120]	; (8002e94 <HAL_RCC_OscConfig+0x3bc>)
 8002e1c:	681b      	ldr	r3, [r3, #0]
 8002e1e:	f013 7f00 	tst.w	r3, #33554432	; 0x2000000
 8002e22:	d006      	beq.n	8002e32 <HAL_RCC_OscConfig+0x35a>
          if((HAL_GetTick() - tickstart ) > PLL_TIMEOUT_VALUE)
 8002e24:	f7fe f8b0 	bl	8000f88 <HAL_GetTick>
 8002e28:	1b40      	subs	r0, r0, r5
 8002e2a:	2802      	cmp	r0, #2
 8002e2c:	d9f5      	bls.n	8002e1a <HAL_RCC_OscConfig+0x342>
            return HAL_TIMEOUT;
 8002e2e:	2003      	movs	r0, #3
 8002e30:	e02b      	b.n	8002e8a <HAL_RCC_OscConfig+0x3b2>
        __HAL_RCC_PLL_CONFIG(RCC_OscInitStruct->PLL.PLLSource,
 8002e32:	69e3      	ldr	r3, [r4, #28]
 8002e34:	6a22      	ldr	r2, [r4, #32]
 8002e36:	4313      	orrs	r3, r2
 8002e38:	6a62      	ldr	r2, [r4, #36]	; 0x24
 8002e3a:	ea43 1382 	orr.w	r3, r3, r2, lsl #6
 8002e3e:	6aa2      	ldr	r2, [r4, #40]	; 0x28
 8002e40:	0852      	lsrs	r2, r2, #1
 8002e42:	3a01      	subs	r2, #1
 8002e44:	ea43 4302 	orr.w	r3, r3, r2, lsl #16
 8002e48:	6ae2      	ldr	r2, [r4, #44]	; 0x2c
 8002e4a:	ea43 6302 	orr.w	r3, r3, r2, lsl #24
 8002e4e:	6b22      	ldr	r2, [r4, #48]	; 0x30
 8002e50:	ea43 7302 	orr.w	r3, r3, r2, lsl #28
 8002e54:	4a0f      	ldr	r2, [pc, #60]	; (8002e94 <HAL_RCC_OscConfig+0x3bc>)
 8002e56:	6053      	str	r3, [r2, #4]
        __HAL_RCC_PLL_ENABLE();
 8002e58:	2201      	movs	r2, #1
 8002e5a:	4b0f      	ldr	r3, [pc, #60]	; (8002e98 <HAL_RCC_OscConfig+0x3c0>)
 8002e5c:	601a      	str	r2, [r3, #0]
        tickstart = HAL_GetTick();
 8002e5e:	f7fe f893 	bl	8000f88 <HAL_GetTick>
 8002e62:	4604      	mov	r4, r0
        while(__HAL_RCC_GET_FLAG(RCC_FLAG_PLLRDY) == RESET)
 8002e64:	4b0b      	ldr	r3, [pc, #44]	; (8002e94 <HAL_RCC_OscConfig+0x3bc>)
 8002e66:	681b      	ldr	r3, [r3, #0]
 8002e68:	f013 7f00 	tst.w	r3, #33554432	; 0x2000000
 8002e6c:	d106      	bne.n	8002e7c <HAL_RCC_OscConfig+0x3a4>
          if((HAL_GetTick() - tickstart ) > PLL_TIMEOUT_VALUE)
 8002e6e:	f7fe f88b 	bl	8000f88 <HAL_GetTick>
 8002e72:	1b00      	subs	r0, r0, r4
 8002e74:	2802      	cmp	r0, #2
 8002e76:	d9f5      	bls.n	8002e64 <HAL_RCC_OscConfig+0x38c>
            return HAL_TIMEOUT;
 8002e78:	2003      	movs	r0, #3
 8002e7a:	e006      	b.n	8002e8a <HAL_RCC_OscConfig+0x3b2>
    else
    {
      return HAL_ERROR;
    }
  }
  return HAL_OK;
 8002e7c:	2000      	movs	r0, #0
 8002e7e:	e004      	b.n	8002e8a <HAL_RCC_OscConfig+0x3b2>
 8002e80:	2000      	movs	r0, #0
 8002e82:	e002      	b.n	8002e8a <HAL_RCC_OscConfig+0x3b2>
        return HAL_ERROR;
 8002e84:	2001      	movs	r0, #1
 8002e86:	e000      	b.n	8002e8a <HAL_RCC_OscConfig+0x3b2>
  return HAL_OK;
 8002e88:	2000      	movs	r0, #0
}
 8002e8a:	b002      	add	sp, #8
 8002e8c:	bd70      	pop	{r4, r5, r6, pc}
      return HAL_ERROR;
 8002e8e:	2001      	movs	r0, #1
 8002e90:	e7fb      	b.n	8002e8a <HAL_RCC_OscConfig+0x3b2>
 8002e92:	bf00      	nop
 8002e94:	40023800 	.word	0x40023800
 8002e98:	42470060 	.word	0x42470060

08002e9c <SPI_WaitFlagStateUntilTimeout>:
  * @param Timeout Timeout duration
  * @param Tickstart tick start value
  * @retval HAL status
  */
static HAL_StatusTypeDef SPI_WaitFlagStateUntilTimeout(SPI_HandleTypeDef *hspi, uint32_t Flag, uint32_t State, uint32_t Timeout, uint32_t Tickstart)
{
 8002e9c:	b5f8      	push	{r3, r4, r5, r6, r7, lr}
 8002e9e:	4605      	mov	r5, r0
 8002ea0:	460f      	mov	r7, r1
 8002ea2:	4616      	mov	r6, r2
 8002ea4:	461c      	mov	r4, r3
  while((((hspi->Instance->SR & Flag) == (Flag)) ? SET : RESET) != State)
 8002ea6:	e03b      	b.n	8002f20 <SPI_WaitFlagStateUntilTimeout+0x84>
  {
    if(Timeout != HAL_MAX_DELAY)
    {
      if((Timeout == 0U) || ((HAL_GetTick()-Tickstart) >= Timeout))
 8002ea8:	b12c      	cbz	r4, 8002eb6 <SPI_WaitFlagStateUntilTimeout+0x1a>
 8002eaa:	f7fe f86d 	bl	8000f88 <HAL_GetTick>
 8002eae:	9b06      	ldr	r3, [sp, #24]
 8002eb0:	1ac0      	subs	r0, r0, r3
 8002eb2:	4284      	cmp	r4, r0
 8002eb4:	d834      	bhi.n	8002f20 <SPI_WaitFlagStateUntilTimeout+0x84>
        /* Disable the SPI and reset the CRC: the CRC value should be cleared
        on both master and slave sides in order to resynchronize the master
        and slave for their respective CRC calculation */

        /* Disable TXE, RXNE and ERR interrupts for the interrupt process */
        __HAL_SPI_DISABLE_IT(hspi, (SPI_IT_TXE | SPI_IT_RXNE | SPI_IT_ERR));
 8002eb6:	682a      	ldr	r2, [r5, #0]
 8002eb8:	6853      	ldr	r3, [r2, #4]
 8002eba:	f023 03e0 	bic.w	r3, r3, #224	; 0xe0
 8002ebe:	6053      	str	r3, [r2, #4]

        if((hspi->Init.Mode == SPI_MODE_MASTER)&&((hspi->Init.Direction == SPI_DIRECTION_1LINE)||(hspi->Init.Direction == SPI_DIRECTION_2LINES_RXONLY)))
 8002ec0:	686b      	ldr	r3, [r5, #4]
 8002ec2:	f5b3 7f82 	cmp.w	r3, #260	; 0x104
 8002ec6:	d00b      	beq.n	8002ee0 <SPI_WaitFlagStateUntilTimeout+0x44>
          /* Disable SPI peripheral */
          __HAL_SPI_DISABLE(hspi);
        }

        /* Reset CRC Calculation */
        if(hspi->Init.CRCCalculation == SPI_CRCCALCULATION_ENABLE)
 8002ec8:	6aab      	ldr	r3, [r5, #40]	; 0x28
 8002eca:	f5b3 5f00 	cmp.w	r3, #8192	; 0x2000
 8002ece:	d014      	beq.n	8002efa <SPI_WaitFlagStateUntilTimeout+0x5e>
        {
          SPI_RESET_CRC(hspi);
        }

        hspi->State= HAL_SPI_STATE_READY;
 8002ed0:	2301      	movs	r3, #1
 8002ed2:	f885 3051 	strb.w	r3, [r5, #81]	; 0x51

        /* Process Unlocked */
        __HAL_UNLOCK(hspi);
 8002ed6:	2300      	movs	r3, #0
 8002ed8:	f885 3050 	strb.w	r3, [r5, #80]	; 0x50

        return HAL_TIMEOUT;
 8002edc:	2003      	movs	r0, #3
 8002ede:	bdf8      	pop	{r3, r4, r5, r6, r7, pc}
        if((hspi->Init.Mode == SPI_MODE_MASTER)&&((hspi->Init.Direction == SPI_DIRECTION_1LINE)||(hspi->Init.Direction == SPI_DIRECTION_2LINES_RXONLY)))
 8002ee0:	68ab      	ldr	r3, [r5, #8]
 8002ee2:	f5b3 4f00 	cmp.w	r3, #32768	; 0x8000
 8002ee6:	d002      	beq.n	8002eee <SPI_WaitFlagStateUntilTimeout+0x52>
 8002ee8:	f5b3 6f80 	cmp.w	r3, #1024	; 0x400
 8002eec:	d1ec      	bne.n	8002ec8 <SPI_WaitFlagStateUntilTimeout+0x2c>
          __HAL_SPI_DISABLE(hspi);
 8002eee:	682a      	ldr	r2, [r5, #0]
 8002ef0:	6813      	ldr	r3, [r2, #0]
 8002ef2:	f023 0340 	bic.w	r3, r3, #64	; 0x40
 8002ef6:	6013      	str	r3, [r2, #0]
 8002ef8:	e7e6      	b.n	8002ec8 <SPI_WaitFlagStateUntilTimeout+0x2c>
          SPI_RESET_CRC(hspi);
 8002efa:	682a      	ldr	r2, [r5, #0]
 8002efc:	6813      	ldr	r3, [r2, #0]
 8002efe:	f423 5300 	bic.w	r3, r3, #8192	; 0x2000
 8002f02:	041b      	lsls	r3, r3, #16
 8002f04:	0c1b      	lsrs	r3, r3, #16
 8002f06:	6013      	str	r3, [r2, #0]
 8002f08:	682a      	ldr	r2, [r5, #0]
 8002f0a:	6813      	ldr	r3, [r2, #0]
 8002f0c:	f443 5300 	orr.w	r3, r3, #8192	; 0x2000
 8002f10:	6013      	str	r3, [r2, #0]
 8002f12:	e7dd      	b.n	8002ed0 <SPI_WaitFlagStateUntilTimeout+0x34>
  while((((hspi->Instance->SR & Flag) == (Flag)) ? SET : RESET) != State)
 8002f14:	2301      	movs	r3, #1
 8002f16:	42b3      	cmp	r3, r6
 8002f18:	d009      	beq.n	8002f2e <SPI_WaitFlagStateUntilTimeout+0x92>
    if(Timeout != HAL_MAX_DELAY)
 8002f1a:	f1b4 3fff 	cmp.w	r4, #4294967295
 8002f1e:	d1c3      	bne.n	8002ea8 <SPI_WaitFlagStateUntilTimeout+0xc>
  while((((hspi->Instance->SR & Flag) == (Flag)) ? SET : RESET) != State)
 8002f20:	682b      	ldr	r3, [r5, #0]
 8002f22:	689b      	ldr	r3, [r3, #8]
 8002f24:	ea37 0303 	bics.w	r3, r7, r3
 8002f28:	d0f4      	beq.n	8002f14 <SPI_WaitFlagStateUntilTimeout+0x78>
 8002f2a:	2300      	movs	r3, #0
 8002f2c:	e7f3      	b.n	8002f16 <SPI_WaitFlagStateUntilTimeout+0x7a>
      }
    }
  }

  return HAL_OK;
 8002f2e:	2000      	movs	r0, #0
}
 8002f30:	bdf8      	pop	{r3, r4, r5, r6, r7, pc}

08002f32 <SPI_CheckFlag_BSY>:
  * @param Timeout Timeout duration
  * @param Tickstart tick start value
  * @retval HAL status
  */
static HAL_StatusTypeDef SPI_CheckFlag_BSY(SPI_HandleTypeDef *hspi, uint32_t Timeout, uint32_t Tickstart)
{
 8002f32:	b510      	push	{r4, lr}
 8002f34:	b082      	sub	sp, #8
 8002f36:	4604      	mov	r4, r0
  /* Control the BSY flag */
  if(SPI_WaitFlagStateUntilTimeout(hspi, SPI_FLAG_BSY, RESET, Timeout, Tickstart) != HAL_OK)
 8002f38:	9200      	str	r2, [sp, #0]
 8002f3a:	460b      	mov	r3, r1
 8002f3c:	2200      	movs	r2, #0
 8002f3e:	2180      	movs	r1, #128	; 0x80
 8002f40:	f7ff ffac 	bl	8002e9c <SPI_WaitFlagStateUntilTimeout>
 8002f44:	4603      	mov	r3, r0
 8002f46:	b120      	cbz	r0, 8002f52 <SPI_CheckFlag_BSY+0x20>
  {
    SET_BIT(hspi->ErrorCode, HAL_SPI_ERROR_FLAG);
 8002f48:	6d63      	ldr	r3, [r4, #84]	; 0x54
 8002f4a:	f043 0320 	orr.w	r3, r3, #32
 8002f4e:	6563      	str	r3, [r4, #84]	; 0x54
    return HAL_TIMEOUT;
 8002f50:	2303      	movs	r3, #3
  }
  return HAL_OK;
}
 8002f52:	4618      	mov	r0, r3
 8002f54:	b002      	add	sp, #8
 8002f56:	bd10      	pop	{r4, pc}

08002f58 <HAL_SPI_Init>:
  if(hspi == NULL)
 8002f58:	2800      	cmp	r0, #0
 8002f5a:	d03b      	beq.n	8002fd4 <HAL_SPI_Init+0x7c>
{
 8002f5c:	b510      	push	{r4, lr}
 8002f5e:	4604      	mov	r4, r0
  hspi->Init.CRCCalculation = SPI_CRCCALCULATION_DISABLE;
 8002f60:	2300      	movs	r3, #0
 8002f62:	6283      	str	r3, [r0, #40]	; 0x28
  if(hspi->State == HAL_SPI_STATE_RESET)
 8002f64:	f890 3051 	ldrb.w	r3, [r0, #81]	; 0x51
 8002f68:	2b00      	cmp	r3, #0
 8002f6a:	d02e      	beq.n	8002fca <HAL_SPI_Init+0x72>
  hspi->State = HAL_SPI_STATE_BUSY;
 8002f6c:	2302      	movs	r3, #2
 8002f6e:	f884 3051 	strb.w	r3, [r4, #81]	; 0x51
  __HAL_SPI_DISABLE(hspi);
 8002f72:	6822      	ldr	r2, [r4, #0]
 8002f74:	6813      	ldr	r3, [r2, #0]
 8002f76:	f023 0340 	bic.w	r3, r3, #64	; 0x40
 8002f7a:	6013      	str	r3, [r2, #0]
  WRITE_REG(hspi->Instance->CR1, (hspi->Init.Mode | hspi->Init.Direction | hspi->Init.DataSize |
 8002f7c:	6822      	ldr	r2, [r4, #0]
 8002f7e:	6863      	ldr	r3, [r4, #4]
 8002f80:	68a1      	ldr	r1, [r4, #8]
 8002f82:	430b      	orrs	r3, r1
 8002f84:	68e1      	ldr	r1, [r4, #12]
 8002f86:	430b      	orrs	r3, r1
 8002f88:	6921      	ldr	r1, [r4, #16]
 8002f8a:	430b      	orrs	r3, r1
 8002f8c:	6961      	ldr	r1, [r4, #20]
 8002f8e:	430b      	orrs	r3, r1
 8002f90:	69a1      	ldr	r1, [r4, #24]
 8002f92:	f401 7100 	and.w	r1, r1, #512	; 0x200
 8002f96:	430b      	orrs	r3, r1
 8002f98:	69e1      	ldr	r1, [r4, #28]
 8002f9a:	430b      	orrs	r3, r1
 8002f9c:	6a21      	ldr	r1, [r4, #32]
 8002f9e:	430b      	orrs	r3, r1
 8002fa0:	6aa1      	ldr	r1, [r4, #40]	; 0x28
 8002fa2:	430b      	orrs	r3, r1
 8002fa4:	6013      	str	r3, [r2, #0]
  WRITE_REG(hspi->Instance->CR2, (((hspi->Init.NSS >> 16U) & SPI_CR2_SSOE) | hspi->Init.TIMode));
 8002fa6:	6822      	ldr	r2, [r4, #0]
 8002fa8:	8b63      	ldrh	r3, [r4, #26]
 8002faa:	f003 0304 	and.w	r3, r3, #4
 8002fae:	6a61      	ldr	r1, [r4, #36]	; 0x24
 8002fb0:	430b      	orrs	r3, r1
 8002fb2:	6053      	str	r3, [r2, #4]
  CLEAR_BIT(hspi->Instance->I2SCFGR, SPI_I2SCFGR_I2SMOD);
 8002fb4:	6822      	ldr	r2, [r4, #0]
 8002fb6:	69d3      	ldr	r3, [r2, #28]
 8002fb8:	f423 6300 	bic.w	r3, r3, #2048	; 0x800
 8002fbc:	61d3      	str	r3, [r2, #28]
  hspi->ErrorCode = HAL_SPI_ERROR_NONE;
 8002fbe:	2000      	movs	r0, #0
 8002fc0:	6560      	str	r0, [r4, #84]	; 0x54
  hspi->State     = HAL_SPI_STATE_READY;
 8002fc2:	2301      	movs	r3, #1
 8002fc4:	f884 3051 	strb.w	r3, [r4, #81]	; 0x51
  return HAL_OK;
 8002fc8:	bd10      	pop	{r4, pc}
    hspi->Lock = HAL_UNLOCKED;
 8002fca:	f880 3050 	strb.w	r3, [r0, #80]	; 0x50
    HAL_SPI_MspInit(hspi);
 8002fce:	f001 fda3 	bl	8004b18 <HAL_SPI_MspInit>
 8002fd2:	e7cb      	b.n	8002f6c <HAL_SPI_Init+0x14>
    return HAL_ERROR;
 8002fd4:	2001      	movs	r0, #1
 8002fd6:	4770      	bx	lr

08002fd8 <HAL_SPI_TransmitReceive>:
{
 8002fd8:	e92d 43f0 	stmdb	sp!, {r4, r5, r6, r7, r8, r9, lr}
 8002fdc:	b085      	sub	sp, #20
 8002fde:	4698      	mov	r8, r3
 8002fe0:	9d0c      	ldr	r5, [sp, #48]	; 0x30
  __HAL_LOCK(hspi);
 8002fe2:	f890 3050 	ldrb.w	r3, [r0, #80]	; 0x50
 8002fe6:	2b01      	cmp	r3, #1
 8002fe8:	d104      	bne.n	8002ff4 <HAL_SPI_TransmitReceive+0x1c>
 8002fea:	2302      	movs	r3, #2
}
 8002fec:	4618      	mov	r0, r3
 8002fee:	b005      	add	sp, #20
 8002ff0:	e8bd 83f0 	ldmia.w	sp!, {r4, r5, r6, r7, r8, r9, pc}
 8002ff4:	4604      	mov	r4, r0
 8002ff6:	460f      	mov	r7, r1
 8002ff8:	4616      	mov	r6, r2
  __HAL_LOCK(hspi);
 8002ffa:	2301      	movs	r3, #1
 8002ffc:	f880 3050 	strb.w	r3, [r0, #80]	; 0x50
  tickstart = HAL_GetTick();
 8003000:	f7fd ffc2 	bl	8000f88 <HAL_GetTick>
 8003004:	4681      	mov	r9, r0
  tmp  = hspi->State;
 8003006:	f894 3051 	ldrb.w	r3, [r4, #81]	; 0x51
 800300a:	b2db      	uxtb	r3, r3
  tmp1 = hspi->Init.Mode;
 800300c:	6862      	ldr	r2, [r4, #4]
  if(!((tmp == HAL_SPI_STATE_READY) || \
 800300e:	2b01      	cmp	r3, #1
 8003010:	d012      	beq.n	8003038 <HAL_SPI_TransmitReceive+0x60>
 8003012:	f5b2 7f82 	cmp.w	r2, #260	; 0x104
 8003016:	d007      	beq.n	8003028 <HAL_SPI_TransmitReceive+0x50>
    errorcode = HAL_BUSY;
 8003018:	2302      	movs	r3, #2
  hspi->State = HAL_SPI_STATE_READY;
 800301a:	2201      	movs	r2, #1
 800301c:	f884 2051 	strb.w	r2, [r4, #81]	; 0x51
  __HAL_UNLOCK(hspi);
 8003020:	2200      	movs	r2, #0
 8003022:	f884 2050 	strb.w	r2, [r4, #80]	; 0x50
  return errorcode;
 8003026:	e7e1      	b.n	8002fec <HAL_SPI_TransmitReceive+0x14>
    ((tmp1 == SPI_MODE_MASTER) && (hspi->Init.Direction == SPI_DIRECTION_2LINES) && (tmp == HAL_SPI_STATE_BUSY_RX))))
 8003028:	68a2      	ldr	r2, [r4, #8]
 800302a:	2a00      	cmp	r2, #0
 800302c:	f040 80e9 	bne.w	8003202 <HAL_SPI_TransmitReceive+0x22a>
 8003030:	2b04      	cmp	r3, #4
 8003032:	d001      	beq.n	8003038 <HAL_SPI_TransmitReceive+0x60>
    errorcode = HAL_BUSY;
 8003034:	2302      	movs	r3, #2
 8003036:	e7f0      	b.n	800301a <HAL_SPI_TransmitReceive+0x42>
  if((pTxData == NULL) || (pRxData == NULL) || (Size == 0))
 8003038:	2f00      	cmp	r7, #0
 800303a:	f000 80e4 	beq.w	8003206 <HAL_SPI_TransmitReceive+0x22e>
 800303e:	2e00      	cmp	r6, #0
 8003040:	f000 80e3 	beq.w	800320a <HAL_SPI_TransmitReceive+0x232>
 8003044:	f1b8 0f00 	cmp.w	r8, #0
 8003048:	f000 80e1 	beq.w	800320e <HAL_SPI_TransmitReceive+0x236>
  if(hspi->State == HAL_SPI_STATE_READY)
 800304c:	f894 3051 	ldrb.w	r3, [r4, #81]	; 0x51
 8003050:	b2db      	uxtb	r3, r3
 8003052:	2b01      	cmp	r3, #1
 8003054:	d02c      	beq.n	80030b0 <HAL_SPI_TransmitReceive+0xd8>
  hspi->ErrorCode   = HAL_SPI_ERROR_NONE;
 8003056:	2300      	movs	r3, #0
 8003058:	6563      	str	r3, [r4, #84]	; 0x54
  hspi->pRxBuffPtr  = (uint8_t *)pRxData;
 800305a:	63a6      	str	r6, [r4, #56]	; 0x38
  hspi->RxXferCount = Size;
 800305c:	f8a4 803e 	strh.w	r8, [r4, #62]	; 0x3e
  hspi->RxXferSize  = Size;
 8003060:	f8a4 803c 	strh.w	r8, [r4, #60]	; 0x3c
  hspi->pTxBuffPtr  = (uint8_t *)pTxData;
 8003064:	6327      	str	r7, [r4, #48]	; 0x30
  hspi->TxXferCount = Size;
 8003066:	f8a4 8036 	strh.w	r8, [r4, #54]	; 0x36
  hspi->TxXferSize  = Size;
 800306a:	f8a4 8034 	strh.w	r8, [r4, #52]	; 0x34
  hspi->RxISR       = NULL;
 800306e:	6423      	str	r3, [r4, #64]	; 0x40
  hspi->TxISR       = NULL;
 8003070:	6463      	str	r3, [r4, #68]	; 0x44
  if((hspi->Instance->CR1 &SPI_CR1_SPE) != SPI_CR1_SPE)
 8003072:	6823      	ldr	r3, [r4, #0]
 8003074:	681a      	ldr	r2, [r3, #0]
 8003076:	f012 0f40 	tst.w	r2, #64	; 0x40
 800307a:	d103      	bne.n	8003084 <HAL_SPI_TransmitReceive+0xac>
    __HAL_SPI_ENABLE(hspi);
 800307c:	681a      	ldr	r2, [r3, #0]
 800307e:	f042 0240 	orr.w	r2, r2, #64	; 0x40
 8003082:	601a      	str	r2, [r3, #0]
  if(hspi->Init.DataSize == SPI_DATASIZE_16BIT)
 8003084:	68e3      	ldr	r3, [r4, #12]
 8003086:	f5b3 6f00 	cmp.w	r3, #2048	; 0x800
 800308a:	d015      	beq.n	80030b8 <HAL_SPI_TransmitReceive+0xe0>
    if((hspi->Init.Mode == SPI_MODE_SLAVE) || (hspi->TxXferCount == 0x01U))
 800308c:	6863      	ldr	r3, [r4, #4]
 800308e:	b11b      	cbz	r3, 8003098 <HAL_SPI_TransmitReceive+0xc0>
 8003090:	8ee3      	ldrh	r3, [r4, #54]	; 0x36
 8003092:	b29b      	uxth	r3, r3
 8003094:	2b01      	cmp	r3, #1
 8003096:	d108      	bne.n	80030aa <HAL_SPI_TransmitReceive+0xd2>
      *((__IO uint8_t*)&hspi->Instance->DR) = (*pTxData);
 8003098:	6823      	ldr	r3, [r4, #0]
 800309a:	f817 2b01 	ldrb.w	r2, [r7], #1
 800309e:	731a      	strb	r2, [r3, #12]
      hspi->TxXferCount--;
 80030a0:	8ee3      	ldrh	r3, [r4, #54]	; 0x36
 80030a2:	b29b      	uxth	r3, r3
 80030a4:	3b01      	subs	r3, #1
 80030a6:	b29b      	uxth	r3, r3
 80030a8:	86e3      	strh	r3, [r4, #54]	; 0x36
        txallowed = 1U;
 80030aa:	f04f 0801 	mov.w	r8, #1
 80030ae:	e069      	b.n	8003184 <HAL_SPI_TransmitReceive+0x1ac>
    hspi->State = HAL_SPI_STATE_BUSY_TX_RX;
 80030b0:	2305      	movs	r3, #5
 80030b2:	f884 3051 	strb.w	r3, [r4, #81]	; 0x51
 80030b6:	e7ce      	b.n	8003056 <HAL_SPI_TransmitReceive+0x7e>
    if((hspi->Init.Mode == SPI_MODE_SLAVE) || (hspi->TxXferCount == 0x01U))
 80030b8:	6863      	ldr	r3, [r4, #4]
 80030ba:	b11b      	cbz	r3, 80030c4 <HAL_SPI_TransmitReceive+0xec>
 80030bc:	8ee3      	ldrh	r3, [r4, #54]	; 0x36
 80030be:	b29b      	uxth	r3, r3
 80030c0:	2b01      	cmp	r3, #1
 80030c2:	d108      	bne.n	80030d6 <HAL_SPI_TransmitReceive+0xfe>
      hspi->Instance->DR = *((uint16_t *)pTxData);
 80030c4:	6823      	ldr	r3, [r4, #0]
 80030c6:	f837 2b02 	ldrh.w	r2, [r7], #2
 80030ca:	60da      	str	r2, [r3, #12]
      hspi->TxXferCount--;
 80030cc:	8ee3      	ldrh	r3, [r4, #54]	; 0x36
 80030ce:	b29b      	uxth	r3, r3
 80030d0:	3b01      	subs	r3, #1
 80030d2:	b29b      	uxth	r3, r3
 80030d4:	86e3      	strh	r3, [r4, #54]	; 0x36
        txallowed = 1U;
 80030d6:	f04f 0801 	mov.w	r8, #1
 80030da:	e01a      	b.n	8003112 <HAL_SPI_TransmitReceive+0x13a>
      if((hspi->RxXferCount > 0U) && (__HAL_SPI_GET_FLAG(hspi, SPI_FLAG_RXNE)))
 80030dc:	8fe3      	ldrh	r3, [r4, #62]	; 0x3e
 80030de:	b29b      	uxth	r3, r3
 80030e0:	b173      	cbz	r3, 8003100 <HAL_SPI_TransmitReceive+0x128>
 80030e2:	6823      	ldr	r3, [r4, #0]
 80030e4:	689a      	ldr	r2, [r3, #8]
 80030e6:	f012 0f01 	tst.w	r2, #1
 80030ea:	d009      	beq.n	8003100 <HAL_SPI_TransmitReceive+0x128>
        *((uint16_t *)pRxData) = hspi->Instance->DR;
 80030ec:	68db      	ldr	r3, [r3, #12]
 80030ee:	f826 3b02 	strh.w	r3, [r6], #2
        hspi->RxXferCount--;
 80030f2:	8fe3      	ldrh	r3, [r4, #62]	; 0x3e
 80030f4:	b29b      	uxth	r3, r3
 80030f6:	3b01      	subs	r3, #1
 80030f8:	b29b      	uxth	r3, r3
 80030fa:	87e3      	strh	r3, [r4, #62]	; 0x3e
        txallowed = 1U;
 80030fc:	f04f 0801 	mov.w	r8, #1
      if((Timeout != HAL_MAX_DELAY) && ((HAL_GetTick()-tickstart) >=  Timeout))
 8003100:	f1b5 3fff 	cmp.w	r5, #4294967295
 8003104:	d005      	beq.n	8003112 <HAL_SPI_TransmitReceive+0x13a>
 8003106:	f7fd ff3f 	bl	8000f88 <HAL_GetTick>
 800310a:	eba0 0009 	sub.w	r0, r0, r9
 800310e:	4285      	cmp	r5, r0
 8003110:	d97f      	bls.n	8003212 <HAL_SPI_TransmitReceive+0x23a>
    while ((hspi->TxXferCount > 0U) || (hspi->RxXferCount > 0U))
 8003112:	8ee3      	ldrh	r3, [r4, #54]	; 0x36
 8003114:	b29b      	uxth	r3, r3
 8003116:	b91b      	cbnz	r3, 8003120 <HAL_SPI_TransmitReceive+0x148>
 8003118:	8fe3      	ldrh	r3, [r4, #62]	; 0x3e
 800311a:	b29b      	uxth	r3, r3
 800311c:	2b00      	cmp	r3, #0
 800311e:	d04e      	beq.n	80031be <HAL_SPI_TransmitReceive+0x1e6>
      if(txallowed && (hspi->TxXferCount > 0U) && (__HAL_SPI_GET_FLAG(hspi, SPI_FLAG_TXE)))
 8003120:	f1b8 0f00 	cmp.w	r8, #0
 8003124:	d0da      	beq.n	80030dc <HAL_SPI_TransmitReceive+0x104>
 8003126:	8ee3      	ldrh	r3, [r4, #54]	; 0x36
 8003128:	b29b      	uxth	r3, r3
 800312a:	2b00      	cmp	r3, #0
 800312c:	d0d6      	beq.n	80030dc <HAL_SPI_TransmitReceive+0x104>
 800312e:	6823      	ldr	r3, [r4, #0]
 8003130:	689a      	ldr	r2, [r3, #8]
 8003132:	f012 0f02 	tst.w	r2, #2
 8003136:	d0d1      	beq.n	80030dc <HAL_SPI_TransmitReceive+0x104>
        hspi->Instance->DR = *((uint16_t *)pTxData);
 8003138:	f837 2b02 	ldrh.w	r2, [r7], #2
 800313c:	60da      	str	r2, [r3, #12]
        hspi->TxXferCount--;
 800313e:	8ee3      	ldrh	r3, [r4, #54]	; 0x36
 8003140:	b29b      	uxth	r3, r3
 8003142:	3b01      	subs	r3, #1
 8003144:	b29b      	uxth	r3, r3
 8003146:	86e3      	strh	r3, [r4, #54]	; 0x36
        txallowed = 0U;
 8003148:	f04f 0800 	mov.w	r8, #0
 800314c:	e7c6      	b.n	80030dc <HAL_SPI_TransmitReceive+0x104>
      if((hspi->RxXferCount > 0U) && (__HAL_SPI_GET_FLAG(hspi, SPI_FLAG_RXNE)))
 800314e:	8fe3      	ldrh	r3, [r4, #62]	; 0x3e
 8003150:	b29b      	uxth	r3, r3
 8003152:	b173      	cbz	r3, 8003172 <HAL_SPI_TransmitReceive+0x19a>
 8003154:	6823      	ldr	r3, [r4, #0]
 8003156:	689a      	ldr	r2, [r3, #8]
 8003158:	f012 0f01 	tst.w	r2, #1
 800315c:	d009      	beq.n	8003172 <HAL_SPI_TransmitReceive+0x19a>
        (*(uint8_t *)pRxData++) = hspi->Instance->DR;
 800315e:	68db      	ldr	r3, [r3, #12]
 8003160:	7033      	strb	r3, [r6, #0]
        hspi->RxXferCount--;
 8003162:	8fe3      	ldrh	r3, [r4, #62]	; 0x3e
 8003164:	b29b      	uxth	r3, r3
 8003166:	3b01      	subs	r3, #1
 8003168:	b29b      	uxth	r3, r3
 800316a:	87e3      	strh	r3, [r4, #62]	; 0x3e
        (*(uint8_t *)pRxData++) = hspi->Instance->DR;
 800316c:	3601      	adds	r6, #1
        txallowed = 1U;
 800316e:	f04f 0801 	mov.w	r8, #1
      if((Timeout != HAL_MAX_DELAY) && ((HAL_GetTick()-tickstart) >=  Timeout))
 8003172:	f1b5 3fff 	cmp.w	r5, #4294967295
 8003176:	d005      	beq.n	8003184 <HAL_SPI_TransmitReceive+0x1ac>
 8003178:	f7fd ff06 	bl	8000f88 <HAL_GetTick>
 800317c:	eba0 0009 	sub.w	r0, r0, r9
 8003180:	4285      	cmp	r5, r0
 8003182:	d948      	bls.n	8003216 <HAL_SPI_TransmitReceive+0x23e>
    while((hspi->TxXferCount > 0U) || (hspi->RxXferCount > 0U))
 8003184:	8ee3      	ldrh	r3, [r4, #54]	; 0x36
 8003186:	b29b      	uxth	r3, r3
 8003188:	b913      	cbnz	r3, 8003190 <HAL_SPI_TransmitReceive+0x1b8>
 800318a:	8fe3      	ldrh	r3, [r4, #62]	; 0x3e
 800318c:	b29b      	uxth	r3, r3
 800318e:	b1b3      	cbz	r3, 80031be <HAL_SPI_TransmitReceive+0x1e6>
      if(txallowed && (hspi->TxXferCount > 0U) && (__HAL_SPI_GET_FLAG(hspi, SPI_FLAG_TXE)))
 8003190:	f1b8 0f00 	cmp.w	r8, #0
 8003194:	d0db      	beq.n	800314e <HAL_SPI_TransmitReceive+0x176>
 8003196:	8ee3      	ldrh	r3, [r4, #54]	; 0x36
 8003198:	b29b      	uxth	r3, r3
 800319a:	2b00      	cmp	r3, #0
 800319c:	d0d7      	beq.n	800314e <HAL_SPI_TransmitReceive+0x176>
 800319e:	6823      	ldr	r3, [r4, #0]
 80031a0:	689a      	ldr	r2, [r3, #8]
 80031a2:	f012 0f02 	tst.w	r2, #2
 80031a6:	d0d2      	beq.n	800314e <HAL_SPI_TransmitReceive+0x176>
        *(__IO uint8_t *)&hspi->Instance->DR = (*pTxData++);
 80031a8:	783a      	ldrb	r2, [r7, #0]
 80031aa:	731a      	strb	r2, [r3, #12]
        hspi->TxXferCount--;
 80031ac:	8ee3      	ldrh	r3, [r4, #54]	; 0x36
 80031ae:	b29b      	uxth	r3, r3
 80031b0:	3b01      	subs	r3, #1
 80031b2:	b29b      	uxth	r3, r3
 80031b4:	86e3      	strh	r3, [r4, #54]	; 0x36
        *(__IO uint8_t *)&hspi->Instance->DR = (*pTxData++);
 80031b6:	3701      	adds	r7, #1
        txallowed = 0U;
 80031b8:	f04f 0800 	mov.w	r8, #0
 80031bc:	e7c7      	b.n	800314e <HAL_SPI_TransmitReceive+0x176>
  if(SPI_WaitFlagStateUntilTimeout(hspi, SPI_FLAG_TXE, SET, Timeout, tickstart) != HAL_OK)
 80031be:	f8cd 9000 	str.w	r9, [sp]
 80031c2:	462b      	mov	r3, r5
 80031c4:	2201      	movs	r2, #1
 80031c6:	2102      	movs	r1, #2
 80031c8:	4620      	mov	r0, r4
 80031ca:	f7ff fe67 	bl	8002e9c <SPI_WaitFlagStateUntilTimeout>
 80031ce:	b108      	cbz	r0, 80031d4 <HAL_SPI_TransmitReceive+0x1fc>
    errorcode = HAL_TIMEOUT;
 80031d0:	2303      	movs	r3, #3
 80031d2:	e722      	b.n	800301a <HAL_SPI_TransmitReceive+0x42>
  if(SPI_CheckFlag_BSY(hspi, Timeout, tickstart) != HAL_OK)
 80031d4:	464a      	mov	r2, r9
 80031d6:	4629      	mov	r1, r5
 80031d8:	4620      	mov	r0, r4
 80031da:	f7ff feaa 	bl	8002f32 <SPI_CheckFlag_BSY>
 80031de:	4603      	mov	r3, r0
 80031e0:	b118      	cbz	r0, 80031ea <HAL_SPI_TransmitReceive+0x212>
    hspi->ErrorCode = HAL_SPI_ERROR_FLAG;
 80031e2:	2320      	movs	r3, #32
 80031e4:	6563      	str	r3, [r4, #84]	; 0x54
    errorcode = HAL_ERROR;
 80031e6:	2301      	movs	r3, #1
    goto error;
 80031e8:	e717      	b.n	800301a <HAL_SPI_TransmitReceive+0x42>
  if(hspi->Init.Direction == SPI_DIRECTION_2LINES)
 80031ea:	68a2      	ldr	r2, [r4, #8]
 80031ec:	2a00      	cmp	r2, #0
 80031ee:	f47f af14 	bne.w	800301a <HAL_SPI_TransmitReceive+0x42>
    __HAL_SPI_CLEAR_OVRFLAG(hspi);
 80031f2:	9203      	str	r2, [sp, #12]
 80031f4:	6822      	ldr	r2, [r4, #0]
 80031f6:	68d1      	ldr	r1, [r2, #12]
 80031f8:	9103      	str	r1, [sp, #12]
 80031fa:	6892      	ldr	r2, [r2, #8]
 80031fc:	9203      	str	r2, [sp, #12]
 80031fe:	9a03      	ldr	r2, [sp, #12]
 8003200:	e70b      	b.n	800301a <HAL_SPI_TransmitReceive+0x42>
    errorcode = HAL_BUSY;
 8003202:	2302      	movs	r3, #2
 8003204:	e709      	b.n	800301a <HAL_SPI_TransmitReceive+0x42>
    errorcode = HAL_ERROR;
 8003206:	2301      	movs	r3, #1
 8003208:	e707      	b.n	800301a <HAL_SPI_TransmitReceive+0x42>
 800320a:	2301      	movs	r3, #1
 800320c:	e705      	b.n	800301a <HAL_SPI_TransmitReceive+0x42>
 800320e:	2301      	movs	r3, #1
 8003210:	e703      	b.n	800301a <HAL_SPI_TransmitReceive+0x42>
        errorcode = HAL_TIMEOUT;
 8003212:	2303      	movs	r3, #3
 8003214:	e701      	b.n	800301a <HAL_SPI_TransmitReceive+0x42>
        errorcode = HAL_TIMEOUT;
 8003216:	2303      	movs	r3, #3
 8003218:	e6ff      	b.n	800301a <HAL_SPI_TransmitReceive+0x42>
	...

0800321c <HAL_SPI_TransmitReceive_IT>:
{
 800321c:	b430      	push	{r4, r5}
  __HAL_LOCK(hspi);
 800321e:	f890 4050 	ldrb.w	r4, [r0, #80]	; 0x50
 8003222:	2c01      	cmp	r4, #1
 8003224:	d055      	beq.n	80032d2 <HAL_SPI_TransmitReceive_IT+0xb6>
 8003226:	2401      	movs	r4, #1
 8003228:	f880 4050 	strb.w	r4, [r0, #80]	; 0x50
  tmp  = hspi->State;
 800322c:	f890 4051 	ldrb.w	r4, [r0, #81]	; 0x51
 8003230:	b2e4      	uxtb	r4, r4
  tmp1 = hspi->Init.Mode;
 8003232:	6845      	ldr	r5, [r0, #4]
  if(!((tmp == HAL_SPI_STATE_READY) || \
 8003234:	2c01      	cmp	r4, #1
 8003236:	d010      	beq.n	800325a <HAL_SPI_TransmitReceive_IT+0x3e>
 8003238:	f5b5 7f82 	cmp.w	r5, #260	; 0x104
 800323c:	d006      	beq.n	800324c <HAL_SPI_TransmitReceive_IT+0x30>
    errorcode = HAL_BUSY;
 800323e:	2302      	movs	r3, #2
  __HAL_UNLOCK(hspi);
 8003240:	2200      	movs	r2, #0
 8003242:	f880 2050 	strb.w	r2, [r0, #80]	; 0x50
}
 8003246:	4618      	mov	r0, r3
 8003248:	bc30      	pop	{r4, r5}
 800324a:	4770      	bx	lr
    ((tmp1 == SPI_MODE_MASTER) && (hspi->Init.Direction == SPI_DIRECTION_2LINES) && (tmp == HAL_SPI_STATE_BUSY_RX))))
 800324c:	6885      	ldr	r5, [r0, #8]
 800324e:	2d00      	cmp	r5, #0
 8003250:	d135      	bne.n	80032be <HAL_SPI_TransmitReceive_IT+0xa2>
 8003252:	2c04      	cmp	r4, #4
 8003254:	d001      	beq.n	800325a <HAL_SPI_TransmitReceive_IT+0x3e>
    errorcode = HAL_BUSY;
 8003256:	2302      	movs	r3, #2
 8003258:	e7f2      	b.n	8003240 <HAL_SPI_TransmitReceive_IT+0x24>
  if((pTxData == NULL ) || (pRxData == NULL ) || (Size == 0))
 800325a:	2900      	cmp	r1, #0
 800325c:	d031      	beq.n	80032c2 <HAL_SPI_TransmitReceive_IT+0xa6>
 800325e:	2a00      	cmp	r2, #0
 8003260:	d031      	beq.n	80032c6 <HAL_SPI_TransmitReceive_IT+0xaa>
 8003262:	2b00      	cmp	r3, #0
 8003264:	d031      	beq.n	80032ca <HAL_SPI_TransmitReceive_IT+0xae>
  if(hspi->State == HAL_SPI_STATE_READY)
 8003266:	f890 4051 	ldrb.w	r4, [r0, #81]	; 0x51
 800326a:	b2e4      	uxtb	r4, r4
 800326c:	2c01      	cmp	r4, #1
 800326e:	d01d      	beq.n	80032ac <HAL_SPI_TransmitReceive_IT+0x90>
  hspi->ErrorCode   = HAL_SPI_ERROR_NONE;
 8003270:	2400      	movs	r4, #0
 8003272:	6544      	str	r4, [r0, #84]	; 0x54
  hspi->pTxBuffPtr  = (uint8_t *)pTxData;
 8003274:	6301      	str	r1, [r0, #48]	; 0x30
  hspi->TxXferSize  = Size;
 8003276:	8683      	strh	r3, [r0, #52]	; 0x34
  hspi->TxXferCount = Size;
 8003278:	86c3      	strh	r3, [r0, #54]	; 0x36
  hspi->pRxBuffPtr  = (uint8_t *)pRxData;
 800327a:	6382      	str	r2, [r0, #56]	; 0x38
  hspi->RxXferSize  = Size;
 800327c:	8783      	strh	r3, [r0, #60]	; 0x3c
  hspi->RxXferCount = Size;
 800327e:	87c3      	strh	r3, [r0, #62]	; 0x3e
  if(hspi->Init.DataSize > SPI_DATASIZE_8BIT )
 8003280:	68c3      	ldr	r3, [r0, #12]
 8003282:	b1bb      	cbz	r3, 80032b4 <HAL_SPI_TransmitReceive_IT+0x98>
    hspi->RxISR     = SPI_2linesRxISR_16BIT;
 8003284:	4b14      	ldr	r3, [pc, #80]	; (80032d8 <HAL_SPI_TransmitReceive_IT+0xbc>)
 8003286:	6403      	str	r3, [r0, #64]	; 0x40
    hspi->TxISR     = SPI_2linesTxISR_16BIT;
 8003288:	4b14      	ldr	r3, [pc, #80]	; (80032dc <HAL_SPI_TransmitReceive_IT+0xc0>)
 800328a:	6443      	str	r3, [r0, #68]	; 0x44
  __HAL_SPI_ENABLE_IT(hspi, (SPI_IT_TXE | SPI_IT_RXNE | SPI_IT_ERR));
 800328c:	6802      	ldr	r2, [r0, #0]
 800328e:	6853      	ldr	r3, [r2, #4]
 8003290:	f043 03e0 	orr.w	r3, r3, #224	; 0xe0
 8003294:	6053      	str	r3, [r2, #4]
  if((hspi->Instance->CR1 &SPI_CR1_SPE) != SPI_CR1_SPE)
 8003296:	6803      	ldr	r3, [r0, #0]
 8003298:	681a      	ldr	r2, [r3, #0]
 800329a:	f012 0f40 	tst.w	r2, #64	; 0x40
 800329e:	d116      	bne.n	80032ce <HAL_SPI_TransmitReceive_IT+0xb2>
    __HAL_SPI_ENABLE(hspi);
 80032a0:	681a      	ldr	r2, [r3, #0]
 80032a2:	f042 0240 	orr.w	r2, r2, #64	; 0x40
 80032a6:	601a      	str	r2, [r3, #0]
  HAL_StatusTypeDef errorcode = HAL_OK;
 80032a8:	2300      	movs	r3, #0
 80032aa:	e7c9      	b.n	8003240 <HAL_SPI_TransmitReceive_IT+0x24>
    hspi->State = HAL_SPI_STATE_BUSY_TX_RX;
 80032ac:	2405      	movs	r4, #5
 80032ae:	f880 4051 	strb.w	r4, [r0, #81]	; 0x51
 80032b2:	e7dd      	b.n	8003270 <HAL_SPI_TransmitReceive_IT+0x54>
    hspi->RxISR     = SPI_2linesRxISR_8BIT;
 80032b4:	4b0a      	ldr	r3, [pc, #40]	; (80032e0 <HAL_SPI_TransmitReceive_IT+0xc4>)
 80032b6:	6403      	str	r3, [r0, #64]	; 0x40
    hspi->TxISR     = SPI_2linesTxISR_8BIT;
 80032b8:	4b0a      	ldr	r3, [pc, #40]	; (80032e4 <HAL_SPI_TransmitReceive_IT+0xc8>)
 80032ba:	6443      	str	r3, [r0, #68]	; 0x44
 80032bc:	e7e6      	b.n	800328c <HAL_SPI_TransmitReceive_IT+0x70>
    errorcode = HAL_BUSY;
 80032be:	2302      	movs	r3, #2
 80032c0:	e7be      	b.n	8003240 <HAL_SPI_TransmitReceive_IT+0x24>
    errorcode = HAL_ERROR;
 80032c2:	2301      	movs	r3, #1
 80032c4:	e7bc      	b.n	8003240 <HAL_SPI_TransmitReceive_IT+0x24>
 80032c6:	2301      	movs	r3, #1
 80032c8:	e7ba      	b.n	8003240 <HAL_SPI_TransmitReceive_IT+0x24>
 80032ca:	2301      	movs	r3, #1
 80032cc:	e7b8      	b.n	8003240 <HAL_SPI_TransmitReceive_IT+0x24>
  HAL_StatusTypeDef errorcode = HAL_OK;
 80032ce:	2300      	movs	r3, #0
 80032d0:	e7b6      	b.n	8003240 <HAL_SPI_TransmitReceive_IT+0x24>
  __HAL_LOCK(hspi);
 80032d2:	2302      	movs	r3, #2
 80032d4:	e7b7      	b.n	8003246 <HAL_SPI_TransmitReceive_IT+0x2a>
 80032d6:	bf00      	nop
 80032d8:	08003581 	.word	0x08003581
 80032dc:	08003549 	.word	0x08003549
 80032e0:	08003513 	.word	0x08003513
 80032e4:	080034dd 	.word	0x080034dd

080032e8 <HAL_SPI_TransmitReceive_DMA>:
{
 80032e8:	b538      	push	{r3, r4, r5, lr}
  __HAL_LOCK(hspi);
 80032ea:	f890 4050 	ldrb.w	r4, [r0, #80]	; 0x50
 80032ee:	2c01      	cmp	r4, #1
 80032f0:	f000 8084 	beq.w	80033fc <HAL_SPI_TransmitReceive_DMA+0x114>
 80032f4:	4604      	mov	r4, r0
 80032f6:	2001      	movs	r0, #1
 80032f8:	f884 0050 	strb.w	r0, [r4, #80]	; 0x50
  tmp  = hspi->State;
 80032fc:	f894 0051 	ldrb.w	r0, [r4, #81]	; 0x51
 8003300:	b2c0      	uxtb	r0, r0
  tmp1 = hspi->Init.Mode;
 8003302:	6865      	ldr	r5, [r4, #4]
  if(!((tmp == HAL_SPI_STATE_READY) ||
 8003304:	2801      	cmp	r0, #1
 8003306:	d00e      	beq.n	8003326 <HAL_SPI_TransmitReceive_DMA+0x3e>
 8003308:	f5b5 7f82 	cmp.w	r5, #260	; 0x104
 800330c:	d004      	beq.n	8003318 <HAL_SPI_TransmitReceive_DMA+0x30>
    errorcode = HAL_BUSY;
 800330e:	2002      	movs	r0, #2
  __HAL_UNLOCK(hspi);
 8003310:	2300      	movs	r3, #0
 8003312:	f884 3050 	strb.w	r3, [r4, #80]	; 0x50
  return errorcode;
 8003316:	bd38      	pop	{r3, r4, r5, pc}
      ((tmp1 == SPI_MODE_MASTER) && (hspi->Init.Direction == SPI_DIRECTION_2LINES) && (tmp == HAL_SPI_STATE_BUSY_RX))))
 8003318:	68a5      	ldr	r5, [r4, #8]
 800331a:	2d00      	cmp	r5, #0
 800331c:	d166      	bne.n	80033ec <HAL_SPI_TransmitReceive_DMA+0x104>
 800331e:	2804      	cmp	r0, #4
 8003320:	d001      	beq.n	8003326 <HAL_SPI_TransmitReceive_DMA+0x3e>
    errorcode = HAL_BUSY;
 8003322:	2002      	movs	r0, #2
 8003324:	e7f4      	b.n	8003310 <HAL_SPI_TransmitReceive_DMA+0x28>
  if((pTxData == NULL ) || (pRxData == NULL ) || (Size == 0))
 8003326:	2900      	cmp	r1, #0
 8003328:	d062      	beq.n	80033f0 <HAL_SPI_TransmitReceive_DMA+0x108>
 800332a:	2a00      	cmp	r2, #0
 800332c:	d062      	beq.n	80033f4 <HAL_SPI_TransmitReceive_DMA+0x10c>
 800332e:	2b00      	cmp	r3, #0
 8003330:	d062      	beq.n	80033f8 <HAL_SPI_TransmitReceive_DMA+0x110>
  if(hspi->State == HAL_SPI_STATE_READY)
 8003332:	f894 0051 	ldrb.w	r0, [r4, #81]	; 0x51
 8003336:	b2c0      	uxtb	r0, r0
 8003338:	2801      	cmp	r0, #1
 800333a:	d04c      	beq.n	80033d6 <HAL_SPI_TransmitReceive_DMA+0xee>
  hspi->ErrorCode   = HAL_SPI_ERROR_NONE;
 800333c:	2000      	movs	r0, #0
 800333e:	6560      	str	r0, [r4, #84]	; 0x54
  hspi->pTxBuffPtr  = (uint8_t*)pTxData;
 8003340:	6321      	str	r1, [r4, #48]	; 0x30
  hspi->TxXferSize  = Size;
 8003342:	86a3      	strh	r3, [r4, #52]	; 0x34
  hspi->TxXferCount = Size;
 8003344:	86e3      	strh	r3, [r4, #54]	; 0x36
  hspi->pRxBuffPtr  = (uint8_t*)pRxData;
 8003346:	63a2      	str	r2, [r4, #56]	; 0x38
  hspi->RxXferSize  = Size;
 8003348:	87a3      	strh	r3, [r4, #60]	; 0x3c
  hspi->RxXferCount = Size;
 800334a:	87e3      	strh	r3, [r4, #62]	; 0x3e
  hspi->RxISR       = NULL;
 800334c:	6420      	str	r0, [r4, #64]	; 0x40
  hspi->TxISR       = NULL;
 800334e:	6460      	str	r0, [r4, #68]	; 0x44
  if(hspi->State == HAL_SPI_STATE_BUSY_RX)
 8003350:	f894 3051 	ldrb.w	r3, [r4, #81]	; 0x51
 8003354:	b2db      	uxtb	r3, r3
 8003356:	2b04      	cmp	r3, #4
 8003358:	d041      	beq.n	80033de <HAL_SPI_TransmitReceive_DMA+0xf6>
    hspi->hdmarx->XferHalfCpltCallback = SPI_DMAHalfTransmitReceiveCplt;
 800335a:	6ce3      	ldr	r3, [r4, #76]	; 0x4c
 800335c:	4a28      	ldr	r2, [pc, #160]	; (8003400 <HAL_SPI_TransmitReceive_DMA+0x118>)
 800335e:	641a      	str	r2, [r3, #64]	; 0x40
    hspi->hdmarx->XferCpltCallback     = SPI_DMATransmitReceiveCplt;
 8003360:	6ce3      	ldr	r3, [r4, #76]	; 0x4c
 8003362:	4a28      	ldr	r2, [pc, #160]	; (8003404 <HAL_SPI_TransmitReceive_DMA+0x11c>)
 8003364:	63da      	str	r2, [r3, #60]	; 0x3c
  hspi->hdmarx->XferErrorCallback = SPI_DMAError;
 8003366:	6ce3      	ldr	r3, [r4, #76]	; 0x4c
 8003368:	4a27      	ldr	r2, [pc, #156]	; (8003408 <HAL_SPI_TransmitReceive_DMA+0x120>)
 800336a:	64da      	str	r2, [r3, #76]	; 0x4c
  hspi->hdmarx->XferAbortCallback = NULL;
 800336c:	6ce3      	ldr	r3, [r4, #76]	; 0x4c
 800336e:	2500      	movs	r5, #0
 8003370:	651d      	str	r5, [r3, #80]	; 0x50
  HAL_DMA_Start_IT(hspi->hdmarx, (uint32_t)&hspi->Instance->DR, (uint32_t)hspi->pRxBuffPtr, hspi->RxXferCount);
 8003372:	6821      	ldr	r1, [r4, #0]
 8003374:	8fe3      	ldrh	r3, [r4, #62]	; 0x3e
 8003376:	b29b      	uxth	r3, r3
 8003378:	6ba2      	ldr	r2, [r4, #56]	; 0x38
 800337a:	310c      	adds	r1, #12
 800337c:	6ce0      	ldr	r0, [r4, #76]	; 0x4c
 800337e:	f7fe f8df 	bl	8001540 <HAL_DMA_Start_IT>
  SET_BIT(hspi->Instance->CR2, SPI_CR2_RXDMAEN);
 8003382:	6822      	ldr	r2, [r4, #0]
 8003384:	6853      	ldr	r3, [r2, #4]
 8003386:	f043 0301 	orr.w	r3, r3, #1
 800338a:	6053      	str	r3, [r2, #4]
  hspi->hdmatx->XferHalfCpltCallback = NULL;
 800338c:	6ca3      	ldr	r3, [r4, #72]	; 0x48
 800338e:	641d      	str	r5, [r3, #64]	; 0x40
  hspi->hdmatx->XferCpltCallback     = NULL;
 8003390:	6ca3      	ldr	r3, [r4, #72]	; 0x48
 8003392:	63dd      	str	r5, [r3, #60]	; 0x3c
  hspi->hdmatx->XferErrorCallback    = NULL;
 8003394:	6ca3      	ldr	r3, [r4, #72]	; 0x48
 8003396:	64dd      	str	r5, [r3, #76]	; 0x4c
  hspi->hdmatx->XferAbortCallback    = NULL;
 8003398:	6ca3      	ldr	r3, [r4, #72]	; 0x48
 800339a:	651d      	str	r5, [r3, #80]	; 0x50
  HAL_DMA_Start_IT(hspi->hdmatx, (uint32_t)hspi->pTxBuffPtr, (uint32_t)&hspi->Instance->DR, hspi->TxXferCount);
 800339c:	6822      	ldr	r2, [r4, #0]
 800339e:	8ee3      	ldrh	r3, [r4, #54]	; 0x36
 80033a0:	b29b      	uxth	r3, r3
 80033a2:	320c      	adds	r2, #12
 80033a4:	6b21      	ldr	r1, [r4, #48]	; 0x30
 80033a6:	6ca0      	ldr	r0, [r4, #72]	; 0x48
 80033a8:	f7fe f8ca 	bl	8001540 <HAL_DMA_Start_IT>
  if((hspi->Instance->CR1 &SPI_CR1_SPE) != SPI_CR1_SPE)
 80033ac:	6823      	ldr	r3, [r4, #0]
 80033ae:	681a      	ldr	r2, [r3, #0]
 80033b0:	f012 0f40 	tst.w	r2, #64	; 0x40
 80033b4:	d103      	bne.n	80033be <HAL_SPI_TransmitReceive_DMA+0xd6>
    __HAL_SPI_ENABLE(hspi);
 80033b6:	681a      	ldr	r2, [r3, #0]
 80033b8:	f042 0240 	orr.w	r2, r2, #64	; 0x40
 80033bc:	601a      	str	r2, [r3, #0]
  SET_BIT(hspi->Instance->CR2, SPI_CR2_ERRIE);
 80033be:	6822      	ldr	r2, [r4, #0]
 80033c0:	6853      	ldr	r3, [r2, #4]
 80033c2:	f043 0320 	orr.w	r3, r3, #32
 80033c6:	6053      	str	r3, [r2, #4]
  SET_BIT(hspi->Instance->CR2, SPI_CR2_TXDMAEN);
 80033c8:	6822      	ldr	r2, [r4, #0]
 80033ca:	6853      	ldr	r3, [r2, #4]
 80033cc:	f043 0302 	orr.w	r3, r3, #2
 80033d0:	6053      	str	r3, [r2, #4]
  HAL_StatusTypeDef errorcode = HAL_OK;
 80033d2:	2000      	movs	r0, #0
 80033d4:	e79c      	b.n	8003310 <HAL_SPI_TransmitReceive_DMA+0x28>
    hspi->State = HAL_SPI_STATE_BUSY_TX_RX;
 80033d6:	2005      	movs	r0, #5
 80033d8:	f884 0051 	strb.w	r0, [r4, #81]	; 0x51
 80033dc:	e7ae      	b.n	800333c <HAL_SPI_TransmitReceive_DMA+0x54>
    hspi->hdmarx->XferHalfCpltCallback = SPI_DMAHalfReceiveCplt;
 80033de:	6ce3      	ldr	r3, [r4, #76]	; 0x4c
 80033e0:	4a0a      	ldr	r2, [pc, #40]	; (800340c <HAL_SPI_TransmitReceive_DMA+0x124>)
 80033e2:	641a      	str	r2, [r3, #64]	; 0x40
    hspi->hdmarx->XferCpltCallback     = SPI_DMAReceiveCplt;
 80033e4:	6ce3      	ldr	r3, [r4, #76]	; 0x4c
 80033e6:	4a0a      	ldr	r2, [pc, #40]	; (8003410 <HAL_SPI_TransmitReceive_DMA+0x128>)
 80033e8:	63da      	str	r2, [r3, #60]	; 0x3c
 80033ea:	e7bc      	b.n	8003366 <HAL_SPI_TransmitReceive_DMA+0x7e>
    errorcode = HAL_BUSY;
 80033ec:	2002      	movs	r0, #2
 80033ee:	e78f      	b.n	8003310 <HAL_SPI_TransmitReceive_DMA+0x28>
    errorcode = HAL_ERROR;
 80033f0:	2001      	movs	r0, #1
 80033f2:	e78d      	b.n	8003310 <HAL_SPI_TransmitReceive_DMA+0x28>
 80033f4:	2001      	movs	r0, #1
 80033f6:	e78b      	b.n	8003310 <HAL_SPI_TransmitReceive_DMA+0x28>
 80033f8:	2001      	movs	r0, #1
 80033fa:	e789      	b.n	8003310 <HAL_SPI_TransmitReceive_DMA+0x28>
  __HAL_LOCK(hspi);
 80033fc:	2002      	movs	r0, #2
}
 80033fe:	bd38      	pop	{r3, r4, r5, pc}
 8003400:	08003425 	.word	0x08003425
 8003404:	08003633 	.word	0x08003633
 8003408:	080035b9 	.word	0x080035b9
 800340c:	08003419 	.word	0x08003419
 8003410:	080035db 	.word	0x080035db

08003414 <HAL_SPI_RxCpltCallback>:
{
 8003414:	4770      	bx	lr

08003416 <HAL_SPI_RxHalfCpltCallback>:
{
 8003416:	4770      	bx	lr

08003418 <SPI_DMAHalfReceiveCplt>:
{
 8003418:	b508      	push	{r3, lr}
  HAL_SPI_RxHalfCpltCallback(hspi);
 800341a:	6b80      	ldr	r0, [r0, #56]	; 0x38
 800341c:	f7ff fffb 	bl	8003416 <HAL_SPI_RxHalfCpltCallback>
 8003420:	bd08      	pop	{r3, pc}

08003422 <HAL_SPI_TxRxHalfCpltCallback>:
{
 8003422:	4770      	bx	lr

08003424 <SPI_DMAHalfTransmitReceiveCplt>:
{
 8003424:	b508      	push	{r3, lr}
  HAL_SPI_TxRxHalfCpltCallback(hspi);
 8003426:	6b80      	ldr	r0, [r0, #56]	; 0x38
 8003428:	f7ff fffb 	bl	8003422 <HAL_SPI_TxRxHalfCpltCallback>
 800342c:	bd08      	pop	{r3, pc}

0800342e <HAL_SPI_ErrorCallback>:
{
 800342e:	4770      	bx	lr

08003430 <SPI_CloseRxTx_ISR>:
  * @param  hspi pointer to a SPI_HandleTypeDef structure that contains
  *               the configuration information for SPI module.
  * @retval None
  */
static void SPI_CloseRxTx_ISR(SPI_HandleTypeDef *hspi)
{
 8003430:	b510      	push	{r4, lr}
 8003432:	b082      	sub	sp, #8
 8003434:	4604      	mov	r4, r0
  uint32_t tickstart = 0U;
  __IO uint32_t count = SPI_DEFAULT_TIMEOUT * (SystemCoreClock / 24U / 1000U);
 8003436:	4b27      	ldr	r3, [pc, #156]	; (80034d4 <SPI_CloseRxTx_ISR+0xa4>)
 8003438:	681b      	ldr	r3, [r3, #0]
 800343a:	4a27      	ldr	r2, [pc, #156]	; (80034d8 <SPI_CloseRxTx_ISR+0xa8>)
 800343c:	fba2 2303 	umull	r2, r3, r2, r3
 8003440:	0a5b      	lsrs	r3, r3, #9
 8003442:	2264      	movs	r2, #100	; 0x64
 8003444:	fb02 f303 	mul.w	r3, r2, r3
 8003448:	9301      	str	r3, [sp, #4]
  /* Init tickstart for timeout managment*/
  tickstart = HAL_GetTick();
 800344a:	f7fd fd9d 	bl	8000f88 <HAL_GetTick>
 800344e:	4602      	mov	r2, r0

  /* Disable ERR interrupt */
  __HAL_SPI_DISABLE_IT(hspi, SPI_IT_ERR);
 8003450:	6821      	ldr	r1, [r4, #0]
 8003452:	684b      	ldr	r3, [r1, #4]
 8003454:	f023 0320 	bic.w	r3, r3, #32
 8003458:	604b      	str	r3, [r1, #4]

  /* Wait until TXE flag is set */
  do
  {
    if(count-- == 0U)
 800345a:	9b01      	ldr	r3, [sp, #4]
 800345c:	1e59      	subs	r1, r3, #1
 800345e:	9101      	str	r1, [sp, #4]
 8003460:	b12b      	cbz	r3, 800346e <SPI_CloseRxTx_ISR+0x3e>
    {
      SET_BIT(hspi->ErrorCode, HAL_SPI_ERROR_FLAG);
      break;
    }
  }
  while((hspi->Instance->SR & SPI_FLAG_TXE) == RESET);
 8003462:	6823      	ldr	r3, [r4, #0]
 8003464:	689b      	ldr	r3, [r3, #8]
 8003466:	f013 0f02 	tst.w	r3, #2
 800346a:	d0f6      	beq.n	800345a <SPI_CloseRxTx_ISR+0x2a>
 800346c:	e003      	b.n	8003476 <SPI_CloseRxTx_ISR+0x46>
      SET_BIT(hspi->ErrorCode, HAL_SPI_ERROR_FLAG);
 800346e:	6d63      	ldr	r3, [r4, #84]	; 0x54
 8003470:	f043 0320 	orr.w	r3, r3, #32
 8003474:	6563      	str	r3, [r4, #84]	; 0x54
  
  /* Check the end of the transaction */
  if(SPI_CheckFlag_BSY(hspi, SPI_DEFAULT_TIMEOUT, tickstart)!=HAL_OK)
 8003476:	2164      	movs	r1, #100	; 0x64
 8003478:	4620      	mov	r0, r4
 800347a:	f7ff fd5a 	bl	8002f32 <SPI_CheckFlag_BSY>
 800347e:	b118      	cbz	r0, 8003488 <SPI_CloseRxTx_ISR+0x58>
  {
    SET_BIT(hspi->ErrorCode, HAL_SPI_ERROR_FLAG);
 8003480:	6d63      	ldr	r3, [r4, #84]	; 0x54
 8003482:	f043 0320 	orr.w	r3, r3, #32
 8003486:	6563      	str	r3, [r4, #84]	; 0x54
  }

  /* Clear overrun flag in 2 Lines communication mode because received is not read */
  if(hspi->Init.Direction == SPI_DIRECTION_2LINES)
 8003488:	68a3      	ldr	r3, [r4, #8]
 800348a:	b933      	cbnz	r3, 800349a <SPI_CloseRxTx_ISR+0x6a>
  {
    __HAL_SPI_CLEAR_OVRFLAG(hspi);
 800348c:	9300      	str	r3, [sp, #0]
 800348e:	6823      	ldr	r3, [r4, #0]
 8003490:	68da      	ldr	r2, [r3, #12]
 8003492:	9200      	str	r2, [sp, #0]
 8003494:	689b      	ldr	r3, [r3, #8]
 8003496:	9300      	str	r3, [sp, #0]
 8003498:	9b00      	ldr	r3, [sp, #0]
    HAL_SPI_ErrorCallback(hspi);
  }
  else
  {
#endif /* USE_SPI_CRC */
    if(hspi->ErrorCode == HAL_SPI_ERROR_NONE)
 800349a:	6d63      	ldr	r3, [r4, #84]	; 0x54
 800349c:	b99b      	cbnz	r3, 80034c6 <SPI_CloseRxTx_ISR+0x96>
    {
      if(hspi->State == HAL_SPI_STATE_BUSY_RX)
 800349e:	f894 3051 	ldrb.w	r3, [r4, #81]	; 0x51
 80034a2:	b2db      	uxtb	r3, r3
 80034a4:	2b04      	cmp	r3, #4
 80034a6:	d007      	beq.n	80034b8 <SPI_CloseRxTx_ISR+0x88>
      	hspi->State = HAL_SPI_STATE_READY;
        HAL_SPI_RxCpltCallback(hspi);
      }
      else
      {
      	hspi->State = HAL_SPI_STATE_READY;
 80034a8:	2301      	movs	r3, #1
 80034aa:	f884 3051 	strb.w	r3, [r4, #81]	; 0x51
        HAL_SPI_TxRxCpltCallback(hspi);
 80034ae:	4620      	mov	r0, r4
 80034b0:	f001 ff5e 	bl	8005370 <HAL_SPI_TxRxCpltCallback>
      HAL_SPI_ErrorCallback(hspi);
    }
#if (USE_SPI_CRC != 0U)
  }
#endif /* USE_SPI_CRC */
}
 80034b4:	b002      	add	sp, #8
 80034b6:	bd10      	pop	{r4, pc}
      	hspi->State = HAL_SPI_STATE_READY;
 80034b8:	2301      	movs	r3, #1
 80034ba:	f884 3051 	strb.w	r3, [r4, #81]	; 0x51
        HAL_SPI_RxCpltCallback(hspi);
 80034be:	4620      	mov	r0, r4
 80034c0:	f7ff ffa8 	bl	8003414 <HAL_SPI_RxCpltCallback>
 80034c4:	e7f6      	b.n	80034b4 <SPI_CloseRxTx_ISR+0x84>
      hspi->State = HAL_SPI_STATE_READY;
 80034c6:	2301      	movs	r3, #1
 80034c8:	f884 3051 	strb.w	r3, [r4, #81]	; 0x51
      HAL_SPI_ErrorCallback(hspi);
 80034cc:	4620      	mov	r0, r4
 80034ce:	f7ff ffae 	bl	800342e <HAL_SPI_ErrorCallback>
}
 80034d2:	e7ef      	b.n	80034b4 <SPI_CloseRxTx_ISR+0x84>
 80034d4:	20000008 	.word	0x20000008
 80034d8:	057619f1 	.word	0x057619f1

080034dc <SPI_2linesTxISR_8BIT>:
{
 80034dc:	b508      	push	{r3, lr}
  *(__IO uint8_t *)&hspi->Instance->DR = (*hspi->pTxBuffPtr++);
 80034de:	6802      	ldr	r2, [r0, #0]
 80034e0:	6b03      	ldr	r3, [r0, #48]	; 0x30
 80034e2:	1c59      	adds	r1, r3, #1
 80034e4:	6301      	str	r1, [r0, #48]	; 0x30
 80034e6:	781b      	ldrb	r3, [r3, #0]
 80034e8:	7313      	strb	r3, [r2, #12]
  hspi->TxXferCount--;
 80034ea:	8ec3      	ldrh	r3, [r0, #54]	; 0x36
 80034ec:	b29b      	uxth	r3, r3
 80034ee:	3b01      	subs	r3, #1
 80034f0:	b29b      	uxth	r3, r3
 80034f2:	86c3      	strh	r3, [r0, #54]	; 0x36
  if(hspi->TxXferCount == 0U)
 80034f4:	8ec3      	ldrh	r3, [r0, #54]	; 0x36
 80034f6:	b29b      	uxth	r3, r3
 80034f8:	b93b      	cbnz	r3, 800350a <SPI_2linesTxISR_8BIT+0x2e>
    __HAL_SPI_DISABLE_IT(hspi, SPI_IT_TXE);
 80034fa:	6802      	ldr	r2, [r0, #0]
 80034fc:	6853      	ldr	r3, [r2, #4]
 80034fe:	f023 0380 	bic.w	r3, r3, #128	; 0x80
 8003502:	6053      	str	r3, [r2, #4]
    if(hspi->RxXferCount == 0U)
 8003504:	8fc3      	ldrh	r3, [r0, #62]	; 0x3e
 8003506:	b29b      	uxth	r3, r3
 8003508:	b103      	cbz	r3, 800350c <SPI_2linesTxISR_8BIT+0x30>
 800350a:	bd08      	pop	{r3, pc}
      SPI_CloseRxTx_ISR(hspi);
 800350c:	f7ff ff90 	bl	8003430 <SPI_CloseRxTx_ISR>
}
 8003510:	e7fb      	b.n	800350a <SPI_2linesTxISR_8BIT+0x2e>

08003512 <SPI_2linesRxISR_8BIT>:
{
 8003512:	b508      	push	{r3, lr}
  *hspi->pRxBuffPtr++ = *((__IO uint8_t *)&hspi->Instance->DR);
 8003514:	6b83      	ldr	r3, [r0, #56]	; 0x38
 8003516:	1c5a      	adds	r2, r3, #1
 8003518:	6382      	str	r2, [r0, #56]	; 0x38
 800351a:	6802      	ldr	r2, [r0, #0]
 800351c:	7b12      	ldrb	r2, [r2, #12]
 800351e:	701a      	strb	r2, [r3, #0]
  hspi->RxXferCount--;
 8003520:	8fc3      	ldrh	r3, [r0, #62]	; 0x3e
 8003522:	b29b      	uxth	r3, r3
 8003524:	3b01      	subs	r3, #1
 8003526:	b29b      	uxth	r3, r3
 8003528:	87c3      	strh	r3, [r0, #62]	; 0x3e
  if(hspi->RxXferCount == 0U)
 800352a:	8fc3      	ldrh	r3, [r0, #62]	; 0x3e
 800352c:	b29b      	uxth	r3, r3
 800352e:	b93b      	cbnz	r3, 8003540 <SPI_2linesRxISR_8BIT+0x2e>
    __HAL_SPI_DISABLE_IT(hspi, (SPI_IT_RXNE | SPI_IT_ERR));
 8003530:	6802      	ldr	r2, [r0, #0]
 8003532:	6853      	ldr	r3, [r2, #4]
 8003534:	f023 0360 	bic.w	r3, r3, #96	; 0x60
 8003538:	6053      	str	r3, [r2, #4]
    if(hspi->TxXferCount == 0U)
 800353a:	8ec3      	ldrh	r3, [r0, #54]	; 0x36
 800353c:	b29b      	uxth	r3, r3
 800353e:	b103      	cbz	r3, 8003542 <SPI_2linesRxISR_8BIT+0x30>
 8003540:	bd08      	pop	{r3, pc}
      SPI_CloseRxTx_ISR(hspi);
 8003542:	f7ff ff75 	bl	8003430 <SPI_CloseRxTx_ISR>
}
 8003546:	e7fb      	b.n	8003540 <SPI_2linesRxISR_8BIT+0x2e>

08003548 <SPI_2linesTxISR_16BIT>:
{
 8003548:	b508      	push	{r3, lr}
  hspi->Instance->DR = *((uint16_t *)hspi->pTxBuffPtr);
 800354a:	6803      	ldr	r3, [r0, #0]
 800354c:	6b02      	ldr	r2, [r0, #48]	; 0x30
 800354e:	8812      	ldrh	r2, [r2, #0]
 8003550:	60da      	str	r2, [r3, #12]
  hspi->pTxBuffPtr += sizeof(uint16_t);
 8003552:	6b03      	ldr	r3, [r0, #48]	; 0x30
 8003554:	3302      	adds	r3, #2
 8003556:	6303      	str	r3, [r0, #48]	; 0x30
  hspi->TxXferCount--;
 8003558:	8ec3      	ldrh	r3, [r0, #54]	; 0x36
 800355a:	b29b      	uxth	r3, r3
 800355c:	3b01      	subs	r3, #1
 800355e:	b29b      	uxth	r3, r3
 8003560:	86c3      	strh	r3, [r0, #54]	; 0x36
  if(hspi->TxXferCount == 0U)
 8003562:	8ec3      	ldrh	r3, [r0, #54]	; 0x36
 8003564:	b29b      	uxth	r3, r3
 8003566:	b93b      	cbnz	r3, 8003578 <SPI_2linesTxISR_16BIT+0x30>
    __HAL_SPI_DISABLE_IT(hspi, SPI_IT_TXE);
 8003568:	6802      	ldr	r2, [r0, #0]
 800356a:	6853      	ldr	r3, [r2, #4]
 800356c:	f023 0380 	bic.w	r3, r3, #128	; 0x80
 8003570:	6053      	str	r3, [r2, #4]
    if(hspi->RxXferCount == 0U)
 8003572:	8fc3      	ldrh	r3, [r0, #62]	; 0x3e
 8003574:	b29b      	uxth	r3, r3
 8003576:	b103      	cbz	r3, 800357a <SPI_2linesTxISR_16BIT+0x32>
 8003578:	bd08      	pop	{r3, pc}
      SPI_CloseRxTx_ISR(hspi);
 800357a:	f7ff ff59 	bl	8003430 <SPI_CloseRxTx_ISR>
}
 800357e:	e7fb      	b.n	8003578 <SPI_2linesTxISR_16BIT+0x30>

08003580 <SPI_2linesRxISR_16BIT>:
{
 8003580:	b508      	push	{r3, lr}
  *((uint16_t*)hspi->pRxBuffPtr) = hspi->Instance->DR;
 8003582:	6b83      	ldr	r3, [r0, #56]	; 0x38
 8003584:	6802      	ldr	r2, [r0, #0]
 8003586:	68d2      	ldr	r2, [r2, #12]
 8003588:	801a      	strh	r2, [r3, #0]
  hspi->pRxBuffPtr += sizeof(uint16_t);
 800358a:	6b83      	ldr	r3, [r0, #56]	; 0x38
 800358c:	3302      	adds	r3, #2
 800358e:	6383      	str	r3, [r0, #56]	; 0x38
  hspi->RxXferCount--;
 8003590:	8fc3      	ldrh	r3, [r0, #62]	; 0x3e
 8003592:	b29b      	uxth	r3, r3
 8003594:	3b01      	subs	r3, #1
 8003596:	b29b      	uxth	r3, r3
 8003598:	87c3      	strh	r3, [r0, #62]	; 0x3e
  if(hspi->RxXferCount == 0U)
 800359a:	8fc3      	ldrh	r3, [r0, #62]	; 0x3e
 800359c:	b29b      	uxth	r3, r3
 800359e:	b93b      	cbnz	r3, 80035b0 <SPI_2linesRxISR_16BIT+0x30>
    __HAL_SPI_DISABLE_IT(hspi, SPI_IT_RXNE);
 80035a0:	6802      	ldr	r2, [r0, #0]
 80035a2:	6853      	ldr	r3, [r2, #4]
 80035a4:	f023 0340 	bic.w	r3, r3, #64	; 0x40
 80035a8:	6053      	str	r3, [r2, #4]
    if(hspi->TxXferCount == 0U)
 80035aa:	8ec3      	ldrh	r3, [r0, #54]	; 0x36
 80035ac:	b29b      	uxth	r3, r3
 80035ae:	b103      	cbz	r3, 80035b2 <SPI_2linesRxISR_16BIT+0x32>
 80035b0:	bd08      	pop	{r3, pc}
      SPI_CloseRxTx_ISR(hspi);
 80035b2:	f7ff ff3d 	bl	8003430 <SPI_CloseRxTx_ISR>
}
 80035b6:	e7fb      	b.n	80035b0 <SPI_2linesRxISR_16BIT+0x30>

080035b8 <SPI_DMAError>:
{
 80035b8:	b508      	push	{r3, lr}
  SPI_HandleTypeDef* hspi = (SPI_HandleTypeDef* )((DMA_HandleTypeDef* )hdma)->Parent;
 80035ba:	6b80      	ldr	r0, [r0, #56]	; 0x38
  CLEAR_BIT(hspi->Instance->CR2, SPI_CR2_TXDMAEN | SPI_CR2_RXDMAEN);
 80035bc:	6802      	ldr	r2, [r0, #0]
 80035be:	6853      	ldr	r3, [r2, #4]
 80035c0:	f023 0303 	bic.w	r3, r3, #3
 80035c4:	6053      	str	r3, [r2, #4]
  SET_BIT(hspi->ErrorCode, HAL_SPI_ERROR_DMA);
 80035c6:	6d43      	ldr	r3, [r0, #84]	; 0x54
 80035c8:	f043 0310 	orr.w	r3, r3, #16
 80035cc:	6543      	str	r3, [r0, #84]	; 0x54
  hspi->State = HAL_SPI_STATE_READY;
 80035ce:	2301      	movs	r3, #1
 80035d0:	f880 3051 	strb.w	r3, [r0, #81]	; 0x51
  HAL_SPI_ErrorCallback(hspi);
 80035d4:	f7ff ff2b 	bl	800342e <HAL_SPI_ErrorCallback>
 80035d8:	bd08      	pop	{r3, pc}

080035da <SPI_DMAReceiveCplt>:
{
 80035da:	b508      	push	{r3, lr}
  SPI_HandleTypeDef* hspi = ( SPI_HandleTypeDef* )((DMA_HandleTypeDef* )hdma)->Parent;
 80035dc:	6b83      	ldr	r3, [r0, #56]	; 0x38
  if((hdma->Instance->CR & DMA_SxCR_CIRC) == 0U)
 80035de:	6802      	ldr	r2, [r0, #0]
 80035e0:	6812      	ldr	r2, [r2, #0]
 80035e2:	f412 7f80 	tst.w	r2, #256	; 0x100
 80035e6:	d10f      	bne.n	8003608 <SPI_DMAReceiveCplt+0x2e>
    CLEAR_BIT(hspi->Instance->CR2, SPI_CR2_TXDMAEN | SPI_CR2_RXDMAEN);
 80035e8:	6819      	ldr	r1, [r3, #0]
 80035ea:	684a      	ldr	r2, [r1, #4]
 80035ec:	f022 0203 	bic.w	r2, r2, #3
 80035f0:	604a      	str	r2, [r1, #4]
    if((hspi->Init.Mode == SPI_MODE_MASTER)&&((hspi->Init.Direction == SPI_DIRECTION_1LINE)||(hspi->Init.Direction == SPI_DIRECTION_2LINES_RXONLY)))
 80035f2:	685a      	ldr	r2, [r3, #4]
 80035f4:	f5b2 7f82 	cmp.w	r2, #260	; 0x104
 80035f8:	d00a      	beq.n	8003610 <SPI_DMAReceiveCplt+0x36>
    hspi->RxXferCount = 0U;
 80035fa:	2200      	movs	r2, #0
 80035fc:	87da      	strh	r2, [r3, #62]	; 0x3e
    hspi->State = HAL_SPI_STATE_READY;
 80035fe:	2201      	movs	r2, #1
 8003600:	f883 2051 	strb.w	r2, [r3, #81]	; 0x51
    if(hspi->ErrorCode != HAL_SPI_ERROR_NONE)
 8003604:	6d5a      	ldr	r2, [r3, #84]	; 0x54
 8003606:	b982      	cbnz	r2, 800362a <SPI_DMAReceiveCplt+0x50>
  HAL_SPI_RxCpltCallback(hspi);
 8003608:	4618      	mov	r0, r3
 800360a:	f7ff ff03 	bl	8003414 <HAL_SPI_RxCpltCallback>
 800360e:	bd08      	pop	{r3, pc}
    if((hspi->Init.Mode == SPI_MODE_MASTER)&&((hspi->Init.Direction == SPI_DIRECTION_1LINE)||(hspi->Init.Direction == SPI_DIRECTION_2LINES_RXONLY)))
 8003610:	689a      	ldr	r2, [r3, #8]
 8003612:	f5b2 4f00 	cmp.w	r2, #32768	; 0x8000
 8003616:	d002      	beq.n	800361e <SPI_DMAReceiveCplt+0x44>
 8003618:	f5b2 6f80 	cmp.w	r2, #1024	; 0x400
 800361c:	d1ed      	bne.n	80035fa <SPI_DMAReceiveCplt+0x20>
      __HAL_SPI_DISABLE(hspi);
 800361e:	6819      	ldr	r1, [r3, #0]
 8003620:	680a      	ldr	r2, [r1, #0]
 8003622:	f022 0240 	bic.w	r2, r2, #64	; 0x40
 8003626:	600a      	str	r2, [r1, #0]
 8003628:	e7e7      	b.n	80035fa <SPI_DMAReceiveCplt+0x20>
      HAL_SPI_ErrorCallback(hspi);
 800362a:	4618      	mov	r0, r3
 800362c:	f7ff feff 	bl	800342e <HAL_SPI_ErrorCallback>
      return;
 8003630:	bd08      	pop	{r3, pc}

08003632 <SPI_DMATransmitReceiveCplt>:
{
 8003632:	b538      	push	{r3, r4, r5, lr}
 8003634:	4605      	mov	r5, r0
  SPI_HandleTypeDef* hspi = ( SPI_HandleTypeDef* )((DMA_HandleTypeDef* )hdma)->Parent;
 8003636:	6b84      	ldr	r4, [r0, #56]	; 0x38
  tickstart = HAL_GetTick();
 8003638:	f7fd fca6 	bl	8000f88 <HAL_GetTick>
  if((hdma->Instance->CR & DMA_SxCR_CIRC) == 0U)
 800363c:	682b      	ldr	r3, [r5, #0]
 800363e:	681b      	ldr	r3, [r3, #0]
 8003640:	f413 7f80 	tst.w	r3, #256	; 0x100
 8003644:	d116      	bne.n	8003674 <SPI_DMATransmitReceiveCplt+0x42>
    if(SPI_CheckFlag_BSY(hspi, SPI_DEFAULT_TIMEOUT, tickstart) != HAL_OK)
 8003646:	4602      	mov	r2, r0
 8003648:	2164      	movs	r1, #100	; 0x64
 800364a:	4620      	mov	r0, r4
 800364c:	f7ff fc71 	bl	8002f32 <SPI_CheckFlag_BSY>
 8003650:	b118      	cbz	r0, 800365a <SPI_DMATransmitReceiveCplt+0x28>
      SET_BIT(hspi->ErrorCode, HAL_SPI_ERROR_FLAG);
 8003652:	6d63      	ldr	r3, [r4, #84]	; 0x54
 8003654:	f043 0320 	orr.w	r3, r3, #32
 8003658:	6563      	str	r3, [r4, #84]	; 0x54
    CLEAR_BIT(hspi->Instance->CR2, SPI_CR2_TXDMAEN | SPI_CR2_RXDMAEN);
 800365a:	6822      	ldr	r2, [r4, #0]
 800365c:	6853      	ldr	r3, [r2, #4]
 800365e:	f023 0303 	bic.w	r3, r3, #3
 8003662:	6053      	str	r3, [r2, #4]
    hspi->TxXferCount = 0U;
 8003664:	2300      	movs	r3, #0
 8003666:	86e3      	strh	r3, [r4, #54]	; 0x36
    hspi->RxXferCount = 0U;
 8003668:	87e3      	strh	r3, [r4, #62]	; 0x3e
    hspi->State = HAL_SPI_STATE_READY;
 800366a:	2301      	movs	r3, #1
 800366c:	f884 3051 	strb.w	r3, [r4, #81]	; 0x51
    if(hspi->ErrorCode != HAL_SPI_ERROR_NONE)
 8003670:	6d63      	ldr	r3, [r4, #84]	; 0x54
 8003672:	b91b      	cbnz	r3, 800367c <SPI_DMATransmitReceiveCplt+0x4a>
  HAL_SPI_TxRxCpltCallback(hspi);
 8003674:	4620      	mov	r0, r4
 8003676:	f001 fe7b 	bl	8005370 <HAL_SPI_TxRxCpltCallback>
 800367a:	bd38      	pop	{r3, r4, r5, pc}
      HAL_SPI_ErrorCallback(hspi);
 800367c:	4620      	mov	r0, r4
 800367e:	f7ff fed6 	bl	800342e <HAL_SPI_ErrorCallback>
      return;
 8003682:	bd38      	pop	{r3, r4, r5, pc}

08003684 <HAL_SPI_IRQHandler>:
{
 8003684:	b510      	push	{r4, lr}
 8003686:	b084      	sub	sp, #16
 8003688:	4604      	mov	r4, r0
  uint32_t itsource = hspi->Instance->CR2;
 800368a:	6802      	ldr	r2, [r0, #0]
 800368c:	6851      	ldr	r1, [r2, #4]
  uint32_t itflag   = hspi->Instance->SR;
 800368e:	6893      	ldr	r3, [r2, #8]
  if(((itflag & SPI_FLAG_OVR) == RESET) &&
 8003690:	f003 0041 	and.w	r0, r3, #65	; 0x41
 8003694:	2801      	cmp	r0, #1
 8003696:	d05c      	beq.n	8003752 <HAL_SPI_IRQHandler+0xce>
  if(((itflag & SPI_FLAG_TXE) != RESET) && ((itsource & SPI_IT_TXE) != RESET))
 8003698:	f013 0f02 	tst.w	r3, #2
 800369c:	d002      	beq.n	80036a4 <HAL_SPI_IRQHandler+0x20>
 800369e:	f011 0f80 	tst.w	r1, #128	; 0x80
 80036a2:	d15d      	bne.n	8003760 <HAL_SPI_IRQHandler+0xdc>
  if(((itflag & (SPI_FLAG_MODF | SPI_FLAG_OVR | SPI_FLAG_FRE)) != RESET) && ((itsource & SPI_IT_ERR) != RESET))
 80036a4:	f413 7fb0 	tst.w	r3, #352	; 0x160
 80036a8:	d05d      	beq.n	8003766 <HAL_SPI_IRQHandler+0xe2>
 80036aa:	f011 0f20 	tst.w	r1, #32
 80036ae:	d05a      	beq.n	8003766 <HAL_SPI_IRQHandler+0xe2>
    if((itflag & SPI_FLAG_OVR) != RESET)
 80036b0:	f013 0f40 	tst.w	r3, #64	; 0x40
 80036b4:	d00f      	beq.n	80036d6 <HAL_SPI_IRQHandler+0x52>
      if(hspi->State != HAL_SPI_STATE_BUSY_TX)
 80036b6:	f894 0051 	ldrb.w	r0, [r4, #81]	; 0x51
 80036ba:	b2c0      	uxtb	r0, r0
 80036bc:	2803      	cmp	r0, #3
 80036be:	d054      	beq.n	800376a <HAL_SPI_IRQHandler+0xe6>
        SET_BIT(hspi->ErrorCode, HAL_SPI_ERROR_OVR);
 80036c0:	6d60      	ldr	r0, [r4, #84]	; 0x54
 80036c2:	f040 0004 	orr.w	r0, r0, #4
 80036c6:	6560      	str	r0, [r4, #84]	; 0x54
        __HAL_SPI_CLEAR_OVRFLAG(hspi);
 80036c8:	2000      	movs	r0, #0
 80036ca:	9000      	str	r0, [sp, #0]
 80036cc:	68d0      	ldr	r0, [r2, #12]
 80036ce:	9000      	str	r0, [sp, #0]
 80036d0:	6890      	ldr	r0, [r2, #8]
 80036d2:	9000      	str	r0, [sp, #0]
 80036d4:	9800      	ldr	r0, [sp, #0]
    if((itflag & SPI_FLAG_MODF) != RESET)
 80036d6:	f013 0f20 	tst.w	r3, #32
 80036da:	d00c      	beq.n	80036f6 <HAL_SPI_IRQHandler+0x72>
      SET_BIT(hspi->ErrorCode, HAL_SPI_ERROR_MODF);
 80036dc:	6d60      	ldr	r0, [r4, #84]	; 0x54
 80036de:	f040 0001 	orr.w	r0, r0, #1
 80036e2:	6560      	str	r0, [r4, #84]	; 0x54
      __HAL_SPI_CLEAR_MODFFLAG(hspi);
 80036e4:	2000      	movs	r0, #0
 80036e6:	9002      	str	r0, [sp, #8]
 80036e8:	6890      	ldr	r0, [r2, #8]
 80036ea:	9002      	str	r0, [sp, #8]
 80036ec:	6810      	ldr	r0, [r2, #0]
 80036ee:	f020 0040 	bic.w	r0, r0, #64	; 0x40
 80036f2:	6010      	str	r0, [r2, #0]
 80036f4:	9a02      	ldr	r2, [sp, #8]
    if((itflag & SPI_FLAG_FRE) != RESET)
 80036f6:	f413 7f80 	tst.w	r3, #256	; 0x100
 80036fa:	d009      	beq.n	8003710 <HAL_SPI_IRQHandler+0x8c>
      SET_BIT(hspi->ErrorCode, HAL_SPI_ERROR_FRE);
 80036fc:	6d63      	ldr	r3, [r4, #84]	; 0x54
 80036fe:	f043 0308 	orr.w	r3, r3, #8
 8003702:	6563      	str	r3, [r4, #84]	; 0x54
      __HAL_SPI_CLEAR_FREFLAG(hspi);
 8003704:	2300      	movs	r3, #0
 8003706:	9303      	str	r3, [sp, #12]
 8003708:	6823      	ldr	r3, [r4, #0]
 800370a:	689b      	ldr	r3, [r3, #8]
 800370c:	9303      	str	r3, [sp, #12]
 800370e:	9b03      	ldr	r3, [sp, #12]
    if(hspi->ErrorCode != HAL_SPI_ERROR_NONE)
 8003710:	6d63      	ldr	r3, [r4, #84]	; 0x54
 8003712:	b343      	cbz	r3, 8003766 <HAL_SPI_IRQHandler+0xe2>
      __HAL_SPI_DISABLE_IT(hspi, SPI_IT_RXNE | SPI_IT_TXE | SPI_IT_ERR);
 8003714:	6822      	ldr	r2, [r4, #0]
 8003716:	6853      	ldr	r3, [r2, #4]
 8003718:	f023 03e0 	bic.w	r3, r3, #224	; 0xe0
 800371c:	6053      	str	r3, [r2, #4]
      hspi->State = HAL_SPI_STATE_READY;
 800371e:	2301      	movs	r3, #1
 8003720:	f884 3051 	strb.w	r3, [r4, #81]	; 0x51
      if ((HAL_IS_BIT_SET(itsource, SPI_CR2_TXDMAEN))||(HAL_IS_BIT_SET(itsource, SPI_CR2_RXDMAEN)))
 8003724:	f011 0f03 	tst.w	r1, #3
 8003728:	d027      	beq.n	800377a <HAL_SPI_IRQHandler+0xf6>
        CLEAR_BIT(hspi->Instance->CR2, (SPI_CR2_TXDMAEN | SPI_CR2_RXDMAEN));
 800372a:	6822      	ldr	r2, [r4, #0]
 800372c:	6853      	ldr	r3, [r2, #4]
 800372e:	f023 0303 	bic.w	r3, r3, #3
 8003732:	6053      	str	r3, [r2, #4]
        if(hspi->hdmarx != NULL)
 8003734:	6ce3      	ldr	r3, [r4, #76]	; 0x4c
 8003736:	b123      	cbz	r3, 8003742 <HAL_SPI_IRQHandler+0xbe>
          hspi->hdmarx->XferAbortCallback = SPI_DMAAbortOnError;
 8003738:	4a12      	ldr	r2, [pc, #72]	; (8003784 <HAL_SPI_IRQHandler+0x100>)
 800373a:	651a      	str	r2, [r3, #80]	; 0x50
          HAL_DMA_Abort_IT(hspi->hdmarx);
 800373c:	6ce0      	ldr	r0, [r4, #76]	; 0x4c
 800373e:	f7fd ff39 	bl	80015b4 <HAL_DMA_Abort_IT>
        if(hspi->hdmatx != NULL)
 8003742:	6ca3      	ldr	r3, [r4, #72]	; 0x48
 8003744:	b17b      	cbz	r3, 8003766 <HAL_SPI_IRQHandler+0xe2>
          hspi->hdmatx->XferAbortCallback = SPI_DMAAbortOnError;
 8003746:	4a0f      	ldr	r2, [pc, #60]	; (8003784 <HAL_SPI_IRQHandler+0x100>)
 8003748:	651a      	str	r2, [r3, #80]	; 0x50
          HAL_DMA_Abort_IT(hspi->hdmatx);
 800374a:	6ca0      	ldr	r0, [r4, #72]	; 0x48
 800374c:	f7fd ff32 	bl	80015b4 <HAL_DMA_Abort_IT>
 8003750:	e009      	b.n	8003766 <HAL_SPI_IRQHandler+0xe2>
     ((itflag & SPI_FLAG_RXNE) != RESET) && ((itsource & SPI_IT_RXNE) != RESET))
 8003752:	f011 0f40 	tst.w	r1, #64	; 0x40
 8003756:	d09f      	beq.n	8003698 <HAL_SPI_IRQHandler+0x14>
    hspi->RxISR(hspi);
 8003758:	6c23      	ldr	r3, [r4, #64]	; 0x40
 800375a:	4620      	mov	r0, r4
 800375c:	4798      	blx	r3
    return;
 800375e:	e002      	b.n	8003766 <HAL_SPI_IRQHandler+0xe2>
    hspi->TxISR(hspi);
 8003760:	6c63      	ldr	r3, [r4, #68]	; 0x44
 8003762:	4620      	mov	r0, r4
 8003764:	4798      	blx	r3
}
 8003766:	b004      	add	sp, #16
 8003768:	bd10      	pop	{r4, pc}
        __HAL_SPI_CLEAR_OVRFLAG(hspi);
 800376a:	2300      	movs	r3, #0
 800376c:	9301      	str	r3, [sp, #4]
 800376e:	68d3      	ldr	r3, [r2, #12]
 8003770:	9301      	str	r3, [sp, #4]
 8003772:	6893      	ldr	r3, [r2, #8]
 8003774:	9301      	str	r3, [sp, #4]
 8003776:	9b01      	ldr	r3, [sp, #4]
        return;
 8003778:	e7f5      	b.n	8003766 <HAL_SPI_IRQHandler+0xe2>
        HAL_SPI_ErrorCallback(hspi);
 800377a:	4620      	mov	r0, r4
 800377c:	f7ff fe57 	bl	800342e <HAL_SPI_ErrorCallback>
 8003780:	e7f1      	b.n	8003766 <HAL_SPI_IRQHandler+0xe2>
 8003782:	bf00      	nop
 8003784:	08003789 	.word	0x08003789

08003788 <SPI_DMAAbortOnError>:
{
 8003788:	b508      	push	{r3, lr}
  SPI_HandleTypeDef* hspi = ( SPI_HandleTypeDef* )((DMA_HandleTypeDef* )hdma)->Parent;
 800378a:	6b80      	ldr	r0, [r0, #56]	; 0x38
  hspi->RxXferCount = 0U;
 800378c:	2300      	movs	r3, #0
 800378e:	87c3      	strh	r3, [r0, #62]	; 0x3e
  hspi->TxXferCount = 0U;
 8003790:	86c3      	strh	r3, [r0, #54]	; 0x36
  HAL_SPI_ErrorCallback(hspi);
 8003792:	f7ff fe4c 	bl	800342e <HAL_SPI_ErrorCallback>
 8003796:	bd08      	pop	{r3, pc}

08003798 <TIM_OC1_SetConfig>:
  * @param  TIMx to select the TIM peripheral
  * @param  OC_Config The output configuration structure
  * @retval None
  */
static void TIM_OC1_SetConfig(TIM_TypeDef *TIMx, TIM_OC_InitTypeDef *OC_Config)
{
 8003798:	b430      	push	{r4, r5}
  uint32_t tmpccmrx = 0U;
  uint32_t tmpccer = 0U;
  uint32_t tmpcr2 = 0U;  

  /* Disable the Channel 1: Reset the CC1E Bit */
  TIMx->CCER &= ~TIM_CCER_CC1E;
 800379a:	6a03      	ldr	r3, [r0, #32]
 800379c:	f023 0301 	bic.w	r3, r3, #1
 80037a0:	6203      	str	r3, [r0, #32]
  
  /* Get the TIMx CCER register value */
  tmpccer = TIMx->CCER;
 80037a2:	6a03      	ldr	r3, [r0, #32]
  /* Get the TIMx CR2 register value */
  tmpcr2 = TIMx->CR2;
 80037a4:	6844      	ldr	r4, [r0, #4]
  
  /* Get the TIMx CCMR1 register value */
  tmpccmrx = TIMx->CCMR1;
 80037a6:	6982      	ldr	r2, [r0, #24]
    
  /* Reset the Output Compare Mode Bits */
  tmpccmrx &= ~TIM_CCMR1_OC1M;
  tmpccmrx &= ~TIM_CCMR1_CC1S;
 80037a8:	f022 0273 	bic.w	r2, r2, #115	; 0x73
  /* Select the Output Compare Mode */
  tmpccmrx |= OC_Config->OCMode;
 80037ac:	680d      	ldr	r5, [r1, #0]
 80037ae:	432a      	orrs	r2, r5
  
  /* Reset the Output Polarity level */
  tmpccer &= ~TIM_CCER_CC1P;
 80037b0:	f023 0302 	bic.w	r3, r3, #2
  /* Set the Output Compare Polarity */
  tmpccer |= OC_Config->OCPolarity;
 80037b4:	688d      	ldr	r5, [r1, #8]
 80037b6:	432b      	orrs	r3, r5

    
  if(IS_TIM_ADVANCED_INSTANCE(TIMx) != RESET)
 80037b8:	4d0f      	ldr	r5, [pc, #60]	; (80037f8 <TIM_OC1_SetConfig+0x60>)
 80037ba:	42a8      	cmp	r0, r5
 80037bc:	d01a      	beq.n	80037f4 <TIM_OC1_SetConfig+0x5c>
 80037be:	f505 6580 	add.w	r5, r5, #1024	; 0x400
 80037c2:	42a8      	cmp	r0, r5
 80037c4:	d014      	beq.n	80037f0 <TIM_OC1_SetConfig+0x58>
 80037c6:	2500      	movs	r5, #0
 80037c8:	b15d      	cbz	r5, 80037e2 <TIM_OC1_SetConfig+0x4a>
  {   
    /* Reset the Output N Polarity level */
    tmpccer &= ~TIM_CCER_CC1NP;
 80037ca:	f023 0308 	bic.w	r3, r3, #8
    /* Set the Output N Polarity */
    tmpccer |= OC_Config->OCNPolarity;
 80037ce:	68cd      	ldr	r5, [r1, #12]
 80037d0:	432b      	orrs	r3, r5
    /* Reset the Output N State */
    tmpccer &= ~TIM_CCER_CC1NE;
 80037d2:	f023 0304 	bic.w	r3, r3, #4
    
    /* Reset the Output Compare and Output Compare N IDLE State */
    tmpcr2 &= ~TIM_CR2_OIS1;
    tmpcr2 &= ~TIM_CR2_OIS1N;
 80037d6:	f424 7440 	bic.w	r4, r4, #768	; 0x300
    /* Set the Output Idle state */
    tmpcr2 |= OC_Config->OCIdleState;
 80037da:	694d      	ldr	r5, [r1, #20]
 80037dc:	432c      	orrs	r4, r5
    /* Set the Output N Idle state */
    tmpcr2 |= OC_Config->OCNIdleState;
 80037de:	698d      	ldr	r5, [r1, #24]
 80037e0:	432c      	orrs	r4, r5
  }
  /* Write to TIMx CR2 */
  TIMx->CR2 = tmpcr2;
 80037e2:	6044      	str	r4, [r0, #4]
  
  /* Write to TIMx CCMR1 */
  TIMx->CCMR1 = tmpccmrx;
 80037e4:	6182      	str	r2, [r0, #24]
  
  /* Set the Capture Compare Register value */
  TIMx->CCR1 = OC_Config->Pulse;
 80037e6:	684a      	ldr	r2, [r1, #4]
 80037e8:	6342      	str	r2, [r0, #52]	; 0x34
  
  /* Write to TIMx CCER */
  TIMx->CCER = tmpccer;  
 80037ea:	6203      	str	r3, [r0, #32]
} 
 80037ec:	bc30      	pop	{r4, r5}
 80037ee:	4770      	bx	lr
  if(IS_TIM_ADVANCED_INSTANCE(TIMx) != RESET)
 80037f0:	2501      	movs	r5, #1
 80037f2:	e7e9      	b.n	80037c8 <TIM_OC1_SetConfig+0x30>
 80037f4:	2501      	movs	r5, #1
 80037f6:	e7e7      	b.n	80037c8 <TIM_OC1_SetConfig+0x30>
 80037f8:	40010000 	.word	0x40010000

080037fc <TIM_OC3_SetConfig>:
  * @param  TIMx to select the TIM peripheral
  * @param  OC_Config The output configuration structure
  * @retval None
  */
static void TIM_OC3_SetConfig(TIM_TypeDef *TIMx, TIM_OC_InitTypeDef *OC_Config)
{
 80037fc:	b430      	push	{r4, r5}
  uint32_t tmpccmrx = 0U;
  uint32_t tmpccer = 0U;
  uint32_t tmpcr2 = 0U;   

  /* Disable the Channel 3: Reset the CC2E Bit */
  TIMx->CCER &= ~TIM_CCER_CC3E;
 80037fe:	6a03      	ldr	r3, [r0, #32]
 8003800:	f423 7380 	bic.w	r3, r3, #256	; 0x100
 8003804:	6203      	str	r3, [r0, #32]
  
  /* Get the TIMx CCER register value */
  tmpccer = TIMx->CCER;
 8003806:	6a03      	ldr	r3, [r0, #32]
  /* Get the TIMx CR2 register value */
  tmpcr2 = TIMx->CR2;
 8003808:	6844      	ldr	r4, [r0, #4]
  
  /* Get the TIMx CCMR2 register value */
  tmpccmrx = TIMx->CCMR2;
 800380a:	69c2      	ldr	r2, [r0, #28]
    
  /* Reset the Output Compare mode and Capture/Compare selection Bits */
  tmpccmrx &= ~TIM_CCMR2_OC3M;
  tmpccmrx &= ~TIM_CCMR2_CC3S;  
 800380c:	f022 0273 	bic.w	r2, r2, #115	; 0x73
  /* Select the Output Compare Mode */
  tmpccmrx |= OC_Config->OCMode;
 8003810:	680d      	ldr	r5, [r1, #0]
 8003812:	432a      	orrs	r2, r5
  
  /* Reset the Output Polarity level */
  tmpccer &= ~TIM_CCER_CC3P;
 8003814:	f423 7300 	bic.w	r3, r3, #512	; 0x200
  /* Set the Output Compare Polarity */
  tmpccer |= (OC_Config->OCPolarity << 8U);
 8003818:	688d      	ldr	r5, [r1, #8]
 800381a:	ea43 2305 	orr.w	r3, r3, r5, lsl #8
    
  if(IS_TIM_ADVANCED_INSTANCE(TIMx) != RESET)
 800381e:	4d11      	ldr	r5, [pc, #68]	; (8003864 <TIM_OC3_SetConfig+0x68>)
 8003820:	42a8      	cmp	r0, r5
 8003822:	d01d      	beq.n	8003860 <TIM_OC3_SetConfig+0x64>
 8003824:	f505 6580 	add.w	r5, r5, #1024	; 0x400
 8003828:	42a8      	cmp	r0, r5
 800382a:	d017      	beq.n	800385c <TIM_OC3_SetConfig+0x60>
 800382c:	2500      	movs	r5, #0
 800382e:	b175      	cbz	r5, 800384e <TIM_OC3_SetConfig+0x52>
    assert_param(IS_TIM_OCN_POLARITY(OC_Config->OCNPolarity));
    assert_param(IS_TIM_OCNIDLE_STATE(OC_Config->OCNIdleState));
    assert_param(IS_TIM_OCIDLE_STATE(OC_Config->OCIdleState));
    
    /* Reset the Output N Polarity level */
    tmpccer &= ~TIM_CCER_CC3NP;
 8003830:	f423 6300 	bic.w	r3, r3, #2048	; 0x800
    /* Set the Output N Polarity */
    tmpccer |= (OC_Config->OCNPolarity << 8U);
 8003834:	68cd      	ldr	r5, [r1, #12]
 8003836:	ea43 2305 	orr.w	r3, r3, r5, lsl #8
    /* Reset the Output N State */
    tmpccer &= ~TIM_CCER_CC3NE;
 800383a:	f423 6380 	bic.w	r3, r3, #1024	; 0x400
    
    /* Reset the Output Compare and Output Compare N IDLE State */
    tmpcr2 &= ~TIM_CR2_OIS3;
    tmpcr2 &= ~TIM_CR2_OIS3N;
 800383e:	f424 5440 	bic.w	r4, r4, #12288	; 0x3000
    /* Set the Output Idle state */
    tmpcr2 |= (OC_Config->OCIdleState << 4U);
 8003842:	694d      	ldr	r5, [r1, #20]
 8003844:	ea44 1405 	orr.w	r4, r4, r5, lsl #4
    /* Set the Output N Idle state */
    tmpcr2 |= (OC_Config->OCNIdleState << 4U);
 8003848:	698d      	ldr	r5, [r1, #24]
 800384a:	ea44 1405 	orr.w	r4, r4, r5, lsl #4
  }
  /* Write to TIMx CR2 */
  TIMx->CR2 = tmpcr2;
 800384e:	6044      	str	r4, [r0, #4]
  
  /* Write to TIMx CCMR2 */
  TIMx->CCMR2 = tmpccmrx;
 8003850:	61c2      	str	r2, [r0, #28]
  
  /* Set the Capture Compare Register value */
  TIMx->CCR3 = OC_Config->Pulse;
 8003852:	684a      	ldr	r2, [r1, #4]
 8003854:	63c2      	str	r2, [r0, #60]	; 0x3c
  
  /* Write to TIMx CCER */
  TIMx->CCER = tmpccer;
 8003856:	6203      	str	r3, [r0, #32]
}
 8003858:	bc30      	pop	{r4, r5}
 800385a:	4770      	bx	lr
  if(IS_TIM_ADVANCED_INSTANCE(TIMx) != RESET)
 800385c:	2501      	movs	r5, #1
 800385e:	e7e6      	b.n	800382e <TIM_OC3_SetConfig+0x32>
 8003860:	2501      	movs	r5, #1
 8003862:	e7e4      	b.n	800382e <TIM_OC3_SetConfig+0x32>
 8003864:	40010000 	.word	0x40010000

08003868 <TIM_OC4_SetConfig>:
  * @param  TIMx to select the TIM peripheral
  * @param  OC_Config The output configuration structure
  * @retval None
  */
static void TIM_OC4_SetConfig(TIM_TypeDef *TIMx, TIM_OC_InitTypeDef *OC_Config)
{
 8003868:	b430      	push	{r4, r5}
  uint32_t tmpccmrx = 0U;
  uint32_t tmpccer = 0U;
  uint32_t tmpcr2 = 0U;

  /* Disable the Channel 4: Reset the CC4E Bit */
  TIMx->CCER &= ~TIM_CCER_CC4E;
 800386a:	6a03      	ldr	r3, [r0, #32]
 800386c:	f423 5380 	bic.w	r3, r3, #4096	; 0x1000
 8003870:	6203      	str	r3, [r0, #32]
  
  /* Get the TIMx CCER register value */
  tmpccer = TIMx->CCER;
 8003872:	6a03      	ldr	r3, [r0, #32]
  /* Get the TIMx CR2 register value */
  tmpcr2 = TIMx->CR2;
 8003874:	6844      	ldr	r4, [r0, #4]
  
  /* Get the TIMx CCMR2 register value */
  tmpccmrx = TIMx->CCMR2;
 8003876:	69c2      	ldr	r2, [r0, #28]
    
  /* Reset the Output Compare mode and Capture/Compare selection Bits */
  tmpccmrx &= ~TIM_CCMR2_OC4M;
  tmpccmrx &= ~TIM_CCMR2_CC4S;
 8003878:	f422 42e6 	bic.w	r2, r2, #29440	; 0x7300
  
  /* Select the Output Compare Mode */
  tmpccmrx |= (OC_Config->OCMode << 8U);
 800387c:	680d      	ldr	r5, [r1, #0]
 800387e:	ea42 2205 	orr.w	r2, r2, r5, lsl #8
  
  /* Reset the Output Polarity level */
  tmpccer &= ~TIM_CCER_CC4P;
 8003882:	f423 5300 	bic.w	r3, r3, #8192	; 0x2000
  /* Set the Output Compare Polarity */
  tmpccer |= (OC_Config->OCPolarity << 12U);
 8003886:	688d      	ldr	r5, [r1, #8]
 8003888:	ea43 3305 	orr.w	r3, r3, r5, lsl #12
   
  /*if((TIMx == TIM1) || (TIMx == TIM8))*/
  if(IS_TIM_ADVANCED_INSTANCE(TIMx) != RESET)
 800388c:	4d0c      	ldr	r5, [pc, #48]	; (80038c0 <TIM_OC4_SetConfig+0x58>)
 800388e:	42a8      	cmp	r0, r5
 8003890:	d013      	beq.n	80038ba <TIM_OC4_SetConfig+0x52>
 8003892:	f505 6580 	add.w	r5, r5, #1024	; 0x400
 8003896:	42a8      	cmp	r0, r5
 8003898:	d00d      	beq.n	80038b6 <TIM_OC4_SetConfig+0x4e>
 800389a:	2500      	movs	r5, #0
 800389c:	b125      	cbz	r5, 80038a8 <TIM_OC4_SetConfig+0x40>
  {
    assert_param(IS_TIM_OCIDLE_STATE(OC_Config->OCIdleState));
    /* Reset the Output Compare IDLE State */
    tmpcr2 &= ~TIM_CR2_OIS4;
 800389e:	f424 4480 	bic.w	r4, r4, #16384	; 0x4000
    /* Set the Output Idle state */
    tmpcr2 |= (OC_Config->OCIdleState << 6U);
 80038a2:	694d      	ldr	r5, [r1, #20]
 80038a4:	ea44 1485 	orr.w	r4, r4, r5, lsl #6
  }
  /* Write to TIMx CR2 */
  TIMx->CR2 = tmpcr2;
 80038a8:	6044      	str	r4, [r0, #4]
  
  /* Write to TIMx CCMR2 */  
  TIMx->CCMR2 = tmpccmrx;
 80038aa:	61c2      	str	r2, [r0, #28]
    
  /* Set the Capture Compare Register value */
  TIMx->CCR4 = OC_Config->Pulse;
 80038ac:	684a      	ldr	r2, [r1, #4]
 80038ae:	6402      	str	r2, [r0, #64]	; 0x40
  
  /* Write to TIMx CCER */
  TIMx->CCER = tmpccer;
 80038b0:	6203      	str	r3, [r0, #32]
}
 80038b2:	bc30      	pop	{r4, r5}
 80038b4:	4770      	bx	lr
  if(IS_TIM_ADVANCED_INSTANCE(TIMx) != RESET)
 80038b6:	2501      	movs	r5, #1
 80038b8:	e7f0      	b.n	800389c <TIM_OC4_SetConfig+0x34>
 80038ba:	2501      	movs	r5, #1
 80038bc:	e7ee      	b.n	800389c <TIM_OC4_SetConfig+0x34>
 80038be:	bf00      	nop
 80038c0:	40010000 	.word	0x40010000

080038c4 <TIM_TI2_SetConfig>:
  *        protected against un-initialized filter and polarity values.
  * @retval None
  */
static void TIM_TI2_SetConfig(TIM_TypeDef *TIMx, uint32_t TIM_ICPolarity, uint32_t TIM_ICSelection,
                       uint32_t TIM_ICFilter)
{
 80038c4:	b430      	push	{r4, r5}
  uint32_t tmpccmr1 = 0U;
  uint32_t tmpccer = 0U;

  /* Disable the Channel 2: Reset the CC2E Bit */
  TIMx->CCER &= ~TIM_CCER_CC2E;
 80038c6:	6a04      	ldr	r4, [r0, #32]
 80038c8:	f024 0410 	bic.w	r4, r4, #16
 80038cc:	6204      	str	r4, [r0, #32]
  tmpccmr1 = TIMx->CCMR1;
 80038ce:	6984      	ldr	r4, [r0, #24]
  tmpccer = TIMx->CCER;
 80038d0:	6a05      	ldr	r5, [r0, #32]
  
  /* Select the Input */
  tmpccmr1 &= ~TIM_CCMR1_CC2S;
 80038d2:	f424 7440 	bic.w	r4, r4, #768	; 0x300
  tmpccmr1 |= (TIM_ICSelection << 8U);
 80038d6:	ea44 2202 	orr.w	r2, r4, r2, lsl #8
  
  /* Set the filter */
  tmpccmr1 &= ~TIM_CCMR1_IC2F;
 80038da:	f422 4270 	bic.w	r2, r2, #61440	; 0xf000
  tmpccmr1 |= ((TIM_ICFilter << 12U) & TIM_CCMR1_IC2F);
 80038de:	031b      	lsls	r3, r3, #12
 80038e0:	b29b      	uxth	r3, r3
 80038e2:	431a      	orrs	r2, r3

  /* Select the Polarity and set the CC2E Bit */
  tmpccer &= ~(TIM_CCER_CC2P | TIM_CCER_CC2NP);
 80038e4:	f025 05a0 	bic.w	r5, r5, #160	; 0xa0
  tmpccer |= ((TIM_ICPolarity << 4U) & (TIM_CCER_CC2P | TIM_CCER_CC2NP));
 80038e8:	0109      	lsls	r1, r1, #4
 80038ea:	f001 01a0 	and.w	r1, r1, #160	; 0xa0
 80038ee:	430d      	orrs	r5, r1

  /* Write to TIMx CCMR1 and CCER registers */
  TIMx->CCMR1 = tmpccmr1 ;
 80038f0:	6182      	str	r2, [r0, #24]
  TIMx->CCER = tmpccer;
 80038f2:	6205      	str	r5, [r0, #32]
}
 80038f4:	bc30      	pop	{r4, r5}
 80038f6:	4770      	bx	lr

080038f8 <TIM_TI3_SetConfig>:
  *        protected against un-initialized filter and polarity values.
  * @retval None
  */
static void TIM_TI3_SetConfig(TIM_TypeDef *TIMx, uint32_t TIM_ICPolarity, uint32_t TIM_ICSelection,
                       uint32_t TIM_ICFilter)
{
 80038f8:	b430      	push	{r4, r5}
  uint32_t tmpccmr2 = 0U;
  uint32_t tmpccer = 0U;

  /* Disable the Channel 3: Reset the CC3E Bit */
  TIMx->CCER &= ~TIM_CCER_CC3E;
 80038fa:	6a04      	ldr	r4, [r0, #32]
 80038fc:	f424 7480 	bic.w	r4, r4, #256	; 0x100
 8003900:	6204      	str	r4, [r0, #32]
  tmpccmr2 = TIMx->CCMR2;
 8003902:	69c4      	ldr	r4, [r0, #28]
  tmpccer = TIMx->CCER;
 8003904:	6a05      	ldr	r5, [r0, #32]

  /* Select the Input */
  tmpccmr2 &= ~TIM_CCMR2_CC3S;
 8003906:	f024 0403 	bic.w	r4, r4, #3
  tmpccmr2 |= TIM_ICSelection;
 800390a:	4322      	orrs	r2, r4

  /* Set the filter */
  tmpccmr2 &= ~TIM_CCMR2_IC3F;
 800390c:	f022 02f0 	bic.w	r2, r2, #240	; 0xf0
  tmpccmr2 |= ((TIM_ICFilter << 4U) & TIM_CCMR2_IC3F);
 8003910:	011b      	lsls	r3, r3, #4
 8003912:	b2db      	uxtb	r3, r3
 8003914:	431a      	orrs	r2, r3

  /* Select the Polarity and set the CC3E Bit */
  tmpccer &= ~(TIM_CCER_CC3P | TIM_CCER_CC3NP);
 8003916:	f425 6520 	bic.w	r5, r5, #2560	; 0xa00
  tmpccer |= ((TIM_ICPolarity << 8U) & (TIM_CCER_CC3P | TIM_CCER_CC3NP));
 800391a:	0209      	lsls	r1, r1, #8
 800391c:	f401 6120 	and.w	r1, r1, #2560	; 0xa00
 8003920:	430d      	orrs	r5, r1

  /* Write to TIMx CCMR2 and CCER registers */
  TIMx->CCMR2 = tmpccmr2;
 8003922:	61c2      	str	r2, [r0, #28]
  TIMx->CCER = tmpccer;
 8003924:	6205      	str	r5, [r0, #32]
}
 8003926:	bc30      	pop	{r4, r5}
 8003928:	4770      	bx	lr

0800392a <TIM_TI4_SetConfig>:
  *        protected against un-initialized filter and polarity values.
  * @retval None
  */
static void TIM_TI4_SetConfig(TIM_TypeDef *TIMx, uint32_t TIM_ICPolarity, uint32_t TIM_ICSelection,
                       uint32_t TIM_ICFilter)
{
 800392a:	b430      	push	{r4, r5}
  uint32_t tmpccmr2 = 0U;
  uint32_t tmpccer = 0U;

  /* Disable the Channel 4: Reset the CC4E Bit */
  TIMx->CCER &= ~TIM_CCER_CC4E;
 800392c:	6a04      	ldr	r4, [r0, #32]
 800392e:	f424 5480 	bic.w	r4, r4, #4096	; 0x1000
 8003932:	6204      	str	r4, [r0, #32]
  tmpccmr2 = TIMx->CCMR2;
 8003934:	69c4      	ldr	r4, [r0, #28]
  tmpccer = TIMx->CCER;
 8003936:	6a05      	ldr	r5, [r0, #32]

  /* Select the Input */
  tmpccmr2 &= ~TIM_CCMR2_CC4S;
 8003938:	f424 7440 	bic.w	r4, r4, #768	; 0x300
  tmpccmr2 |= (TIM_ICSelection << 8U);
 800393c:	ea44 2202 	orr.w	r2, r4, r2, lsl #8

  /* Set the filter */
  tmpccmr2 &= ~TIM_CCMR2_IC4F;
 8003940:	f422 4270 	bic.w	r2, r2, #61440	; 0xf000
  tmpccmr2 |= ((TIM_ICFilter << 12U) & TIM_CCMR2_IC4F);
 8003944:	031b      	lsls	r3, r3, #12
 8003946:	b29b      	uxth	r3, r3
 8003948:	431a      	orrs	r2, r3

  /* Select the Polarity and set the CC4E Bit */
  tmpccer &= ~(TIM_CCER_CC4P | TIM_CCER_CC4NP);
 800394a:	f425 4520 	bic.w	r5, r5, #40960	; 0xa000
  tmpccer |= ((TIM_ICPolarity << 12U) & (TIM_CCER_CC4P | TIM_CCER_CC4NP));
 800394e:	0309      	lsls	r1, r1, #12
 8003950:	f401 4120 	and.w	r1, r1, #40960	; 0xa000
 8003954:	430d      	orrs	r5, r1

  /* Write to TIMx CCMR2 and CCER registers */
  TIMx->CCMR2 = tmpccmr2;
 8003956:	61c2      	str	r2, [r0, #28]
  TIMx->CCER = tmpccer ;
 8003958:	6205      	str	r5, [r0, #32]
}
 800395a:	bc30      	pop	{r4, r5}
 800395c:	4770      	bx	lr

0800395e <HAL_TIM_IC_MspInit>:
{
 800395e:	4770      	bx	lr

08003960 <TIM_Base_SetConfig>:
  tmpcr1 = TIMx->CR1;
 8003960:	6803      	ldr	r3, [r0, #0]
  if(IS_TIM_CC3_INSTANCE(TIMx) != RESET)   
 8003962:	4a45      	ldr	r2, [pc, #276]	; (8003a78 <TIM_Base_SetConfig+0x118>)
 8003964:	4290      	cmp	r0, r2
 8003966:	d04a      	beq.n	80039fe <TIM_Base_SetConfig+0x9e>
 8003968:	f1b0 4f80 	cmp.w	r0, #1073741824	; 0x40000000
 800396c:	d049      	beq.n	8003a02 <TIM_Base_SetConfig+0xa2>
 800396e:	f5a2 427c 	sub.w	r2, r2, #64512	; 0xfc00
 8003972:	4290      	cmp	r0, r2
 8003974:	d047      	beq.n	8003a06 <TIM_Base_SetConfig+0xa6>
 8003976:	f502 6280 	add.w	r2, r2, #1024	; 0x400
 800397a:	4290      	cmp	r0, r2
 800397c:	d045      	beq.n	8003a0a <TIM_Base_SetConfig+0xaa>
 800397e:	f502 6280 	add.w	r2, r2, #1024	; 0x400
 8003982:	4290      	cmp	r0, r2
 8003984:	d043      	beq.n	8003a0e <TIM_Base_SetConfig+0xae>
 8003986:	f502 4278 	add.w	r2, r2, #63488	; 0xf800
 800398a:	4290      	cmp	r0, r2
 800398c:	d035      	beq.n	80039fa <TIM_Base_SetConfig+0x9a>
 800398e:	2200      	movs	r2, #0
 8003990:	b11a      	cbz	r2, 800399a <TIM_Base_SetConfig+0x3a>
    tmpcr1 &= ~(TIM_CR1_DIR | TIM_CR1_CMS);
 8003992:	f023 0370 	bic.w	r3, r3, #112	; 0x70
    tmpcr1 |= Structure->CounterMode;
 8003996:	684a      	ldr	r2, [r1, #4]
 8003998:	4313      	orrs	r3, r2
  if(IS_TIM_CC1_INSTANCE(TIMx) != RESET)  
 800399a:	4a37      	ldr	r2, [pc, #220]	; (8003a78 <TIM_Base_SetConfig+0x118>)
 800399c:	4290      	cmp	r0, r2
 800399e:	d03a      	beq.n	8003a16 <TIM_Base_SetConfig+0xb6>
 80039a0:	f1b0 4f80 	cmp.w	r0, #1073741824	; 0x40000000
 80039a4:	d050      	beq.n	8003a48 <TIM_Base_SetConfig+0xe8>
 80039a6:	f5a2 427c 	sub.w	r2, r2, #64512	; 0xfc00
 80039aa:	4290      	cmp	r0, r2
 80039ac:	d04e      	beq.n	8003a4c <TIM_Base_SetConfig+0xec>
 80039ae:	f502 6280 	add.w	r2, r2, #1024	; 0x400
 80039b2:	4290      	cmp	r0, r2
 80039b4:	d04c      	beq.n	8003a50 <TIM_Base_SetConfig+0xf0>
 80039b6:	f502 6280 	add.w	r2, r2, #1024	; 0x400
 80039ba:	4290      	cmp	r0, r2
 80039bc:	d04a      	beq.n	8003a54 <TIM_Base_SetConfig+0xf4>
 80039be:	f502 4278 	add.w	r2, r2, #63488	; 0xf800
 80039c2:	4290      	cmp	r0, r2
 80039c4:	d048      	beq.n	8003a58 <TIM_Base_SetConfig+0xf8>
 80039c6:	f502 5270 	add.w	r2, r2, #15360	; 0x3c00
 80039ca:	4290      	cmp	r0, r2
 80039cc:	d046      	beq.n	8003a5c <TIM_Base_SetConfig+0xfc>
 80039ce:	f502 6280 	add.w	r2, r2, #1024	; 0x400
 80039d2:	4290      	cmp	r0, r2
 80039d4:	d044      	beq.n	8003a60 <TIM_Base_SetConfig+0x100>
 80039d6:	f502 6280 	add.w	r2, r2, #1024	; 0x400
 80039da:	4290      	cmp	r0, r2
 80039dc:	d042      	beq.n	8003a64 <TIM_Base_SetConfig+0x104>
 80039de:	f5a2 3298 	sub.w	r2, r2, #77824	; 0x13000
 80039e2:	4290      	cmp	r0, r2
 80039e4:	d040      	beq.n	8003a68 <TIM_Base_SetConfig+0x108>
 80039e6:	f502 6280 	add.w	r2, r2, #1024	; 0x400
 80039ea:	4290      	cmp	r0, r2
 80039ec:	d03e      	beq.n	8003a6c <TIM_Base_SetConfig+0x10c>
 80039ee:	f502 6280 	add.w	r2, r2, #1024	; 0x400
 80039f2:	4290      	cmp	r0, r2
 80039f4:	d00d      	beq.n	8003a12 <TIM_Base_SetConfig+0xb2>
 80039f6:	2200      	movs	r2, #0
 80039f8:	e00e      	b.n	8003a18 <TIM_Base_SetConfig+0xb8>
  if(IS_TIM_CC3_INSTANCE(TIMx) != RESET)   
 80039fa:	2201      	movs	r2, #1
 80039fc:	e7c8      	b.n	8003990 <TIM_Base_SetConfig+0x30>
 80039fe:	2201      	movs	r2, #1
 8003a00:	e7c6      	b.n	8003990 <TIM_Base_SetConfig+0x30>
 8003a02:	2201      	movs	r2, #1
 8003a04:	e7c4      	b.n	8003990 <TIM_Base_SetConfig+0x30>
 8003a06:	2201      	movs	r2, #1
 8003a08:	e7c2      	b.n	8003990 <TIM_Base_SetConfig+0x30>
 8003a0a:	2201      	movs	r2, #1
 8003a0c:	e7c0      	b.n	8003990 <TIM_Base_SetConfig+0x30>
 8003a0e:	2201      	movs	r2, #1
 8003a10:	e7be      	b.n	8003990 <TIM_Base_SetConfig+0x30>
  if(IS_TIM_CC1_INSTANCE(TIMx) != RESET)  
 8003a12:	2201      	movs	r2, #1
 8003a14:	e000      	b.n	8003a18 <TIM_Base_SetConfig+0xb8>
 8003a16:	2201      	movs	r2, #1
 8003a18:	b11a      	cbz	r2, 8003a22 <TIM_Base_SetConfig+0xc2>
    tmpcr1 &= ~TIM_CR1_CKD;
 8003a1a:	f423 7340 	bic.w	r3, r3, #768	; 0x300
    tmpcr1 |= (uint32_t)Structure->ClockDivision;
 8003a1e:	68ca      	ldr	r2, [r1, #12]
 8003a20:	4313      	orrs	r3, r2
  TIMx->CR1 = tmpcr1;
 8003a22:	6003      	str	r3, [r0, #0]
  TIMx->ARR = (uint32_t)Structure->Period ;
 8003a24:	688b      	ldr	r3, [r1, #8]
 8003a26:	62c3      	str	r3, [r0, #44]	; 0x2c
  TIMx->PSC = (uint32_t)Structure->Prescaler;
 8003a28:	680b      	ldr	r3, [r1, #0]
 8003a2a:	6283      	str	r3, [r0, #40]	; 0x28
  if(IS_TIM_ADVANCED_INSTANCE(TIMx) != RESET)  
 8003a2c:	4b12      	ldr	r3, [pc, #72]	; (8003a78 <TIM_Base_SetConfig+0x118>)
 8003a2e:	4298      	cmp	r0, r3
 8003a30:	d020      	beq.n	8003a74 <TIM_Base_SetConfig+0x114>
 8003a32:	f503 6380 	add.w	r3, r3, #1024	; 0x400
 8003a36:	4298      	cmp	r0, r3
 8003a38:	d01a      	beq.n	8003a70 <TIM_Base_SetConfig+0x110>
 8003a3a:	2300      	movs	r3, #0
 8003a3c:	b10b      	cbz	r3, 8003a42 <TIM_Base_SetConfig+0xe2>
    TIMx->RCR = Structure->RepetitionCounter;
 8003a3e:	690b      	ldr	r3, [r1, #16]
 8003a40:	6303      	str	r3, [r0, #48]	; 0x30
  TIMx->EGR = TIM_EGR_UG;
 8003a42:	2301      	movs	r3, #1
 8003a44:	6143      	str	r3, [r0, #20]
 8003a46:	4770      	bx	lr
  if(IS_TIM_CC1_INSTANCE(TIMx) != RESET)  
 8003a48:	2201      	movs	r2, #1
 8003a4a:	e7e5      	b.n	8003a18 <TIM_Base_SetConfig+0xb8>
 8003a4c:	2201      	movs	r2, #1
 8003a4e:	e7e3      	b.n	8003a18 <TIM_Base_SetConfig+0xb8>
 8003a50:	2201      	movs	r2, #1
 8003a52:	e7e1      	b.n	8003a18 <TIM_Base_SetConfig+0xb8>
 8003a54:	2201      	movs	r2, #1
 8003a56:	e7df      	b.n	8003a18 <TIM_Base_SetConfig+0xb8>
 8003a58:	2201      	movs	r2, #1
 8003a5a:	e7dd      	b.n	8003a18 <TIM_Base_SetConfig+0xb8>
 8003a5c:	2201      	movs	r2, #1
 8003a5e:	e7db      	b.n	8003a18 <TIM_Base_SetConfig+0xb8>
 8003a60:	2201      	movs	r2, #1
 8003a62:	e7d9      	b.n	8003a18 <TIM_Base_SetConfig+0xb8>
 8003a64:	2201      	movs	r2, #1
 8003a66:	e7d7      	b.n	8003a18 <TIM_Base_SetConfig+0xb8>
 8003a68:	2201      	movs	r2, #1
 8003a6a:	e7d5      	b.n	8003a18 <TIM_Base_SetConfig+0xb8>
 8003a6c:	2201      	movs	r2, #1
 8003a6e:	e7d3      	b.n	8003a18 <TIM_Base_SetConfig+0xb8>
  if(IS_TIM_ADVANCED_INSTANCE(TIMx) != RESET)  
 8003a70:	2301      	movs	r3, #1
 8003a72:	e7e3      	b.n	8003a3c <TIM_Base_SetConfig+0xdc>
 8003a74:	2301      	movs	r3, #1
 8003a76:	e7e1      	b.n	8003a3c <TIM_Base_SetConfig+0xdc>
 8003a78:	40010000 	.word	0x40010000

08003a7c <HAL_TIM_PWM_Init>:
  if(htim == NULL)
 8003a7c:	b1a8      	cbz	r0, 8003aaa <HAL_TIM_PWM_Init+0x2e>
{
 8003a7e:	b510      	push	{r4, lr}
 8003a80:	4604      	mov	r4, r0
  if(htim->State == HAL_TIM_STATE_RESET)
 8003a82:	f890 3039 	ldrb.w	r3, [r0, #57]	; 0x39
 8003a86:	b15b      	cbz	r3, 8003aa0 <HAL_TIM_PWM_Init+0x24>
  htim->State= HAL_TIM_STATE_BUSY;  
 8003a88:	2302      	movs	r3, #2
 8003a8a:	f884 3039 	strb.w	r3, [r4, #57]	; 0x39
  TIM_Base_SetConfig(htim->Instance, &htim->Init); 
 8003a8e:	1d21      	adds	r1, r4, #4
 8003a90:	6820      	ldr	r0, [r4, #0]
 8003a92:	f7ff ff65 	bl	8003960 <TIM_Base_SetConfig>
  htim->State= HAL_TIM_STATE_READY;
 8003a96:	2301      	movs	r3, #1
 8003a98:	f884 3039 	strb.w	r3, [r4, #57]	; 0x39
  return HAL_OK;
 8003a9c:	2000      	movs	r0, #0
 8003a9e:	bd10      	pop	{r4, pc}
    htim->Lock = HAL_UNLOCKED;
 8003aa0:	f880 3038 	strb.w	r3, [r0, #56]	; 0x38
    HAL_TIM_PWM_MspInit(htim);
 8003aa4:	f001 f8d8 	bl	8004c58 <HAL_TIM_PWM_MspInit>
 8003aa8:	e7ee      	b.n	8003a88 <HAL_TIM_PWM_Init+0xc>
    return HAL_ERROR;
 8003aaa:	2001      	movs	r0, #1
 8003aac:	4770      	bx	lr

08003aae <HAL_TIM_IC_Init>:
  if(htim == NULL)
 8003aae:	b1a8      	cbz	r0, 8003adc <HAL_TIM_IC_Init+0x2e>
{
 8003ab0:	b510      	push	{r4, lr}
 8003ab2:	4604      	mov	r4, r0
  if(htim->State == HAL_TIM_STATE_RESET)
 8003ab4:	f890 3039 	ldrb.w	r3, [r0, #57]	; 0x39
 8003ab8:	b15b      	cbz	r3, 8003ad2 <HAL_TIM_IC_Init+0x24>
  htim->State= HAL_TIM_STATE_BUSY;   
 8003aba:	2302      	movs	r3, #2
 8003abc:	f884 3039 	strb.w	r3, [r4, #57]	; 0x39
  TIM_Base_SetConfig(htim->Instance, &htim->Init); 
 8003ac0:	1d21      	adds	r1, r4, #4
 8003ac2:	6820      	ldr	r0, [r4, #0]
 8003ac4:	f7ff ff4c 	bl	8003960 <TIM_Base_SetConfig>
  htim->State= HAL_TIM_STATE_READY;
 8003ac8:	2301      	movs	r3, #1
 8003aca:	f884 3039 	strb.w	r3, [r4, #57]	; 0x39
  return HAL_OK;
 8003ace:	2000      	movs	r0, #0
 8003ad0:	bd10      	pop	{r4, pc}
    htim->Lock = HAL_UNLOCKED;
 8003ad2:	f880 3038 	strb.w	r3, [r0, #56]	; 0x38
    HAL_TIM_IC_MspInit(htim);
 8003ad6:	f7ff ff42 	bl	800395e <HAL_TIM_IC_MspInit>
 8003ada:	e7ee      	b.n	8003aba <HAL_TIM_IC_Init+0xc>
    return HAL_ERROR;
 8003adc:	2001      	movs	r0, #1
 8003ade:	4770      	bx	lr

08003ae0 <HAL_TIM_Encoder_Init>:
  if(htim == NULL)
 8003ae0:	2800      	cmp	r0, #0
 8003ae2:	d047      	beq.n	8003b74 <HAL_TIM_Encoder_Init+0x94>
{
 8003ae4:	b5f8      	push	{r3, r4, r5, r6, r7, lr}
 8003ae6:	4605      	mov	r5, r0
 8003ae8:	460c      	mov	r4, r1
  if(htim->State == HAL_TIM_STATE_RESET)
 8003aea:	f890 3039 	ldrb.w	r3, [r0, #57]	; 0x39
 8003aee:	2b00      	cmp	r3, #0
 8003af0:	d03b      	beq.n	8003b6a <HAL_TIM_Encoder_Init+0x8a>
  htim->State= HAL_TIM_STATE_BUSY;   
 8003af2:	2302      	movs	r3, #2
 8003af4:	f885 3039 	strb.w	r3, [r5, #57]	; 0x39
  htim->Instance->SMCR &= ~TIM_SMCR_SMS;
 8003af8:	4629      	mov	r1, r5
 8003afa:	f851 2b04 	ldr.w	r2, [r1], #4
 8003afe:	6893      	ldr	r3, [r2, #8]
 8003b00:	f023 0307 	bic.w	r3, r3, #7
 8003b04:	6093      	str	r3, [r2, #8]
  TIM_Base_SetConfig(htim->Instance, &htim->Init);  
 8003b06:	6828      	ldr	r0, [r5, #0]
 8003b08:	f7ff ff2a 	bl	8003960 <TIM_Base_SetConfig>
  tmpsmcr = htim->Instance->SMCR;
 8003b0c:	6828      	ldr	r0, [r5, #0]
 8003b0e:	6886      	ldr	r6, [r0, #8]
  tmpccmr1 = htim->Instance->CCMR1;
 8003b10:	6983      	ldr	r3, [r0, #24]
  tmpccer = htim->Instance->CCER;
 8003b12:	6a02      	ldr	r2, [r0, #32]
  tmpsmcr |= sConfig->EncoderMode;
 8003b14:	6821      	ldr	r1, [r4, #0]
 8003b16:	430e      	orrs	r6, r1
  tmpccmr1 &= ~(TIM_CCMR1_CC1S | TIM_CCMR1_CC2S);
 8003b18:	f423 7340 	bic.w	r3, r3, #768	; 0x300
 8003b1c:	f023 0303 	bic.w	r3, r3, #3
  tmpccmr1 |= (sConfig->IC1Selection | (sConfig->IC2Selection << 8U));
 8003b20:	68a1      	ldr	r1, [r4, #8]
 8003b22:	69a7      	ldr	r7, [r4, #24]
 8003b24:	ea41 2107 	orr.w	r1, r1, r7, lsl #8
 8003b28:	430b      	orrs	r3, r1
  tmpccmr1 &= ~(TIM_CCMR1_IC1F | TIM_CCMR1_IC2F);
 8003b2a:	f423 437c 	bic.w	r3, r3, #64512	; 0xfc00
 8003b2e:	f023 03fc 	bic.w	r3, r3, #252	; 0xfc
  tmpccmr1 |= sConfig->IC1Prescaler | (sConfig->IC2Prescaler << 8U);
 8003b32:	68e1      	ldr	r1, [r4, #12]
 8003b34:	69e7      	ldr	r7, [r4, #28]
 8003b36:	ea41 2107 	orr.w	r1, r1, r7, lsl #8
 8003b3a:	430b      	orrs	r3, r1
  tmpccmr1 |= (sConfig->IC1Filter << 4U) | (sConfig->IC2Filter << 12U);
 8003b3c:	6927      	ldr	r7, [r4, #16]
 8003b3e:	6a21      	ldr	r1, [r4, #32]
 8003b40:	0309      	lsls	r1, r1, #12
 8003b42:	ea41 1107 	orr.w	r1, r1, r7, lsl #4
 8003b46:	430b      	orrs	r3, r1
  tmpccer &= ~(TIM_CCER_CC1NP | TIM_CCER_CC2NP);
 8003b48:	f022 02aa 	bic.w	r2, r2, #170	; 0xaa
  tmpccer |= sConfig->IC1Polarity | (sConfig->IC2Polarity << 4U);
 8003b4c:	6861      	ldr	r1, [r4, #4]
 8003b4e:	6964      	ldr	r4, [r4, #20]
 8003b50:	ea41 1104 	orr.w	r1, r1, r4, lsl #4
 8003b54:	430a      	orrs	r2, r1
  htim->Instance->SMCR = tmpsmcr;
 8003b56:	6086      	str	r6, [r0, #8]
  htim->Instance->CCMR1 = tmpccmr1;
 8003b58:	6829      	ldr	r1, [r5, #0]
 8003b5a:	618b      	str	r3, [r1, #24]
  htim->Instance->CCER = tmpccer;
 8003b5c:	682b      	ldr	r3, [r5, #0]
 8003b5e:	621a      	str	r2, [r3, #32]
  htim->State= HAL_TIM_STATE_READY;
 8003b60:	2301      	movs	r3, #1
 8003b62:	f885 3039 	strb.w	r3, [r5, #57]	; 0x39
  return HAL_OK;
 8003b66:	2000      	movs	r0, #0
 8003b68:	bdf8      	pop	{r3, r4, r5, r6, r7, pc}
    htim->Lock = HAL_UNLOCKED;
 8003b6a:	f880 3038 	strb.w	r3, [r0, #56]	; 0x38
    HAL_TIM_Encoder_MspInit(htim);
 8003b6e:	f001 f8a9 	bl	8004cc4 <HAL_TIM_Encoder_MspInit>
 8003b72:	e7be      	b.n	8003af2 <HAL_TIM_Encoder_Init+0x12>
    return HAL_ERROR;
 8003b74:	2001      	movs	r0, #1
 8003b76:	4770      	bx	lr

08003b78 <TIM_TI1_SetConfig>:
{
 8003b78:	b470      	push	{r4, r5, r6}
  TIMx->CCER &= ~TIM_CCER_CC1E;
 8003b7a:	6a04      	ldr	r4, [r0, #32]
 8003b7c:	f024 0401 	bic.w	r4, r4, #1
 8003b80:	6204      	str	r4, [r0, #32]
  tmpccmr1 = TIMx->CCMR1;
 8003b82:	6984      	ldr	r4, [r0, #24]
  tmpccer = TIMx->CCER;
 8003b84:	6a05      	ldr	r5, [r0, #32]
  if(IS_TIM_CC2_INSTANCE(TIMx) != RESET)
 8003b86:	4e23      	ldr	r6, [pc, #140]	; (8003c14 <TIM_TI1_SetConfig+0x9c>)
 8003b88:	42b0      	cmp	r0, r6
 8003b8a:	d030      	beq.n	8003bee <TIM_TI1_SetConfig+0x76>
 8003b8c:	f1b0 4f80 	cmp.w	r0, #1073741824	; 0x40000000
 8003b90:	d02f      	beq.n	8003bf2 <TIM_TI1_SetConfig+0x7a>
 8003b92:	f5a6 467c 	sub.w	r6, r6, #64512	; 0xfc00
 8003b96:	42b0      	cmp	r0, r6
 8003b98:	d02d      	beq.n	8003bf6 <TIM_TI1_SetConfig+0x7e>
 8003b9a:	f506 6680 	add.w	r6, r6, #1024	; 0x400
 8003b9e:	42b0      	cmp	r0, r6
 8003ba0:	d02b      	beq.n	8003bfa <TIM_TI1_SetConfig+0x82>
 8003ba2:	f506 6680 	add.w	r6, r6, #1024	; 0x400
 8003ba6:	42b0      	cmp	r0, r6
 8003ba8:	d029      	beq.n	8003bfe <TIM_TI1_SetConfig+0x86>
 8003baa:	f506 4678 	add.w	r6, r6, #63488	; 0xf800
 8003bae:	42b0      	cmp	r0, r6
 8003bb0:	d027      	beq.n	8003c02 <TIM_TI1_SetConfig+0x8a>
 8003bb2:	f506 5670 	add.w	r6, r6, #15360	; 0x3c00
 8003bb6:	42b0      	cmp	r0, r6
 8003bb8:	d025      	beq.n	8003c06 <TIM_TI1_SetConfig+0x8e>
 8003bba:	f5a6 3694 	sub.w	r6, r6, #75776	; 0x12800
 8003bbe:	42b0      	cmp	r0, r6
 8003bc0:	d013      	beq.n	8003bea <TIM_TI1_SetConfig+0x72>
 8003bc2:	2600      	movs	r6, #0
 8003bc4:	bb0e      	cbnz	r6, 8003c0a <TIM_TI1_SetConfig+0x92>
    tmpccmr1 &= ~TIM_CCMR1_CC1S;
 8003bc6:	f024 0203 	bic.w	r2, r4, #3
    tmpccmr1 |= TIM_CCMR1_CC1S_0;
 8003bca:	f042 0201 	orr.w	r2, r2, #1
  tmpccmr1 &= ~TIM_CCMR1_IC1F;
 8003bce:	f022 02f0 	bic.w	r2, r2, #240	; 0xf0
  tmpccmr1 |= ((TIM_ICFilter << 4U) & TIM_CCMR1_IC1F);
 8003bd2:	011b      	lsls	r3, r3, #4
 8003bd4:	b2db      	uxtb	r3, r3
 8003bd6:	4313      	orrs	r3, r2
  tmpccer &= ~(TIM_CCER_CC1P | TIM_CCER_CC1NP);
 8003bd8:	f025 020a 	bic.w	r2, r5, #10
  tmpccer |= (TIM_ICPolarity & (TIM_CCER_CC1P | TIM_CCER_CC1NP));
 8003bdc:	f001 010a 	and.w	r1, r1, #10
 8003be0:	4311      	orrs	r1, r2
  TIMx->CCMR1 = tmpccmr1;
 8003be2:	6183      	str	r3, [r0, #24]
  TIMx->CCER = tmpccer;
 8003be4:	6201      	str	r1, [r0, #32]
}
 8003be6:	bc70      	pop	{r4, r5, r6}
 8003be8:	4770      	bx	lr
  if(IS_TIM_CC2_INSTANCE(TIMx) != RESET)
 8003bea:	2601      	movs	r6, #1
 8003bec:	e7ea      	b.n	8003bc4 <TIM_TI1_SetConfig+0x4c>
 8003bee:	2601      	movs	r6, #1
 8003bf0:	e7e8      	b.n	8003bc4 <TIM_TI1_SetConfig+0x4c>
 8003bf2:	2601      	movs	r6, #1
 8003bf4:	e7e6      	b.n	8003bc4 <TIM_TI1_SetConfig+0x4c>
 8003bf6:	2601      	movs	r6, #1
 8003bf8:	e7e4      	b.n	8003bc4 <TIM_TI1_SetConfig+0x4c>
 8003bfa:	2601      	movs	r6, #1
 8003bfc:	e7e2      	b.n	8003bc4 <TIM_TI1_SetConfig+0x4c>
 8003bfe:	2601      	movs	r6, #1
 8003c00:	e7e0      	b.n	8003bc4 <TIM_TI1_SetConfig+0x4c>
 8003c02:	2601      	movs	r6, #1
 8003c04:	e7de      	b.n	8003bc4 <TIM_TI1_SetConfig+0x4c>
 8003c06:	2601      	movs	r6, #1
 8003c08:	e7dc      	b.n	8003bc4 <TIM_TI1_SetConfig+0x4c>
    tmpccmr1 &= ~TIM_CCMR1_CC1S;
 8003c0a:	f024 0403 	bic.w	r4, r4, #3
    tmpccmr1 |= TIM_ICSelection;
 8003c0e:	4322      	orrs	r2, r4
 8003c10:	e7dd      	b.n	8003bce <TIM_TI1_SetConfig+0x56>
 8003c12:	bf00      	nop
 8003c14:	40010000 	.word	0x40010000

08003c18 <HAL_TIM_IC_ConfigChannel>:
{
 8003c18:	b538      	push	{r3, r4, r5, lr}
  __HAL_LOCK(htim);
 8003c1a:	f890 3038 	ldrb.w	r3, [r0, #56]	; 0x38
 8003c1e:	2b01      	cmp	r3, #1
 8003c20:	d058      	beq.n	8003cd4 <HAL_TIM_IC_ConfigChannel+0xbc>
 8003c22:	460d      	mov	r5, r1
 8003c24:	4604      	mov	r4, r0
 8003c26:	2301      	movs	r3, #1
 8003c28:	f880 3038 	strb.w	r3, [r0, #56]	; 0x38
  htim->State = HAL_TIM_STATE_BUSY;
 8003c2c:	2302      	movs	r3, #2
 8003c2e:	f880 3039 	strb.w	r3, [r0, #57]	; 0x39
  if (Channel == TIM_CHANNEL_1)
 8003c32:	b1da      	cbz	r2, 8003c6c <HAL_TIM_IC_ConfigChannel+0x54>
  else if (Channel == TIM_CHANNEL_2)
 8003c34:	2a04      	cmp	r2, #4
 8003c36:	d02a      	beq.n	8003c8e <HAL_TIM_IC_ConfigChannel+0x76>
  else if (Channel == TIM_CHANNEL_3)
 8003c38:	2a08      	cmp	r2, #8
 8003c3a:	d03a      	beq.n	8003cb2 <HAL_TIM_IC_ConfigChannel+0x9a>
    TIM_TI4_SetConfig(htim->Instance, 
 8003c3c:	68cb      	ldr	r3, [r1, #12]
 8003c3e:	684a      	ldr	r2, [r1, #4]
 8003c40:	6809      	ldr	r1, [r1, #0]
 8003c42:	6800      	ldr	r0, [r0, #0]
 8003c44:	f7ff fe71 	bl	800392a <TIM_TI4_SetConfig>
    htim->Instance->CCMR2 &= ~TIM_CCMR2_IC4PSC;
 8003c48:	6822      	ldr	r2, [r4, #0]
 8003c4a:	69d3      	ldr	r3, [r2, #28]
 8003c4c:	f423 6340 	bic.w	r3, r3, #3072	; 0xc00
 8003c50:	61d3      	str	r3, [r2, #28]
    htim->Instance->CCMR2 |= (sConfig->ICPrescaler << 8U);
 8003c52:	6822      	ldr	r2, [r4, #0]
 8003c54:	69d3      	ldr	r3, [r2, #28]
 8003c56:	68a9      	ldr	r1, [r5, #8]
 8003c58:	ea43 2301 	orr.w	r3, r3, r1, lsl #8
 8003c5c:	61d3      	str	r3, [r2, #28]
  htim->State = HAL_TIM_STATE_READY;
 8003c5e:	2301      	movs	r3, #1
 8003c60:	f884 3039 	strb.w	r3, [r4, #57]	; 0x39
  __HAL_UNLOCK(htim);
 8003c64:	2000      	movs	r0, #0
 8003c66:	f884 0038 	strb.w	r0, [r4, #56]	; 0x38
  return HAL_OK; 
 8003c6a:	bd38      	pop	{r3, r4, r5, pc}
    TIM_TI1_SetConfig(htim->Instance,
 8003c6c:	68cb      	ldr	r3, [r1, #12]
 8003c6e:	684a      	ldr	r2, [r1, #4]
 8003c70:	6809      	ldr	r1, [r1, #0]
 8003c72:	6800      	ldr	r0, [r0, #0]
 8003c74:	f7ff ff80 	bl	8003b78 <TIM_TI1_SetConfig>
    htim->Instance->CCMR1 &= ~TIM_CCMR1_IC1PSC;
 8003c78:	6822      	ldr	r2, [r4, #0]
 8003c7a:	6993      	ldr	r3, [r2, #24]
 8003c7c:	f023 030c 	bic.w	r3, r3, #12
 8003c80:	6193      	str	r3, [r2, #24]
    htim->Instance->CCMR1 |= sConfig->ICPrescaler;
 8003c82:	6822      	ldr	r2, [r4, #0]
 8003c84:	6993      	ldr	r3, [r2, #24]
 8003c86:	68a9      	ldr	r1, [r5, #8]
 8003c88:	430b      	orrs	r3, r1
 8003c8a:	6193      	str	r3, [r2, #24]
 8003c8c:	e7e7      	b.n	8003c5e <HAL_TIM_IC_ConfigChannel+0x46>
    TIM_TI2_SetConfig(htim->Instance, 
 8003c8e:	68cb      	ldr	r3, [r1, #12]
 8003c90:	684a      	ldr	r2, [r1, #4]
 8003c92:	6809      	ldr	r1, [r1, #0]
 8003c94:	6800      	ldr	r0, [r0, #0]
 8003c96:	f7ff fe15 	bl	80038c4 <TIM_TI2_SetConfig>
    htim->Instance->CCMR1 &= ~TIM_CCMR1_IC2PSC;
 8003c9a:	6822      	ldr	r2, [r4, #0]
 8003c9c:	6993      	ldr	r3, [r2, #24]
 8003c9e:	f423 6340 	bic.w	r3, r3, #3072	; 0xc00
 8003ca2:	6193      	str	r3, [r2, #24]
    htim->Instance->CCMR1 |= (sConfig->ICPrescaler << 8U);
 8003ca4:	6822      	ldr	r2, [r4, #0]
 8003ca6:	6993      	ldr	r3, [r2, #24]
 8003ca8:	68a9      	ldr	r1, [r5, #8]
 8003caa:	ea43 2301 	orr.w	r3, r3, r1, lsl #8
 8003cae:	6193      	str	r3, [r2, #24]
 8003cb0:	e7d5      	b.n	8003c5e <HAL_TIM_IC_ConfigChannel+0x46>
    TIM_TI3_SetConfig(htim->Instance,  
 8003cb2:	68cb      	ldr	r3, [r1, #12]
 8003cb4:	684a      	ldr	r2, [r1, #4]
 8003cb6:	6809      	ldr	r1, [r1, #0]
 8003cb8:	6800      	ldr	r0, [r0, #0]
 8003cba:	f7ff fe1d 	bl	80038f8 <TIM_TI3_SetConfig>
    htim->Instance->CCMR2 &= ~TIM_CCMR2_IC3PSC;
 8003cbe:	6822      	ldr	r2, [r4, #0]
 8003cc0:	69d3      	ldr	r3, [r2, #28]
 8003cc2:	f023 030c 	bic.w	r3, r3, #12
 8003cc6:	61d3      	str	r3, [r2, #28]
    htim->Instance->CCMR2 |= sConfig->ICPrescaler;
 8003cc8:	6822      	ldr	r2, [r4, #0]
 8003cca:	69d3      	ldr	r3, [r2, #28]
 8003ccc:	68a9      	ldr	r1, [r5, #8]
 8003cce:	430b      	orrs	r3, r1
 8003cd0:	61d3      	str	r3, [r2, #28]
 8003cd2:	e7c4      	b.n	8003c5e <HAL_TIM_IC_ConfigChannel+0x46>
  __HAL_LOCK(htim);
 8003cd4:	2002      	movs	r0, #2
}
 8003cd6:	bd38      	pop	{r3, r4, r5, pc}

08003cd8 <TIM_OC2_SetConfig>:
{
 8003cd8:	b430      	push	{r4, r5}
  TIMx->CCER &= ~TIM_CCER_CC2E;
 8003cda:	6a03      	ldr	r3, [r0, #32]
 8003cdc:	f023 0310 	bic.w	r3, r3, #16
 8003ce0:	6203      	str	r3, [r0, #32]
  tmpccer = TIMx->CCER;
 8003ce2:	6a03      	ldr	r3, [r0, #32]
  tmpcr2 = TIMx->CR2;
 8003ce4:	6844      	ldr	r4, [r0, #4]
  tmpccmrx = TIMx->CCMR1;
 8003ce6:	6982      	ldr	r2, [r0, #24]
  tmpccmrx &= ~TIM_CCMR1_CC2S;
 8003ce8:	f422 42e6 	bic.w	r2, r2, #29440	; 0x7300
  tmpccmrx |= (OC_Config->OCMode << 8U);
 8003cec:	680d      	ldr	r5, [r1, #0]
 8003cee:	ea42 2205 	orr.w	r2, r2, r5, lsl #8
  tmpccer &= ~TIM_CCER_CC2P;
 8003cf2:	f023 0320 	bic.w	r3, r3, #32
  tmpccer |= (OC_Config->OCPolarity << 4U);
 8003cf6:	688d      	ldr	r5, [r1, #8]
 8003cf8:	ea43 1305 	orr.w	r3, r3, r5, lsl #4
  if(IS_TIM_ADVANCED_INSTANCE(TIMx) != RESET)
 8003cfc:	4d11      	ldr	r5, [pc, #68]	; (8003d44 <TIM_OC2_SetConfig+0x6c>)
 8003cfe:	42a8      	cmp	r0, r5
 8003d00:	d01d      	beq.n	8003d3e <TIM_OC2_SetConfig+0x66>
 8003d02:	f505 6580 	add.w	r5, r5, #1024	; 0x400
 8003d06:	42a8      	cmp	r0, r5
 8003d08:	d017      	beq.n	8003d3a <TIM_OC2_SetConfig+0x62>
 8003d0a:	2500      	movs	r5, #0
 8003d0c:	b175      	cbz	r5, 8003d2c <TIM_OC2_SetConfig+0x54>
    tmpccer &= ~TIM_CCER_CC2NP;
 8003d0e:	f023 0380 	bic.w	r3, r3, #128	; 0x80
    tmpccer |= (OC_Config->OCNPolarity << 4U);
 8003d12:	68cd      	ldr	r5, [r1, #12]
 8003d14:	ea43 1305 	orr.w	r3, r3, r5, lsl #4
    tmpccer &= ~TIM_CCER_CC2NE;
 8003d18:	f023 0340 	bic.w	r3, r3, #64	; 0x40
    tmpcr2 &= ~TIM_CR2_OIS2N;
 8003d1c:	f424 6440 	bic.w	r4, r4, #3072	; 0xc00
    tmpcr2 |= (OC_Config->OCIdleState << 2U);
 8003d20:	694d      	ldr	r5, [r1, #20]
 8003d22:	ea44 0485 	orr.w	r4, r4, r5, lsl #2
    tmpcr2 |= (OC_Config->OCNIdleState << 2U);
 8003d26:	698d      	ldr	r5, [r1, #24]
 8003d28:	ea44 0485 	orr.w	r4, r4, r5, lsl #2
  TIMx->CR2 = tmpcr2;
 8003d2c:	6044      	str	r4, [r0, #4]
  TIMx->CCMR1 = tmpccmrx;
 8003d2e:	6182      	str	r2, [r0, #24]
  TIMx->CCR2 = OC_Config->Pulse;
 8003d30:	684a      	ldr	r2, [r1, #4]
 8003d32:	6382      	str	r2, [r0, #56]	; 0x38
  TIMx->CCER = tmpccer;
 8003d34:	6203      	str	r3, [r0, #32]
}
 8003d36:	bc30      	pop	{r4, r5}
 8003d38:	4770      	bx	lr
  if(IS_TIM_ADVANCED_INSTANCE(TIMx) != RESET)
 8003d3a:	2501      	movs	r5, #1
 8003d3c:	e7e6      	b.n	8003d0c <TIM_OC2_SetConfig+0x34>
 8003d3e:	2501      	movs	r5, #1
 8003d40:	e7e4      	b.n	8003d0c <TIM_OC2_SetConfig+0x34>
 8003d42:	bf00      	nop
 8003d44:	40010000 	.word	0x40010000

08003d48 <HAL_TIM_PWM_ConfigChannel>:
{
 8003d48:	b538      	push	{r3, r4, r5, lr}
  __HAL_LOCK(htim);
 8003d4a:	f890 3038 	ldrb.w	r3, [r0, #56]	; 0x38
 8003d4e:	2b01      	cmp	r3, #1
 8003d50:	d066      	beq.n	8003e20 <HAL_TIM_PWM_ConfigChannel+0xd8>
 8003d52:	460d      	mov	r5, r1
 8003d54:	4604      	mov	r4, r0
 8003d56:	2301      	movs	r3, #1
 8003d58:	f880 3038 	strb.w	r3, [r0, #56]	; 0x38
  htim->State = HAL_TIM_STATE_BUSY;
 8003d5c:	2302      	movs	r3, #2
 8003d5e:	f880 3039 	strb.w	r3, [r0, #57]	; 0x39
  switch (Channel)
 8003d62:	2a0c      	cmp	r2, #12
 8003d64:	d81a      	bhi.n	8003d9c <HAL_TIM_PWM_ConfigChannel+0x54>
 8003d66:	e8df f002 	tbb	[pc, r2]
 8003d6a:	1907      	.short	0x1907
 8003d6c:	19201919 	.word	0x19201919
 8003d70:	19341919 	.word	0x19341919
 8003d74:	1919      	.short	0x1919
 8003d76:	47          	.byte	0x47
 8003d77:	00          	.byte	0x00
      TIM_OC1_SetConfig(htim->Instance, sConfig);
 8003d78:	6800      	ldr	r0, [r0, #0]
 8003d7a:	f7ff fd0d 	bl	8003798 <TIM_OC1_SetConfig>
      htim->Instance->CCMR1 |= TIM_CCMR1_OC1PE;
 8003d7e:	6822      	ldr	r2, [r4, #0]
 8003d80:	6993      	ldr	r3, [r2, #24]
 8003d82:	f043 0308 	orr.w	r3, r3, #8
 8003d86:	6193      	str	r3, [r2, #24]
      htim->Instance->CCMR1 &= ~TIM_CCMR1_OC1FE;
 8003d88:	6822      	ldr	r2, [r4, #0]
 8003d8a:	6993      	ldr	r3, [r2, #24]
 8003d8c:	f023 0304 	bic.w	r3, r3, #4
 8003d90:	6193      	str	r3, [r2, #24]
      htim->Instance->CCMR1 |= sConfig->OCFastMode;
 8003d92:	6822      	ldr	r2, [r4, #0]
 8003d94:	6993      	ldr	r3, [r2, #24]
 8003d96:	6929      	ldr	r1, [r5, #16]
 8003d98:	430b      	orrs	r3, r1
 8003d9a:	6193      	str	r3, [r2, #24]
  htim->State = HAL_TIM_STATE_READY;
 8003d9c:	2301      	movs	r3, #1
 8003d9e:	f884 3039 	strb.w	r3, [r4, #57]	; 0x39
  __HAL_UNLOCK(htim);
 8003da2:	2000      	movs	r0, #0
 8003da4:	f884 0038 	strb.w	r0, [r4, #56]	; 0x38
  return HAL_OK;
 8003da8:	bd38      	pop	{r3, r4, r5, pc}
      TIM_OC2_SetConfig(htim->Instance, sConfig);
 8003daa:	6800      	ldr	r0, [r0, #0]
 8003dac:	f7ff ff94 	bl	8003cd8 <TIM_OC2_SetConfig>
      htim->Instance->CCMR1 |= TIM_CCMR1_OC2PE;
 8003db0:	6822      	ldr	r2, [r4, #0]
 8003db2:	6993      	ldr	r3, [r2, #24]
 8003db4:	f443 6300 	orr.w	r3, r3, #2048	; 0x800
 8003db8:	6193      	str	r3, [r2, #24]
      htim->Instance->CCMR1 &= ~TIM_CCMR1_OC2FE;
 8003dba:	6822      	ldr	r2, [r4, #0]
 8003dbc:	6993      	ldr	r3, [r2, #24]
 8003dbe:	f423 6380 	bic.w	r3, r3, #1024	; 0x400
 8003dc2:	6193      	str	r3, [r2, #24]
      htim->Instance->CCMR1 |= sConfig->OCFastMode << 8U;
 8003dc4:	6822      	ldr	r2, [r4, #0]
 8003dc6:	6993      	ldr	r3, [r2, #24]
 8003dc8:	6929      	ldr	r1, [r5, #16]
 8003dca:	ea43 2301 	orr.w	r3, r3, r1, lsl #8
 8003dce:	6193      	str	r3, [r2, #24]
    break;
 8003dd0:	e7e4      	b.n	8003d9c <HAL_TIM_PWM_ConfigChannel+0x54>
      TIM_OC3_SetConfig(htim->Instance, sConfig);
 8003dd2:	6800      	ldr	r0, [r0, #0]
 8003dd4:	f7ff fd12 	bl	80037fc <TIM_OC3_SetConfig>
      htim->Instance->CCMR2 |= TIM_CCMR2_OC3PE;
 8003dd8:	6822      	ldr	r2, [r4, #0]
 8003dda:	69d3      	ldr	r3, [r2, #28]
 8003ddc:	f043 0308 	orr.w	r3, r3, #8
 8003de0:	61d3      	str	r3, [r2, #28]
      htim->Instance->CCMR2 &= ~TIM_CCMR2_OC3FE;
 8003de2:	6822      	ldr	r2, [r4, #0]
 8003de4:	69d3      	ldr	r3, [r2, #28]
 8003de6:	f023 0304 	bic.w	r3, r3, #4
 8003dea:	61d3      	str	r3, [r2, #28]
      htim->Instance->CCMR2 |= sConfig->OCFastMode;  
 8003dec:	6822      	ldr	r2, [r4, #0]
 8003dee:	69d3      	ldr	r3, [r2, #28]
 8003df0:	6929      	ldr	r1, [r5, #16]
 8003df2:	430b      	orrs	r3, r1
 8003df4:	61d3      	str	r3, [r2, #28]
    break;
 8003df6:	e7d1      	b.n	8003d9c <HAL_TIM_PWM_ConfigChannel+0x54>
      TIM_OC4_SetConfig(htim->Instance, sConfig);
 8003df8:	6800      	ldr	r0, [r0, #0]
 8003dfa:	f7ff fd35 	bl	8003868 <TIM_OC4_SetConfig>
      htim->Instance->CCMR2 |= TIM_CCMR2_OC4PE;
 8003dfe:	6822      	ldr	r2, [r4, #0]
 8003e00:	69d3      	ldr	r3, [r2, #28]
 8003e02:	f443 6300 	orr.w	r3, r3, #2048	; 0x800
 8003e06:	61d3      	str	r3, [r2, #28]
      htim->Instance->CCMR2 &= ~TIM_CCMR2_OC4FE;
 8003e08:	6822      	ldr	r2, [r4, #0]
 8003e0a:	69d3      	ldr	r3, [r2, #28]
 8003e0c:	f423 6380 	bic.w	r3, r3, #1024	; 0x400
 8003e10:	61d3      	str	r3, [r2, #28]
      htim->Instance->CCMR2 |= sConfig->OCFastMode << 8U;  
 8003e12:	6822      	ldr	r2, [r4, #0]
 8003e14:	69d3      	ldr	r3, [r2, #28]
 8003e16:	6929      	ldr	r1, [r5, #16]
 8003e18:	ea43 2301 	orr.w	r3, r3, r1, lsl #8
 8003e1c:	61d3      	str	r3, [r2, #28]
    break;
 8003e1e:	e7bd      	b.n	8003d9c <HAL_TIM_PWM_ConfigChannel+0x54>
  __HAL_LOCK(htim);
 8003e20:	2002      	movs	r0, #2
}
 8003e22:	bd38      	pop	{r3, r4, r5, pc}

08003e24 <HAL_TIMEx_MasterConfigSynchronization>:
  /* Check the parameters */
  assert_param(IS_TIM_MASTER_INSTANCE(htim->Instance));
  assert_param(IS_TIM_TRGO_SOURCE(sMasterConfig->MasterOutputTrigger));
  assert_param(IS_TIM_MSM_STATE(sMasterConfig->MasterSlaveMode));
  
  __HAL_LOCK(htim);
 8003e24:	f890 3038 	ldrb.w	r3, [r0, #56]	; 0x38
 8003e28:	2b01      	cmp	r3, #1
 8003e2a:	d022      	beq.n	8003e72 <HAL_TIMEx_MasterConfigSynchronization+0x4e>
{
 8003e2c:	b430      	push	{r4, r5}
  __HAL_LOCK(htim);
 8003e2e:	2201      	movs	r2, #1
 8003e30:	f880 2038 	strb.w	r2, [r0, #56]	; 0x38
  
  htim->State = HAL_TIM_STATE_BUSY;
 8003e34:	2302      	movs	r3, #2
 8003e36:	f880 3039 	strb.w	r3, [r0, #57]	; 0x39

  /* Reset the MMS Bits */
  htim->Instance->CR2 &= ~TIM_CR2_MMS;
 8003e3a:	6804      	ldr	r4, [r0, #0]
 8003e3c:	6863      	ldr	r3, [r4, #4]
 8003e3e:	f023 0370 	bic.w	r3, r3, #112	; 0x70
 8003e42:	6063      	str	r3, [r4, #4]
  /* Select the TRGO source */
  htim->Instance->CR2 |= sMasterConfig->MasterOutputTrigger;
 8003e44:	6804      	ldr	r4, [r0, #0]
 8003e46:	6863      	ldr	r3, [r4, #4]
 8003e48:	680d      	ldr	r5, [r1, #0]
 8003e4a:	432b      	orrs	r3, r5
 8003e4c:	6063      	str	r3, [r4, #4]

  /* Reset the MSM Bit */
  htim->Instance->SMCR &= ~TIM_SMCR_MSM;
 8003e4e:	6804      	ldr	r4, [r0, #0]
 8003e50:	68a3      	ldr	r3, [r4, #8]
 8003e52:	f023 0380 	bic.w	r3, r3, #128	; 0x80
 8003e56:	60a3      	str	r3, [r4, #8]
  /* Set or Reset the MSM Bit */
  htim->Instance->SMCR |= sMasterConfig->MasterSlaveMode;
 8003e58:	6804      	ldr	r4, [r0, #0]
 8003e5a:	68a3      	ldr	r3, [r4, #8]
 8003e5c:	6849      	ldr	r1, [r1, #4]
 8003e5e:	430b      	orrs	r3, r1
 8003e60:	60a3      	str	r3, [r4, #8]
  
  htim->State = HAL_TIM_STATE_READY;
 8003e62:	f880 2039 	strb.w	r2, [r0, #57]	; 0x39
  
  __HAL_UNLOCK(htim);
 8003e66:	2300      	movs	r3, #0
 8003e68:	f880 3038 	strb.w	r3, [r0, #56]	; 0x38
  
  return HAL_OK;
 8003e6c:	4618      	mov	r0, r3
} 
 8003e6e:	bc30      	pop	{r4, r5}
 8003e70:	4770      	bx	lr
  __HAL_LOCK(htim);
 8003e72:	2002      	movs	r0, #2
 8003e74:	4770      	bx	lr

08003e76 <HAL_TIMEx_ConfigBreakDeadTime>:
  assert_param(IS_TIM_BREAK_STATE(sBreakDeadTimeConfig->BreakState));
  assert_param(IS_TIM_BREAK_POLARITY(sBreakDeadTimeConfig->BreakPolarity));
  assert_param(IS_TIM_AUTOMATIC_OUTPUT_STATE(sBreakDeadTimeConfig->AutomaticOutput));
  
  /* Check input state */
  __HAL_LOCK(htim);
 8003e76:	f890 3038 	ldrb.w	r3, [r0, #56]	; 0x38
 8003e7a:	2b01      	cmp	r3, #1
 8003e7c:	d025      	beq.n	8003eca <HAL_TIMEx_ConfigBreakDeadTime+0x54>
 8003e7e:	2301      	movs	r3, #1
 8003e80:	f880 3038 	strb.w	r3, [r0, #56]	; 0x38
  
  /* Set the Lock level, the Break enable Bit and the Polarity, the OSSR State,
  the OSSI State, the dead time value and the Automatic Output Enable Bit */
  
  /* Set the BDTR bits */
  MODIFY_REG(tmpbdtr, TIM_BDTR_DTG, sBreakDeadTimeConfig->DeadTime);
 8003e84:	68cb      	ldr	r3, [r1, #12]
  MODIFY_REG(tmpbdtr, TIM_BDTR_LOCK, sBreakDeadTimeConfig->LockLevel);
 8003e86:	f423 7340 	bic.w	r3, r3, #768	; 0x300
 8003e8a:	688a      	ldr	r2, [r1, #8]
 8003e8c:	4313      	orrs	r3, r2
  MODIFY_REG(tmpbdtr, TIM_BDTR_OSSI, sBreakDeadTimeConfig->OffStateIDLEMode);
 8003e8e:	f423 6380 	bic.w	r3, r3, #1024	; 0x400
 8003e92:	684a      	ldr	r2, [r1, #4]
 8003e94:	4313      	orrs	r3, r2
  MODIFY_REG(tmpbdtr, TIM_BDTR_OSSR, sBreakDeadTimeConfig->OffStateRunMode);
 8003e96:	f423 6300 	bic.w	r3, r3, #2048	; 0x800
 8003e9a:	680a      	ldr	r2, [r1, #0]
 8003e9c:	4313      	orrs	r3, r2
  MODIFY_REG(tmpbdtr, TIM_BDTR_BKE, sBreakDeadTimeConfig->BreakState);
 8003e9e:	f423 5380 	bic.w	r3, r3, #4096	; 0x1000
 8003ea2:	690a      	ldr	r2, [r1, #16]
 8003ea4:	4313      	orrs	r3, r2
  MODIFY_REG(tmpbdtr, TIM_BDTR_BKP, sBreakDeadTimeConfig->BreakPolarity);
 8003ea6:	f423 5300 	bic.w	r3, r3, #8192	; 0x2000
 8003eaa:	694a      	ldr	r2, [r1, #20]
 8003eac:	4313      	orrs	r3, r2
  MODIFY_REG(tmpbdtr, TIM_BDTR_AOE, sBreakDeadTimeConfig->AutomaticOutput);
 8003eae:	f423 4380 	bic.w	r3, r3, #16384	; 0x4000
 8003eb2:	698a      	ldr	r2, [r1, #24]
 8003eb4:	4313      	orrs	r3, r2
  MODIFY_REG(tmpbdtr, TIM_BDTR_MOE, sBreakDeadTimeConfig->AutomaticOutput);
 8003eb6:	f423 4300 	bic.w	r3, r3, #32768	; 0x8000
 8003eba:	4313      	orrs	r3, r2
  
  /* Set TIMx_BDTR */
  htim->Instance->BDTR = tmpbdtr;
 8003ebc:	6802      	ldr	r2, [r0, #0]
 8003ebe:	6453      	str	r3, [r2, #68]	; 0x44
  
  __HAL_UNLOCK(htim);
 8003ec0:	2300      	movs	r3, #0
 8003ec2:	f880 3038 	strb.w	r3, [r0, #56]	; 0x38

  return HAL_OK;
 8003ec6:	4618      	mov	r0, r3
 8003ec8:	4770      	bx	lr
  __HAL_LOCK(htim);
 8003eca:	2002      	movs	r0, #2
}
 8003ecc:	4770      	bx	lr
	...

08003ed0 <UART_SetConfig>:
  * @param  huart pointer to a UART_HandleTypeDef structure that contains
  *                the configuration information for the specified UART module.
  * @retval None
  */
static void UART_SetConfig(UART_HandleTypeDef *huart)
{
 8003ed0:	e92d 47f0 	stmdb	sp!, {r4, r5, r6, r7, r8, r9, sl, lr}
 8003ed4:	4604      	mov	r4, r0
  assert_param(IS_UART_STOPBITS(huart->Init.StopBits));
  assert_param(IS_UART_PARITY(huart->Init.Parity));
  assert_param(IS_UART_MODE(huart->Init.Mode));

  /*-------------------------- USART CR2 Configuration -----------------------*/
  tmpreg = huart->Instance->CR2;
 8003ed6:	6802      	ldr	r2, [r0, #0]
 8003ed8:	6913      	ldr	r3, [r2, #16]

  /* Clear STOP[13:12] bits */
  tmpreg &= (uint32_t)~((uint32_t)USART_CR2_STOP);
 8003eda:	f423 5340 	bic.w	r3, r3, #12288	; 0x3000

  /* Configure the UART Stop Bits: Set STOP[13:12] bits according to huart->Init.StopBits value */
  tmpreg |= (uint32_t)huart->Init.StopBits;
 8003ede:	68c1      	ldr	r1, [r0, #12]
 8003ee0:	430b      	orrs	r3, r1
  
  /* Write to USART CR2 */
  WRITE_REG(huart->Instance->CR2, (uint32_t)tmpreg);
 8003ee2:	6113      	str	r3, [r2, #16]

  /*-------------------------- USART CR1 Configuration -----------------------*/
  tmpreg = huart->Instance->CR1;
 8003ee4:	6801      	ldr	r1, [r0, #0]
 8003ee6:	68cb      	ldr	r3, [r1, #12]

  /* Clear M, PCE, PS, TE and RE bits */
  tmpreg &= (uint32_t)~((uint32_t)(USART_CR1_M | USART_CR1_PCE | USART_CR1_PS | USART_CR1_TE | \
 8003ee8:	f423 4316 	bic.w	r3, r3, #38400	; 0x9600
 8003eec:	f023 030c 	bic.w	r3, r3, #12
  /* Configure the UART Word Length, Parity and mode: 
     Set the M bits according to huart->Init.WordLength value 
     Set PCE and PS bits according to huart->Init.Parity value
     Set TE and RE bits according to huart->Init.Mode value
     Set OVER8 bit according to huart->Init.OverSampling value */
  tmpreg |= (uint32_t)huart->Init.WordLength | huart->Init.Parity | huart->Init.Mode | huart->Init.OverSampling;
 8003ef0:	6882      	ldr	r2, [r0, #8]
 8003ef2:	6900      	ldr	r0, [r0, #16]
 8003ef4:	4302      	orrs	r2, r0
 8003ef6:	6960      	ldr	r0, [r4, #20]
 8003ef8:	4302      	orrs	r2, r0
 8003efa:	69e0      	ldr	r0, [r4, #28]
 8003efc:	4302      	orrs	r2, r0
 8003efe:	4313      	orrs	r3, r2
  
  /* Write to USART CR1 */
  WRITE_REG(huart->Instance->CR1, (uint32_t)tmpreg);
 8003f00:	60cb      	str	r3, [r1, #12]
  
  /*-------------------------- USART CR3 Configuration -----------------------*/  
  tmpreg = huart->Instance->CR3;
 8003f02:	6822      	ldr	r2, [r4, #0]
 8003f04:	6953      	ldr	r3, [r2, #20]
  
  /* Clear CTSE and RTSE bits */
  tmpreg &= (uint32_t)~((uint32_t)(USART_CR3_RTSE | USART_CR3_CTSE));
 8003f06:	f423 7340 	bic.w	r3, r3, #768	; 0x300
  
  /* Configure the UART HFC: Set CTSE and RTSE bits according to huart->Init.HwFlowCtl value */
  tmpreg |= huart->Init.HwFlowCtl;
 8003f0a:	69a1      	ldr	r1, [r4, #24]
 8003f0c:	430b      	orrs	r3, r1
  
  /* Write to USART CR3 */
  WRITE_REG(huart->Instance->CR3, (uint32_t)tmpreg);
 8003f0e:	6153      	str	r3, [r2, #20]
  
  /* Check the Over Sampling */
  if(huart->Init.OverSampling == UART_OVERSAMPLING_8)
 8003f10:	69e3      	ldr	r3, [r4, #28]
 8003f12:	f5b3 4f00 	cmp.w	r3, #32768	; 0x8000
 8003f16:	d062      	beq.n	8003fde <UART_SetConfig+0x10e>
  }
  else
  {
    /*-------------------------- USART BRR Configuration ---------------------*/
#if defined(USART6) 
    if((huart->Instance == USART1) || (huart->Instance == USART6))
 8003f18:	f8d4 8000 	ldr.w	r8, [r4]
 8003f1c:	4bbb      	ldr	r3, [pc, #748]	; (800420c <UART_SetConfig+0x33c>)
 8003f1e:	4598      	cmp	r8, r3
 8003f20:	f000 811b 	beq.w	800415a <UART_SetConfig+0x28a>
 8003f24:	f503 6380 	add.w	r3, r3, #1024	; 0x400
 8003f28:	4598      	cmp	r8, r3
 8003f2a:	f000 8116 	beq.w	800415a <UART_SetConfig+0x28a>
      huart->Instance->BRR = UART_BRR_SAMPLING16(HAL_RCC_GetPCLK2Freq(), huart->Init.BaudRate);
    }	
#endif /* USART6 */
    else
    {
      huart->Instance->BRR = UART_BRR_SAMPLING16(HAL_RCC_GetPCLK1Freq(), huart->Init.BaudRate);
 8003f2e:	f7fe fcf3 	bl	8002918 <HAL_RCC_GetPCLK1Freq>
 8003f32:	eb00 0080 	add.w	r0, r0, r0, lsl #2
 8003f36:	eb00 0080 	add.w	r0, r0, r0, lsl #2
 8003f3a:	6865      	ldr	r5, [r4, #4]
 8003f3c:	00ad      	lsls	r5, r5, #2
 8003f3e:	fbb0 f5f5 	udiv	r5, r0, r5
 8003f42:	4fb3      	ldr	r7, [pc, #716]	; (8004210 <UART_SetConfig+0x340>)
 8003f44:	fba7 3505 	umull	r3, r5, r7, r5
 8003f48:	096d      	lsrs	r5, r5, #5
 8003f4a:	012e      	lsls	r6, r5, #4
 8003f4c:	f7fe fce4 	bl	8002918 <HAL_RCC_GetPCLK1Freq>
 8003f50:	eb00 0080 	add.w	r0, r0, r0, lsl #2
 8003f54:	eb00 0080 	add.w	r0, r0, r0, lsl #2
 8003f58:	6865      	ldr	r5, [r4, #4]
 8003f5a:	00ad      	lsls	r5, r5, #2
 8003f5c:	fbb0 faf5 	udiv	sl, r0, r5
 8003f60:	f7fe fcda 	bl	8002918 <HAL_RCC_GetPCLK1Freq>
 8003f64:	eb00 0080 	add.w	r0, r0, r0, lsl #2
 8003f68:	eb00 0080 	add.w	r0, r0, r0, lsl #2
 8003f6c:	6865      	ldr	r5, [r4, #4]
 8003f6e:	00ad      	lsls	r5, r5, #2
 8003f70:	fbb0 f5f5 	udiv	r5, r0, r5
 8003f74:	fba7 3505 	umull	r3, r5, r7, r5
 8003f78:	096d      	lsrs	r5, r5, #5
 8003f7a:	f04f 0964 	mov.w	r9, #100	; 0x64
 8003f7e:	fb09 a515 	mls	r5, r9, r5, sl
 8003f82:	012d      	lsls	r5, r5, #4
 8003f84:	3532      	adds	r5, #50	; 0x32
 8003f86:	fba7 3505 	umull	r3, r5, r7, r5
 8003f8a:	096d      	lsrs	r5, r5, #5
 8003f8c:	f005 05f0 	and.w	r5, r5, #240	; 0xf0
 8003f90:	4435      	add	r5, r6
 8003f92:	f7fe fcc1 	bl	8002918 <HAL_RCC_GetPCLK1Freq>
 8003f96:	eb00 0080 	add.w	r0, r0, r0, lsl #2
 8003f9a:	eb00 0080 	add.w	r0, r0, r0, lsl #2
 8003f9e:	6866      	ldr	r6, [r4, #4]
 8003fa0:	00b6      	lsls	r6, r6, #2
 8003fa2:	fbb0 f6f6 	udiv	r6, r0, r6
 8003fa6:	f7fe fcb7 	bl	8002918 <HAL_RCC_GetPCLK1Freq>
 8003faa:	eb00 0080 	add.w	r0, r0, r0, lsl #2
 8003fae:	eb00 0080 	add.w	r0, r0, r0, lsl #2
 8003fb2:	6863      	ldr	r3, [r4, #4]
 8003fb4:	009b      	lsls	r3, r3, #2
 8003fb6:	fbb0 f0f3 	udiv	r0, r0, r3
 8003fba:	fba7 3000 	umull	r3, r0, r7, r0
 8003fbe:	0940      	lsrs	r0, r0, #5
 8003fc0:	fb09 6910 	mls	r9, r9, r0, r6
 8003fc4:	ea4f 1909 	mov.w	r9, r9, lsl #4
 8003fc8:	f109 0932 	add.w	r9, r9, #50	; 0x32
 8003fcc:	fba7 3709 	umull	r3, r7, r7, r9
 8003fd0:	f3c7 1743 	ubfx	r7, r7, #5, #4
 8003fd4:	442f      	add	r7, r5
 8003fd6:	f8c8 7008 	str.w	r7, [r8, #8]
 8003fda:	e8bd 87f0 	ldmia.w	sp!, {r4, r5, r6, r7, r8, r9, sl, pc}
    if((huart->Instance == USART1) || (huart->Instance == USART6))
 8003fde:	f8d4 8000 	ldr.w	r8, [r4]
 8003fe2:	f103 4380 	add.w	r3, r3, #1073741824	; 0x40000000
 8003fe6:	f503 4310 	add.w	r3, r3, #36864	; 0x9000
 8003fea:	4598      	cmp	r8, r3
 8003fec:	d05c      	beq.n	80040a8 <UART_SetConfig+0x1d8>
 8003fee:	f503 6380 	add.w	r3, r3, #1024	; 0x400
 8003ff2:	4598      	cmp	r8, r3
 8003ff4:	d058      	beq.n	80040a8 <UART_SetConfig+0x1d8>
      huart->Instance->BRR = UART_BRR_SAMPLING8(HAL_RCC_GetPCLK1Freq(), huart->Init.BaudRate);
 8003ff6:	f7fe fc8f 	bl	8002918 <HAL_RCC_GetPCLK1Freq>
 8003ffa:	eb00 0080 	add.w	r0, r0, r0, lsl #2
 8003ffe:	eb00 0080 	add.w	r0, r0, r0, lsl #2
 8004002:	6865      	ldr	r5, [r4, #4]
 8004004:	006d      	lsls	r5, r5, #1
 8004006:	fbb0 f5f5 	udiv	r5, r0, r5
 800400a:	4f81      	ldr	r7, [pc, #516]	; (8004210 <UART_SetConfig+0x340>)
 800400c:	fba7 3505 	umull	r3, r5, r7, r5
 8004010:	096d      	lsrs	r5, r5, #5
 8004012:	012e      	lsls	r6, r5, #4
 8004014:	f7fe fc80 	bl	8002918 <HAL_RCC_GetPCLK1Freq>
 8004018:	eb00 0080 	add.w	r0, r0, r0, lsl #2
 800401c:	eb00 0080 	add.w	r0, r0, r0, lsl #2
 8004020:	6865      	ldr	r5, [r4, #4]
 8004022:	006d      	lsls	r5, r5, #1
 8004024:	fbb0 faf5 	udiv	sl, r0, r5
 8004028:	f7fe fc76 	bl	8002918 <HAL_RCC_GetPCLK1Freq>
 800402c:	eb00 0080 	add.w	r0, r0, r0, lsl #2
 8004030:	eb00 0080 	add.w	r0, r0, r0, lsl #2
 8004034:	6865      	ldr	r5, [r4, #4]
 8004036:	006d      	lsls	r5, r5, #1
 8004038:	fbb0 f5f5 	udiv	r5, r0, r5
 800403c:	fba7 3505 	umull	r3, r5, r7, r5
 8004040:	096d      	lsrs	r5, r5, #5
 8004042:	f04f 0964 	mov.w	r9, #100	; 0x64
 8004046:	fb09 a515 	mls	r5, r9, r5, sl
 800404a:	00ed      	lsls	r5, r5, #3
 800404c:	3532      	adds	r5, #50	; 0x32
 800404e:	fba7 3505 	umull	r3, r5, r7, r5
 8004052:	096d      	lsrs	r5, r5, #5
 8004054:	006d      	lsls	r5, r5, #1
 8004056:	f405 75f8 	and.w	r5, r5, #496	; 0x1f0
 800405a:	4435      	add	r5, r6
 800405c:	f7fe fc5c 	bl	8002918 <HAL_RCC_GetPCLK1Freq>
 8004060:	eb00 0080 	add.w	r0, r0, r0, lsl #2
 8004064:	eb00 0080 	add.w	r0, r0, r0, lsl #2
 8004068:	6866      	ldr	r6, [r4, #4]
 800406a:	0076      	lsls	r6, r6, #1
 800406c:	fbb0 f6f6 	udiv	r6, r0, r6
 8004070:	f7fe fc52 	bl	8002918 <HAL_RCC_GetPCLK1Freq>
 8004074:	eb00 0080 	add.w	r0, r0, r0, lsl #2
 8004078:	eb00 0080 	add.w	r0, r0, r0, lsl #2
 800407c:	6863      	ldr	r3, [r4, #4]
 800407e:	005b      	lsls	r3, r3, #1
 8004080:	fbb0 f3f3 	udiv	r3, r0, r3
 8004084:	fba7 2303 	umull	r2, r3, r7, r3
 8004088:	095b      	lsrs	r3, r3, #5
 800408a:	fb09 6913 	mls	r9, r9, r3, r6
 800408e:	ea4f 09c9 	mov.w	r9, r9, lsl #3
 8004092:	f109 0932 	add.w	r9, r9, #50	; 0x32
 8004096:	fba7 3709 	umull	r3, r7, r7, r9
 800409a:	f3c7 1742 	ubfx	r7, r7, #5, #3
 800409e:	442f      	add	r7, r5
 80040a0:	f8c8 7008 	str.w	r7, [r8, #8]
 80040a4:	e8bd 87f0 	ldmia.w	sp!, {r4, r5, r6, r7, r8, r9, sl, pc}
      huart->Instance->BRR = UART_BRR_SAMPLING8(HAL_RCC_GetPCLK2Freq(), huart->Init.BaudRate);
 80040a8:	f7fe fc46 	bl	8002938 <HAL_RCC_GetPCLK2Freq>
 80040ac:	eb00 0080 	add.w	r0, r0, r0, lsl #2
 80040b0:	eb00 0080 	add.w	r0, r0, r0, lsl #2
 80040b4:	6865      	ldr	r5, [r4, #4]
 80040b6:	006d      	lsls	r5, r5, #1
 80040b8:	fbb0 f5f5 	udiv	r5, r0, r5
 80040bc:	4f54      	ldr	r7, [pc, #336]	; (8004210 <UART_SetConfig+0x340>)
 80040be:	fba7 3505 	umull	r3, r5, r7, r5
 80040c2:	096d      	lsrs	r5, r5, #5
 80040c4:	012e      	lsls	r6, r5, #4
 80040c6:	f7fe fc37 	bl	8002938 <HAL_RCC_GetPCLK2Freq>
 80040ca:	eb00 0080 	add.w	r0, r0, r0, lsl #2
 80040ce:	eb00 0080 	add.w	r0, r0, r0, lsl #2
 80040d2:	6865      	ldr	r5, [r4, #4]
 80040d4:	006d      	lsls	r5, r5, #1
 80040d6:	fbb0 faf5 	udiv	sl, r0, r5
 80040da:	f7fe fc2d 	bl	8002938 <HAL_RCC_GetPCLK2Freq>
 80040de:	eb00 0080 	add.w	r0, r0, r0, lsl #2
 80040e2:	eb00 0080 	add.w	r0, r0, r0, lsl #2
 80040e6:	6865      	ldr	r5, [r4, #4]
 80040e8:	006d      	lsls	r5, r5, #1
 80040ea:	fbb0 f5f5 	udiv	r5, r0, r5
 80040ee:	fba7 3505 	umull	r3, r5, r7, r5
 80040f2:	096d      	lsrs	r5, r5, #5
 80040f4:	f04f 0964 	mov.w	r9, #100	; 0x64
 80040f8:	fb09 a515 	mls	r5, r9, r5, sl
 80040fc:	00ed      	lsls	r5, r5, #3
 80040fe:	3532      	adds	r5, #50	; 0x32
 8004100:	fba7 3505 	umull	r3, r5, r7, r5
 8004104:	096d      	lsrs	r5, r5, #5
 8004106:	006d      	lsls	r5, r5, #1
 8004108:	f405 75f8 	and.w	r5, r5, #496	; 0x1f0
 800410c:	4435      	add	r5, r6
 800410e:	f7fe fc13 	bl	8002938 <HAL_RCC_GetPCLK2Freq>
 8004112:	eb00 0080 	add.w	r0, r0, r0, lsl #2
 8004116:	eb00 0080 	add.w	r0, r0, r0, lsl #2
 800411a:	6866      	ldr	r6, [r4, #4]
 800411c:	0076      	lsls	r6, r6, #1
 800411e:	fbb0 f6f6 	udiv	r6, r0, r6
 8004122:	f7fe fc09 	bl	8002938 <HAL_RCC_GetPCLK2Freq>
 8004126:	eb00 0080 	add.w	r0, r0, r0, lsl #2
 800412a:	eb00 0080 	add.w	r0, r0, r0, lsl #2
 800412e:	6863      	ldr	r3, [r4, #4]
 8004130:	005b      	lsls	r3, r3, #1
 8004132:	fbb0 f3f3 	udiv	r3, r0, r3
 8004136:	fba7 2303 	umull	r2, r3, r7, r3
 800413a:	095b      	lsrs	r3, r3, #5
 800413c:	fb09 6913 	mls	r9, r9, r3, r6
 8004140:	ea4f 09c9 	mov.w	r9, r9, lsl #3
 8004144:	f109 0932 	add.w	r9, r9, #50	; 0x32
 8004148:	fba7 3709 	umull	r3, r7, r7, r9
 800414c:	f3c7 1742 	ubfx	r7, r7, #5, #3
 8004150:	442f      	add	r7, r5
 8004152:	f8c8 7008 	str.w	r7, [r8, #8]
 8004156:	e8bd 87f0 	ldmia.w	sp!, {r4, r5, r6, r7, r8, r9, sl, pc}
      huart->Instance->BRR = UART_BRR_SAMPLING16(HAL_RCC_GetPCLK2Freq(), huart->Init.BaudRate);
 800415a:	f7fe fbed 	bl	8002938 <HAL_RCC_GetPCLK2Freq>
 800415e:	eb00 0080 	add.w	r0, r0, r0, lsl #2
 8004162:	eb00 0080 	add.w	r0, r0, r0, lsl #2
 8004166:	6865      	ldr	r5, [r4, #4]
 8004168:	00ad      	lsls	r5, r5, #2
 800416a:	fbb0 f5f5 	udiv	r5, r0, r5
 800416e:	4f28      	ldr	r7, [pc, #160]	; (8004210 <UART_SetConfig+0x340>)
 8004170:	fba7 3505 	umull	r3, r5, r7, r5
 8004174:	096d      	lsrs	r5, r5, #5
 8004176:	012e      	lsls	r6, r5, #4
 8004178:	f7fe fbde 	bl	8002938 <HAL_RCC_GetPCLK2Freq>
 800417c:	eb00 0080 	add.w	r0, r0, r0, lsl #2
 8004180:	eb00 0080 	add.w	r0, r0, r0, lsl #2
 8004184:	6865      	ldr	r5, [r4, #4]
 8004186:	00ad      	lsls	r5, r5, #2
 8004188:	fbb0 faf5 	udiv	sl, r0, r5
 800418c:	f7fe fbd4 	bl	8002938 <HAL_RCC_GetPCLK2Freq>
 8004190:	eb00 0080 	add.w	r0, r0, r0, lsl #2
 8004194:	eb00 0080 	add.w	r0, r0, r0, lsl #2
 8004198:	6865      	ldr	r5, [r4, #4]
 800419a:	00ad      	lsls	r5, r5, #2
 800419c:	fbb0 f5f5 	udiv	r5, r0, r5
 80041a0:	fba7 3505 	umull	r3, r5, r7, r5
 80041a4:	096d      	lsrs	r5, r5, #5
 80041a6:	f04f 0964 	mov.w	r9, #100	; 0x64
 80041aa:	fb09 a515 	mls	r5, r9, r5, sl
 80041ae:	012d      	lsls	r5, r5, #4
 80041b0:	3532      	adds	r5, #50	; 0x32
 80041b2:	fba7 3505 	umull	r3, r5, r7, r5
 80041b6:	096d      	lsrs	r5, r5, #5
 80041b8:	f005 05f0 	and.w	r5, r5, #240	; 0xf0
 80041bc:	4435      	add	r5, r6
 80041be:	f7fe fbbb 	bl	8002938 <HAL_RCC_GetPCLK2Freq>
 80041c2:	eb00 0080 	add.w	r0, r0, r0, lsl #2
 80041c6:	eb00 0080 	add.w	r0, r0, r0, lsl #2
 80041ca:	6866      	ldr	r6, [r4, #4]
 80041cc:	00b6      	lsls	r6, r6, #2
 80041ce:	fbb0 f6f6 	udiv	r6, r0, r6
 80041d2:	f7fe fbb1 	bl	8002938 <HAL_RCC_GetPCLK2Freq>
 80041d6:	eb00 0080 	add.w	r0, r0, r0, lsl #2
 80041da:	eb00 0080 	add.w	r0, r0, r0, lsl #2
 80041de:	6863      	ldr	r3, [r4, #4]
 80041e0:	009b      	lsls	r3, r3, #2
 80041e2:	fbb0 f3f3 	udiv	r3, r0, r3
 80041e6:	fba7 2303 	umull	r2, r3, r7, r3
 80041ea:	095b      	lsrs	r3, r3, #5
 80041ec:	fb09 6913 	mls	r9, r9, r3, r6
 80041f0:	ea4f 1909 	mov.w	r9, r9, lsl #4
 80041f4:	f109 0932 	add.w	r9, r9, #50	; 0x32
 80041f8:	fba7 3709 	umull	r3, r7, r7, r9
 80041fc:	f3c7 1743 	ubfx	r7, r7, #5, #4
 8004200:	442f      	add	r7, r5
 8004202:	f8c8 7008 	str.w	r7, [r8, #8]
 8004206:	e8bd 87f0 	ldmia.w	sp!, {r4, r5, r6, r7, r8, r9, sl, pc}
 800420a:	bf00      	nop
 800420c:	40011000 	.word	0x40011000
 8004210:	51eb851f 	.word	0x51eb851f

08004214 <UART_WaitOnFlagUntilTimeout>:
{
 8004214:	e92d 41f0 	stmdb	sp!, {r4, r5, r6, r7, r8, lr}
 8004218:	4605      	mov	r5, r0
 800421a:	460f      	mov	r7, r1
 800421c:	4616      	mov	r6, r2
 800421e:	4698      	mov	r8, r3
 8004220:	9c06      	ldr	r4, [sp, #24]
  while((__HAL_UART_GET_FLAG(huart, Flag) ? SET : RESET) == Status) 
 8004222:	682b      	ldr	r3, [r5, #0]
 8004224:	681b      	ldr	r3, [r3, #0]
 8004226:	ea37 0303 	bics.w	r3, r7, r3
 800422a:	bf0c      	ite	eq
 800422c:	2301      	moveq	r3, #1
 800422e:	2300      	movne	r3, #0
 8004230:	42b3      	cmp	r3, r6
 8004232:	d11e      	bne.n	8004272 <UART_WaitOnFlagUntilTimeout+0x5e>
    if(Timeout != HAL_MAX_DELAY)
 8004234:	f1b4 3fff 	cmp.w	r4, #4294967295
 8004238:	d0f3      	beq.n	8004222 <UART_WaitOnFlagUntilTimeout+0xe>
      if((Timeout == 0U)||((HAL_GetTick() - Tickstart ) > Timeout))
 800423a:	b12c      	cbz	r4, 8004248 <UART_WaitOnFlagUntilTimeout+0x34>
 800423c:	f7fc fea4 	bl	8000f88 <HAL_GetTick>
 8004240:	eba0 0008 	sub.w	r0, r0, r8
 8004244:	4284      	cmp	r4, r0
 8004246:	d2ec      	bcs.n	8004222 <UART_WaitOnFlagUntilTimeout+0xe>
        CLEAR_BIT(huart->Instance->CR1, (USART_CR1_RXNEIE | USART_CR1_PEIE | USART_CR1_TXEIE));
 8004248:	682a      	ldr	r2, [r5, #0]
 800424a:	68d3      	ldr	r3, [r2, #12]
 800424c:	f423 73d0 	bic.w	r3, r3, #416	; 0x1a0
 8004250:	60d3      	str	r3, [r2, #12]
        CLEAR_BIT(huart->Instance->CR3, USART_CR3_EIE);
 8004252:	682a      	ldr	r2, [r5, #0]
 8004254:	6953      	ldr	r3, [r2, #20]
 8004256:	f023 0301 	bic.w	r3, r3, #1
 800425a:	6153      	str	r3, [r2, #20]
        huart->gState  = HAL_UART_STATE_READY;
 800425c:	2320      	movs	r3, #32
 800425e:	f885 3039 	strb.w	r3, [r5, #57]	; 0x39
        huart->RxState = HAL_UART_STATE_READY;
 8004262:	f885 303a 	strb.w	r3, [r5, #58]	; 0x3a
        __HAL_UNLOCK(huart);
 8004266:	2300      	movs	r3, #0
 8004268:	f885 3038 	strb.w	r3, [r5, #56]	; 0x38
        return HAL_TIMEOUT;
 800426c:	2003      	movs	r0, #3
 800426e:	e8bd 81f0 	ldmia.w	sp!, {r4, r5, r6, r7, r8, pc}
  return HAL_OK;
 8004272:	2000      	movs	r0, #0
}
 8004274:	e8bd 81f0 	ldmia.w	sp!, {r4, r5, r6, r7, r8, pc}

08004278 <HAL_UART_Init>:
  if(huart == NULL)
 8004278:	b358      	cbz	r0, 80042d2 <HAL_UART_Init+0x5a>
{
 800427a:	b510      	push	{r4, lr}
 800427c:	4604      	mov	r4, r0
  if(huart->gState == HAL_UART_STATE_RESET)
 800427e:	f890 3039 	ldrb.w	r3, [r0, #57]	; 0x39
 8004282:	b30b      	cbz	r3, 80042c8 <HAL_UART_Init+0x50>
  huart->gState = HAL_UART_STATE_BUSY;
 8004284:	2324      	movs	r3, #36	; 0x24
 8004286:	f884 3039 	strb.w	r3, [r4, #57]	; 0x39
  __HAL_UART_DISABLE(huart);
 800428a:	6822      	ldr	r2, [r4, #0]
 800428c:	68d3      	ldr	r3, [r2, #12]
 800428e:	f423 5300 	bic.w	r3, r3, #8192	; 0x2000
 8004292:	60d3      	str	r3, [r2, #12]
  UART_SetConfig(huart);
 8004294:	4620      	mov	r0, r4
 8004296:	f7ff fe1b 	bl	8003ed0 <UART_SetConfig>
  CLEAR_BIT(huart->Instance->CR2, (USART_CR2_LINEN | USART_CR2_CLKEN));
 800429a:	6822      	ldr	r2, [r4, #0]
 800429c:	6913      	ldr	r3, [r2, #16]
 800429e:	f423 4390 	bic.w	r3, r3, #18432	; 0x4800
 80042a2:	6113      	str	r3, [r2, #16]
  CLEAR_BIT(huart->Instance->CR3, (USART_CR3_SCEN | USART_CR3_HDSEL | USART_CR3_IREN));
 80042a4:	6822      	ldr	r2, [r4, #0]
 80042a6:	6953      	ldr	r3, [r2, #20]
 80042a8:	f023 032a 	bic.w	r3, r3, #42	; 0x2a
 80042ac:	6153      	str	r3, [r2, #20]
  __HAL_UART_ENABLE(huart);
 80042ae:	6822      	ldr	r2, [r4, #0]
 80042b0:	68d3      	ldr	r3, [r2, #12]
 80042b2:	f443 5300 	orr.w	r3, r3, #8192	; 0x2000
 80042b6:	60d3      	str	r3, [r2, #12]
  huart->ErrorCode = HAL_UART_ERROR_NONE;
 80042b8:	2000      	movs	r0, #0
 80042ba:	63e0      	str	r0, [r4, #60]	; 0x3c
  huart->gState= HAL_UART_STATE_READY;
 80042bc:	2320      	movs	r3, #32
 80042be:	f884 3039 	strb.w	r3, [r4, #57]	; 0x39
  huart->RxState= HAL_UART_STATE_READY;
 80042c2:	f884 303a 	strb.w	r3, [r4, #58]	; 0x3a
  return HAL_OK;
 80042c6:	bd10      	pop	{r4, pc}
    huart->Lock = HAL_UNLOCKED;
 80042c8:	f880 3038 	strb.w	r3, [r0, #56]	; 0x38
    HAL_UART_MspInit(huart);
 80042cc:	f000 fd5c 	bl	8004d88 <HAL_UART_MspInit>
 80042d0:	e7d8      	b.n	8004284 <HAL_UART_Init+0xc>
    return HAL_ERROR;
 80042d2:	2001      	movs	r0, #1
 80042d4:	4770      	bx	lr

080042d6 <HAL_UART_Transmit>:
{
 80042d6:	e92d 41f0 	stmdb	sp!, {r4, r5, r6, r7, r8, lr}
 80042da:	b082      	sub	sp, #8
 80042dc:	461e      	mov	r6, r3
  if(huart->gState == HAL_UART_STATE_READY) 
 80042de:	f890 3039 	ldrb.w	r3, [r0, #57]	; 0x39
 80042e2:	b2db      	uxtb	r3, r3
 80042e4:	2b20      	cmp	r3, #32
 80042e6:	d004      	beq.n	80042f2 <HAL_UART_Transmit+0x1c>
    return HAL_BUSY;
 80042e8:	2302      	movs	r3, #2
}
 80042ea:	4618      	mov	r0, r3
 80042ec:	b002      	add	sp, #8
 80042ee:	e8bd 81f0 	ldmia.w	sp!, {r4, r5, r6, r7, r8, pc}
 80042f2:	4604      	mov	r4, r0
 80042f4:	460d      	mov	r5, r1
 80042f6:	4690      	mov	r8, r2
    if((pData == NULL ) || (Size == 0)) 
 80042f8:	2900      	cmp	r1, #0
 80042fa:	d055      	beq.n	80043a8 <HAL_UART_Transmit+0xd2>
 80042fc:	2a00      	cmp	r2, #0
 80042fe:	d055      	beq.n	80043ac <HAL_UART_Transmit+0xd6>
    __HAL_LOCK(huart);
 8004300:	f890 3038 	ldrb.w	r3, [r0, #56]	; 0x38
 8004304:	2b01      	cmp	r3, #1
 8004306:	d101      	bne.n	800430c <HAL_UART_Transmit+0x36>
 8004308:	2302      	movs	r3, #2
 800430a:	e7ee      	b.n	80042ea <HAL_UART_Transmit+0x14>
 800430c:	2301      	movs	r3, #1
 800430e:	f880 3038 	strb.w	r3, [r0, #56]	; 0x38
    huart->ErrorCode = HAL_UART_ERROR_NONE;
 8004312:	2300      	movs	r3, #0
 8004314:	63c3      	str	r3, [r0, #60]	; 0x3c
    huart->gState = HAL_UART_STATE_BUSY_TX;
 8004316:	2321      	movs	r3, #33	; 0x21
 8004318:	f880 3039 	strb.w	r3, [r0, #57]	; 0x39
    tickstart = HAL_GetTick();
 800431c:	f7fc fe34 	bl	8000f88 <HAL_GetTick>
 8004320:	4607      	mov	r7, r0
    huart->TxXferSize = Size;
 8004322:	f8a4 8024 	strh.w	r8, [r4, #36]	; 0x24
    huart->TxXferCount = Size;
 8004326:	f8a4 8026 	strh.w	r8, [r4, #38]	; 0x26
    while(huart->TxXferCount > 0U)
 800432a:	e010      	b.n	800434e <HAL_UART_Transmit+0x78>
        if(UART_WaitOnFlagUntilTimeout(huart, UART_FLAG_TXE, RESET, tickstart, Timeout) != HAL_OK)
 800432c:	9600      	str	r6, [sp, #0]
 800432e:	463b      	mov	r3, r7
 8004330:	2200      	movs	r2, #0
 8004332:	2180      	movs	r1, #128	; 0x80
 8004334:	4620      	mov	r0, r4
 8004336:	f7ff ff6d 	bl	8004214 <UART_WaitOnFlagUntilTimeout>
 800433a:	2800      	cmp	r0, #0
 800433c:	d138      	bne.n	80043b0 <HAL_UART_Transmit+0xda>
        huart->Instance->DR = (*tmp & (uint16_t)0x01FF);
 800433e:	6822      	ldr	r2, [r4, #0]
 8004340:	882b      	ldrh	r3, [r5, #0]
 8004342:	f3c3 0308 	ubfx	r3, r3, #0, #9
 8004346:	6053      	str	r3, [r2, #4]
        if(huart->Init.Parity == UART_PARITY_NONE)
 8004348:	6923      	ldr	r3, [r4, #16]
 800434a:	b9cb      	cbnz	r3, 8004380 <HAL_UART_Transmit+0xaa>
          pData +=2U;
 800434c:	3502      	adds	r5, #2
    while(huart->TxXferCount > 0U)
 800434e:	8ce3      	ldrh	r3, [r4, #38]	; 0x26
 8004350:	b29b      	uxth	r3, r3
 8004352:	b1bb      	cbz	r3, 8004384 <HAL_UART_Transmit+0xae>
      huart->TxXferCount--;
 8004354:	8ce3      	ldrh	r3, [r4, #38]	; 0x26
 8004356:	b29b      	uxth	r3, r3
 8004358:	3b01      	subs	r3, #1
 800435a:	b29b      	uxth	r3, r3
 800435c:	84e3      	strh	r3, [r4, #38]	; 0x26
      if(huart->Init.WordLength == UART_WORDLENGTH_9B)
 800435e:	68a3      	ldr	r3, [r4, #8]
 8004360:	f5b3 5f80 	cmp.w	r3, #4096	; 0x1000
 8004364:	d0e2      	beq.n	800432c <HAL_UART_Transmit+0x56>
        if(UART_WaitOnFlagUntilTimeout(huart, UART_FLAG_TXE, RESET, tickstart, Timeout) != HAL_OK)
 8004366:	9600      	str	r6, [sp, #0]
 8004368:	463b      	mov	r3, r7
 800436a:	2200      	movs	r2, #0
 800436c:	2180      	movs	r1, #128	; 0x80
 800436e:	4620      	mov	r0, r4
 8004370:	f7ff ff50 	bl	8004214 <UART_WaitOnFlagUntilTimeout>
 8004374:	b9f0      	cbnz	r0, 80043b4 <HAL_UART_Transmit+0xde>
        huart->Instance->DR = (*pData++ & (uint8_t)0xFF);
 8004376:	6823      	ldr	r3, [r4, #0]
 8004378:	782a      	ldrb	r2, [r5, #0]
 800437a:	605a      	str	r2, [r3, #4]
 800437c:	3501      	adds	r5, #1
 800437e:	e7e6      	b.n	800434e <HAL_UART_Transmit+0x78>
          pData +=1U;
 8004380:	3501      	adds	r5, #1
 8004382:	e7e4      	b.n	800434e <HAL_UART_Transmit+0x78>
    if(UART_WaitOnFlagUntilTimeout(huart, UART_FLAG_TC, RESET, tickstart, Timeout) != HAL_OK)
 8004384:	9600      	str	r6, [sp, #0]
 8004386:	463b      	mov	r3, r7
 8004388:	2200      	movs	r2, #0
 800438a:	2140      	movs	r1, #64	; 0x40
 800438c:	4620      	mov	r0, r4
 800438e:	f7ff ff41 	bl	8004214 <UART_WaitOnFlagUntilTimeout>
 8004392:	4603      	mov	r3, r0
 8004394:	b108      	cbz	r0, 800439a <HAL_UART_Transmit+0xc4>
      return HAL_TIMEOUT;
 8004396:	2303      	movs	r3, #3
 8004398:	e7a7      	b.n	80042ea <HAL_UART_Transmit+0x14>
      huart->gState = HAL_UART_STATE_READY;
 800439a:	2220      	movs	r2, #32
 800439c:	f884 2039 	strb.w	r2, [r4, #57]	; 0x39
    __HAL_UNLOCK(huart);
 80043a0:	2200      	movs	r2, #0
 80043a2:	f884 2038 	strb.w	r2, [r4, #56]	; 0x38
    return HAL_OK;
 80043a6:	e7a0      	b.n	80042ea <HAL_UART_Transmit+0x14>
      return  HAL_ERROR;
 80043a8:	2301      	movs	r3, #1
 80043aa:	e79e      	b.n	80042ea <HAL_UART_Transmit+0x14>
 80043ac:	2301      	movs	r3, #1
 80043ae:	e79c      	b.n	80042ea <HAL_UART_Transmit+0x14>
          return HAL_TIMEOUT;
 80043b0:	2303      	movs	r3, #3
 80043b2:	e79a      	b.n	80042ea <HAL_UART_Transmit+0x14>
          return HAL_TIMEOUT;
 80043b4:	2303      	movs	r3, #3
 80043b6:	e798      	b.n	80042ea <HAL_UART_Transmit+0x14>

080043b8 <prj_main>:
#include "Prj_Main.h"
#include "THL_Library_Basic.h"
#include "ICM20689_I2C_Tester.h"
#include "THL_SpiTester.h"
void prj_main(void) {
 80043b8:	b508      	push	{r3, lr}
	testSpi();
 80043ba:	f000 fe8b 	bl	80050d4 <testSpi>
 80043be:	bd08      	pop	{r3, pc}

080043c0 <MX_GPIO_Init>:
  * @brief GPIO Initialization Function
  * @param None
  * @retval None
  */
static void MX_GPIO_Init(void)
{
 80043c0:	b5f0      	push	{r4, r5, r6, r7, lr}
 80043c2:	b08b      	sub	sp, #44	; 0x2c
  GPIO_InitTypeDef GPIO_InitStruct = {0};
 80043c4:	2400      	movs	r4, #0
 80043c6:	9405      	str	r4, [sp, #20]
 80043c8:	9406      	str	r4, [sp, #24]
 80043ca:	9407      	str	r4, [sp, #28]
 80043cc:	9408      	str	r4, [sp, #32]
 80043ce:	9409      	str	r4, [sp, #36]	; 0x24

  /* GPIO Ports Clock Enable */
  __HAL_RCC_GPIOC_CLK_ENABLE();
 80043d0:	9401      	str	r4, [sp, #4]
 80043d2:	4b2a      	ldr	r3, [pc, #168]	; (800447c <MX_GPIO_Init+0xbc>)
 80043d4:	6b1a      	ldr	r2, [r3, #48]	; 0x30
 80043d6:	f042 0204 	orr.w	r2, r2, #4
 80043da:	631a      	str	r2, [r3, #48]	; 0x30
 80043dc:	6b1a      	ldr	r2, [r3, #48]	; 0x30
 80043de:	f002 0204 	and.w	r2, r2, #4
 80043e2:	9201      	str	r2, [sp, #4]
 80043e4:	9a01      	ldr	r2, [sp, #4]
  __HAL_RCC_GPIOH_CLK_ENABLE();
 80043e6:	9402      	str	r4, [sp, #8]
 80043e8:	6b1a      	ldr	r2, [r3, #48]	; 0x30
 80043ea:	f042 0280 	orr.w	r2, r2, #128	; 0x80
 80043ee:	631a      	str	r2, [r3, #48]	; 0x30
 80043f0:	6b1a      	ldr	r2, [r3, #48]	; 0x30
 80043f2:	f002 0280 	and.w	r2, r2, #128	; 0x80
 80043f6:	9202      	str	r2, [sp, #8]
 80043f8:	9a02      	ldr	r2, [sp, #8]
  __HAL_RCC_GPIOA_CLK_ENABLE();
 80043fa:	9403      	str	r4, [sp, #12]
 80043fc:	6b1a      	ldr	r2, [r3, #48]	; 0x30
 80043fe:	f042 0201 	orr.w	r2, r2, #1
 8004402:	631a      	str	r2, [r3, #48]	; 0x30
 8004404:	6b1a      	ldr	r2, [r3, #48]	; 0x30
 8004406:	f002 0201 	and.w	r2, r2, #1
 800440a:	9203      	str	r2, [sp, #12]
 800440c:	9a03      	ldr	r2, [sp, #12]
  __HAL_RCC_GPIOB_CLK_ENABLE();
 800440e:	9404      	str	r4, [sp, #16]
 8004410:	6b1a      	ldr	r2, [r3, #48]	; 0x30
 8004412:	f042 0202 	orr.w	r2, r2, #2
 8004416:	631a      	str	r2, [r3, #48]	; 0x30
 8004418:	6b1b      	ldr	r3, [r3, #48]	; 0x30
 800441a:	f003 0302 	and.w	r3, r3, #2
 800441e:	9304      	str	r3, [sp, #16]
 8004420:	9b04      	ldr	r3, [sp, #16]

  /*Configure GPIO pin Output Level */
  HAL_GPIO_WritePin(LD2_GPIO_Port, LD2_Pin, GPIO_PIN_RESET);
 8004422:	4f17      	ldr	r7, [pc, #92]	; (8004480 <MX_GPIO_Init+0xc0>)
 8004424:	4622      	mov	r2, r4
 8004426:	2120      	movs	r1, #32
 8004428:	4638      	mov	r0, r7
 800442a:	f7fd faae 	bl	800198a <HAL_GPIO_WritePin>

  /*Configure GPIO pin Output Level */
  HAL_GPIO_WritePin(GPIOB, SPI2_SoftCS_Pin|GPIO_PIN_6|GPIO_PIN_7, GPIO_PIN_RESET);
 800442e:	4d15      	ldr	r5, [pc, #84]	; (8004484 <MX_GPIO_Init+0xc4>)
 8004430:	4622      	mov	r2, r4
 8004432:	f44f 5186 	mov.w	r1, #4288	; 0x10c0
 8004436:	4628      	mov	r0, r5
 8004438:	f7fd faa7 	bl	800198a <HAL_GPIO_WritePin>

  /*Configure GPIO pin : B1_Pin */
  GPIO_InitStruct.Pin = B1_Pin;
 800443c:	f44f 5300 	mov.w	r3, #8192	; 0x2000
 8004440:	9305      	str	r3, [sp, #20]
  GPIO_InitStruct.Mode = GPIO_MODE_IT_FALLING;
 8004442:	4b11      	ldr	r3, [pc, #68]	; (8004488 <MX_GPIO_Init+0xc8>)
 8004444:	9306      	str	r3, [sp, #24]
  GPIO_InitStruct.Pull = GPIO_NOPULL;
 8004446:	9407      	str	r4, [sp, #28]
  HAL_GPIO_Init(B1_GPIO_Port, &GPIO_InitStruct);
 8004448:	a905      	add	r1, sp, #20
 800444a:	4810      	ldr	r0, [pc, #64]	; (800448c <MX_GPIO_Init+0xcc>)
 800444c:	f7fd f9b4 	bl	80017b8 <HAL_GPIO_Init>

  /*Configure GPIO pin : LD2_Pin */
  GPIO_InitStruct.Pin = LD2_Pin;
 8004450:	2320      	movs	r3, #32
 8004452:	9305      	str	r3, [sp, #20]
  GPIO_InitStruct.Mode = GPIO_MODE_OUTPUT_PP;
 8004454:	2601      	movs	r6, #1
 8004456:	9606      	str	r6, [sp, #24]
  GPIO_InitStruct.Pull = GPIO_NOPULL;
 8004458:	9407      	str	r4, [sp, #28]
  GPIO_InitStruct.Speed = GPIO_SPEED_FREQ_LOW;
 800445a:	9408      	str	r4, [sp, #32]
  HAL_GPIO_Init(LD2_GPIO_Port, &GPIO_InitStruct);
 800445c:	a905      	add	r1, sp, #20
 800445e:	4638      	mov	r0, r7
 8004460:	f7fd f9aa 	bl	80017b8 <HAL_GPIO_Init>

  /*Configure GPIO pins : SPI2_SoftCS_Pin PB6 PB7 */
  GPIO_InitStruct.Pin = SPI2_SoftCS_Pin|GPIO_PIN_6|GPIO_PIN_7;
 8004464:	f44f 5386 	mov.w	r3, #4288	; 0x10c0
 8004468:	9305      	str	r3, [sp, #20]
  GPIO_InitStruct.Mode = GPIO_MODE_OUTPUT_PP;
 800446a:	9606      	str	r6, [sp, #24]
  GPIO_InitStruct.Pull = GPIO_NOPULL;
 800446c:	9407      	str	r4, [sp, #28]
  GPIO_InitStruct.Speed = GPIO_SPEED_FREQ_LOW;
 800446e:	9408      	str	r4, [sp, #32]
  HAL_GPIO_Init(GPIOB, &GPIO_InitStruct);
 8004470:	a905      	add	r1, sp, #20
 8004472:	4628      	mov	r0, r5
 8004474:	f7fd f9a0 	bl	80017b8 <HAL_GPIO_Init>

}
 8004478:	b00b      	add	sp, #44	; 0x2c
 800447a:	bdf0      	pop	{r4, r5, r6, r7, pc}
 800447c:	40023800 	.word	0x40023800
 8004480:	40020000 	.word	0x40020000
 8004484:	40020400 	.word	0x40020400
 8004488:	10210000 	.word	0x10210000
 800448c:	40020800 	.word	0x40020800

08004490 <MX_DMA_Init>:
{
 8004490:	b510      	push	{r4, lr}
 8004492:	b082      	sub	sp, #8
  __HAL_RCC_DMA1_CLK_ENABLE();
 8004494:	2400      	movs	r4, #0
 8004496:	9400      	str	r4, [sp, #0]
 8004498:	4b1e      	ldr	r3, [pc, #120]	; (8004514 <MX_DMA_Init+0x84>)
 800449a:	6b1a      	ldr	r2, [r3, #48]	; 0x30
 800449c:	f442 1200 	orr.w	r2, r2, #2097152	; 0x200000
 80044a0:	631a      	str	r2, [r3, #48]	; 0x30
 80044a2:	6b1a      	ldr	r2, [r3, #48]	; 0x30
 80044a4:	f402 1200 	and.w	r2, r2, #2097152	; 0x200000
 80044a8:	9200      	str	r2, [sp, #0]
 80044aa:	9a00      	ldr	r2, [sp, #0]
  __HAL_RCC_DMA2_CLK_ENABLE();
 80044ac:	9401      	str	r4, [sp, #4]
 80044ae:	6b1a      	ldr	r2, [r3, #48]	; 0x30
 80044b0:	f442 0280 	orr.w	r2, r2, #4194304	; 0x400000
 80044b4:	631a      	str	r2, [r3, #48]	; 0x30
 80044b6:	6b1b      	ldr	r3, [r3, #48]	; 0x30
 80044b8:	f403 0380 	and.w	r3, r3, #4194304	; 0x400000
 80044bc:	9301      	str	r3, [sp, #4]
 80044be:	9b01      	ldr	r3, [sp, #4]
  HAL_NVIC_SetPriority(DMA1_Stream0_IRQn, 0, 0);
 80044c0:	4622      	mov	r2, r4
 80044c2:	4621      	mov	r1, r4
 80044c4:	200b      	movs	r0, #11
 80044c6:	f7fc ff03 	bl	80012d0 <HAL_NVIC_SetPriority>
  HAL_NVIC_EnableIRQ(DMA1_Stream0_IRQn);
 80044ca:	200b      	movs	r0, #11
 80044cc:	f7fc ff32 	bl	8001334 <HAL_NVIC_EnableIRQ>
  HAL_NVIC_SetPriority(DMA1_Stream3_IRQn, 0, 0);
 80044d0:	4622      	mov	r2, r4
 80044d2:	4621      	mov	r1, r4
 80044d4:	200e      	movs	r0, #14
 80044d6:	f7fc fefb 	bl	80012d0 <HAL_NVIC_SetPriority>
  HAL_NVIC_EnableIRQ(DMA1_Stream3_IRQn);
 80044da:	200e      	movs	r0, #14
 80044dc:	f7fc ff2a 	bl	8001334 <HAL_NVIC_EnableIRQ>
  HAL_NVIC_SetPriority(DMA1_Stream4_IRQn, 0, 0);
 80044e0:	4622      	mov	r2, r4
 80044e2:	4621      	mov	r1, r4
 80044e4:	200f      	movs	r0, #15
 80044e6:	f7fc fef3 	bl	80012d0 <HAL_NVIC_SetPriority>
  HAL_NVIC_EnableIRQ(DMA1_Stream4_IRQn);
 80044ea:	200f      	movs	r0, #15
 80044ec:	f7fc ff22 	bl	8001334 <HAL_NVIC_EnableIRQ>
  HAL_NVIC_SetPriority(DMA1_Stream7_IRQn, 0, 0);
 80044f0:	4622      	mov	r2, r4
 80044f2:	4621      	mov	r1, r4
 80044f4:	202f      	movs	r0, #47	; 0x2f
 80044f6:	f7fc feeb 	bl	80012d0 <HAL_NVIC_SetPriority>
  HAL_NVIC_EnableIRQ(DMA1_Stream7_IRQn);
 80044fa:	202f      	movs	r0, #47	; 0x2f
 80044fc:	f7fc ff1a 	bl	8001334 <HAL_NVIC_EnableIRQ>
  HAL_NVIC_SetPriority(DMA2_Stream0_IRQn, 0, 0);
 8004500:	4622      	mov	r2, r4
 8004502:	4621      	mov	r1, r4
 8004504:	2038      	movs	r0, #56	; 0x38
 8004506:	f7fc fee3 	bl	80012d0 <HAL_NVIC_SetPriority>
  HAL_NVIC_EnableIRQ(DMA2_Stream0_IRQn);
 800450a:	2038      	movs	r0, #56	; 0x38
 800450c:	f7fc ff12 	bl	8001334 <HAL_NVIC_EnableIRQ>
}
 8004510:	b002      	add	sp, #8
 8004512:	bd10      	pop	{r4, pc}
 8004514:	40023800 	.word	0x40023800

08004518 <MX_USART2_UART_Init>:
{
 8004518:	b508      	push	{r3, lr}
  huart2.Instance = USART2;
 800451a:	4808      	ldr	r0, [pc, #32]	; (800453c <MX_USART2_UART_Init+0x24>)
 800451c:	4b08      	ldr	r3, [pc, #32]	; (8004540 <MX_USART2_UART_Init+0x28>)
 800451e:	6003      	str	r3, [r0, #0]
  huart2.Init.BaudRate = 115200;
 8004520:	f44f 33e1 	mov.w	r3, #115200	; 0x1c200
 8004524:	6043      	str	r3, [r0, #4]
  huart2.Init.WordLength = UART_WORDLENGTH_8B;
 8004526:	2300      	movs	r3, #0
 8004528:	6083      	str	r3, [r0, #8]
  huart2.Init.StopBits = UART_STOPBITS_1;
 800452a:	60c3      	str	r3, [r0, #12]
  huart2.Init.Parity = UART_PARITY_NONE;
 800452c:	6103      	str	r3, [r0, #16]
  huart2.Init.Mode = UART_MODE_TX_RX;
 800452e:	220c      	movs	r2, #12
 8004530:	6142      	str	r2, [r0, #20]
  huart2.Init.HwFlowCtl = UART_HWCONTROL_NONE;
 8004532:	6183      	str	r3, [r0, #24]
  huart2.Init.OverSampling = UART_OVERSAMPLING_16;
 8004534:	61c3      	str	r3, [r0, #28]
  if (HAL_UART_Init(&huart2) != HAL_OK)
 8004536:	f7ff fe9f 	bl	8004278 <HAL_UART_Init>
 800453a:	bd08      	pop	{r3, pc}
 800453c:	20000a1c 	.word	0x20000a1c
 8004540:	40004400 	.word	0x40004400

08004544 <MX_TIM1_Init>:
{
 8004544:	b530      	push	{r4, r5, lr}
 8004546:	b095      	sub	sp, #84	; 0x54
  TIM_MasterConfigTypeDef sMasterConfig = {0};
 8004548:	2400      	movs	r4, #0
 800454a:	9412      	str	r4, [sp, #72]	; 0x48
 800454c:	9413      	str	r4, [sp, #76]	; 0x4c
  TIM_OC_InitTypeDef sConfigOC = {0};
 800454e:	940b      	str	r4, [sp, #44]	; 0x2c
 8004550:	940c      	str	r4, [sp, #48]	; 0x30
 8004552:	940d      	str	r4, [sp, #52]	; 0x34
 8004554:	940e      	str	r4, [sp, #56]	; 0x38
 8004556:	940f      	str	r4, [sp, #60]	; 0x3c
 8004558:	9410      	str	r4, [sp, #64]	; 0x40
 800455a:	9411      	str	r4, [sp, #68]	; 0x44
  TIM_IC_InitTypeDef sConfigIC = {0};
 800455c:	9407      	str	r4, [sp, #28]
 800455e:	9408      	str	r4, [sp, #32]
 8004560:	9409      	str	r4, [sp, #36]	; 0x24
 8004562:	940a      	str	r4, [sp, #40]	; 0x28
  TIM_BreakDeadTimeConfigTypeDef sBreakDeadTimeConfig = {0};
 8004564:	9400      	str	r4, [sp, #0]
 8004566:	9401      	str	r4, [sp, #4]
 8004568:	9402      	str	r4, [sp, #8]
 800456a:	9403      	str	r4, [sp, #12]
 800456c:	9404      	str	r4, [sp, #16]
 800456e:	9405      	str	r4, [sp, #20]
 8004570:	9406      	str	r4, [sp, #24]
  htim1.Instance = TIM1;
 8004572:	4d23      	ldr	r5, [pc, #140]	; (8004600 <MX_TIM1_Init+0xbc>)
 8004574:	4b23      	ldr	r3, [pc, #140]	; (8004604 <MX_TIM1_Init+0xc0>)
 8004576:	602b      	str	r3, [r5, #0]
  htim1.Init.Prescaler = 0;
 8004578:	606c      	str	r4, [r5, #4]
  htim1.Init.CounterMode = TIM_COUNTERMODE_UP;
 800457a:	60ac      	str	r4, [r5, #8]
  htim1.Init.Period = 0;
 800457c:	60ec      	str	r4, [r5, #12]
  htim1.Init.ClockDivision = TIM_CLOCKDIVISION_DIV1;
 800457e:	612c      	str	r4, [r5, #16]
  htim1.Init.RepetitionCounter = 0;
 8004580:	616c      	str	r4, [r5, #20]
  if (HAL_TIM_PWM_Init(&htim1) != HAL_OK)
 8004582:	4628      	mov	r0, r5
 8004584:	f7ff fa7a 	bl	8003a7c <HAL_TIM_PWM_Init>
  if (HAL_TIM_IC_Init(&htim1) != HAL_OK)
 8004588:	4628      	mov	r0, r5
 800458a:	f7ff fa90 	bl	8003aae <HAL_TIM_IC_Init>
  sMasterConfig.MasterOutputTrigger = TIM_TRGO_RESET;
 800458e:	9412      	str	r4, [sp, #72]	; 0x48
  sMasterConfig.MasterSlaveMode = TIM_MASTERSLAVEMODE_DISABLE;
 8004590:	9413      	str	r4, [sp, #76]	; 0x4c
  if (HAL_TIMEx_MasterConfigSynchronization(&htim1, &sMasterConfig) != HAL_OK)
 8004592:	a912      	add	r1, sp, #72	; 0x48
 8004594:	4628      	mov	r0, r5
 8004596:	f7ff fc45 	bl	8003e24 <HAL_TIMEx_MasterConfigSynchronization>
  sConfigOC.OCMode = TIM_OCMODE_PWM1;
 800459a:	2360      	movs	r3, #96	; 0x60
 800459c:	930b      	str	r3, [sp, #44]	; 0x2c
  sConfigOC.Pulse = 0;
 800459e:	940c      	str	r4, [sp, #48]	; 0x30
  sConfigOC.OCPolarity = TIM_OCPOLARITY_HIGH;
 80045a0:	940d      	str	r4, [sp, #52]	; 0x34
  sConfigOC.OCNPolarity = TIM_OCNPOLARITY_HIGH;
 80045a2:	940e      	str	r4, [sp, #56]	; 0x38
  sConfigOC.OCFastMode = TIM_OCFAST_DISABLE;
 80045a4:	940f      	str	r4, [sp, #60]	; 0x3c
  sConfigOC.OCIdleState = TIM_OCIDLESTATE_RESET;
 80045a6:	9410      	str	r4, [sp, #64]	; 0x40
  sConfigOC.OCNIdleState = TIM_OCNIDLESTATE_RESET;
 80045a8:	9411      	str	r4, [sp, #68]	; 0x44
  if (HAL_TIM_PWM_ConfigChannel(&htim1, &sConfigOC, TIM_CHANNEL_1) != HAL_OK)
 80045aa:	4622      	mov	r2, r4
 80045ac:	a90b      	add	r1, sp, #44	; 0x2c
 80045ae:	4628      	mov	r0, r5
 80045b0:	f7ff fbca 	bl	8003d48 <HAL_TIM_PWM_ConfigChannel>
  if (HAL_TIM_PWM_ConfigChannel(&htim1, &sConfigOC, TIM_CHANNEL_2) != HAL_OK)
 80045b4:	2204      	movs	r2, #4
 80045b6:	a90b      	add	r1, sp, #44	; 0x2c
 80045b8:	4628      	mov	r0, r5
 80045ba:	f7ff fbc5 	bl	8003d48 <HAL_TIM_PWM_ConfigChannel>
  sConfigIC.ICPolarity = TIM_INPUTCHANNELPOLARITY_RISING;
 80045be:	9407      	str	r4, [sp, #28]
  sConfigIC.ICSelection = TIM_ICSELECTION_DIRECTTI;
 80045c0:	2301      	movs	r3, #1
 80045c2:	9308      	str	r3, [sp, #32]
  sConfigIC.ICPrescaler = TIM_ICPSC_DIV1;
 80045c4:	9409      	str	r4, [sp, #36]	; 0x24
  sConfigIC.ICFilter = 0;
 80045c6:	940a      	str	r4, [sp, #40]	; 0x28
  if (HAL_TIM_IC_ConfigChannel(&htim1, &sConfigIC, TIM_CHANNEL_3) != HAL_OK)
 80045c8:	2208      	movs	r2, #8
 80045ca:	a907      	add	r1, sp, #28
 80045cc:	4628      	mov	r0, r5
 80045ce:	f7ff fb23 	bl	8003c18 <HAL_TIM_IC_ConfigChannel>
  if (HAL_TIM_IC_ConfigChannel(&htim1, &sConfigIC, TIM_CHANNEL_4) != HAL_OK)
 80045d2:	220c      	movs	r2, #12
 80045d4:	a907      	add	r1, sp, #28
 80045d6:	4628      	mov	r0, r5
 80045d8:	f7ff fb1e 	bl	8003c18 <HAL_TIM_IC_ConfigChannel>
  sBreakDeadTimeConfig.OffStateRunMode = TIM_OSSR_DISABLE;
 80045dc:	9400      	str	r4, [sp, #0]
  sBreakDeadTimeConfig.OffStateIDLEMode = TIM_OSSI_DISABLE;
 80045de:	9401      	str	r4, [sp, #4]
  sBreakDeadTimeConfig.LockLevel = TIM_LOCKLEVEL_OFF;
 80045e0:	9402      	str	r4, [sp, #8]
  sBreakDeadTimeConfig.DeadTime = 0;
 80045e2:	9403      	str	r4, [sp, #12]
  sBreakDeadTimeConfig.BreakState = TIM_BREAK_DISABLE;
 80045e4:	9404      	str	r4, [sp, #16]
  sBreakDeadTimeConfig.BreakPolarity = TIM_BREAKPOLARITY_HIGH;
 80045e6:	f44f 5300 	mov.w	r3, #8192	; 0x2000
 80045ea:	9305      	str	r3, [sp, #20]
  sBreakDeadTimeConfig.AutomaticOutput = TIM_AUTOMATICOUTPUT_DISABLE;
 80045ec:	9406      	str	r4, [sp, #24]
  if (HAL_TIMEx_ConfigBreakDeadTime(&htim1, &sBreakDeadTimeConfig) != HAL_OK)
 80045ee:	4669      	mov	r1, sp
 80045f0:	4628      	mov	r0, r5
 80045f2:	f7ff fc40 	bl	8003e76 <HAL_TIMEx_ConfigBreakDeadTime>
  HAL_TIM_MspPostInit(&htim1);
 80045f6:	4628      	mov	r0, r5
 80045f8:	f000 fb98 	bl	8004d2c <HAL_TIM_MspPostInit>
}
 80045fc:	b015      	add	sp, #84	; 0x54
 80045fe:	bd30      	pop	{r4, r5, pc}
 8004600:	20000980 	.word	0x20000980
 8004604:	40010000 	.word	0x40010000

08004608 <MX_TIM5_Init>:
{
 8004608:	b530      	push	{r4, r5, lr}
 800460a:	b08d      	sub	sp, #52	; 0x34
  TIM_Encoder_InitTypeDef sConfig = {0};
 800460c:	2224      	movs	r2, #36	; 0x24
 800460e:	2100      	movs	r1, #0
 8004610:	a803      	add	r0, sp, #12
 8004612:	f000 ffb8 	bl	8005586 <memset>
  TIM_MasterConfigTypeDef sMasterConfig = {0};
 8004616:	2400      	movs	r4, #0
 8004618:	9401      	str	r4, [sp, #4]
 800461a:	9402      	str	r4, [sp, #8]
  htim5.Instance = TIM5;
 800461c:	4d0b      	ldr	r5, [pc, #44]	; (800464c <MX_TIM5_Init+0x44>)
 800461e:	4b0c      	ldr	r3, [pc, #48]	; (8004650 <MX_TIM5_Init+0x48>)
 8004620:	602b      	str	r3, [r5, #0]
  htim5.Init.Prescaler = 0;
 8004622:	606c      	str	r4, [r5, #4]
  htim5.Init.CounterMode = TIM_COUNTERMODE_UP;
 8004624:	60ac      	str	r4, [r5, #8]
  htim5.Init.Period = 0;
 8004626:	60ec      	str	r4, [r5, #12]
  htim5.Init.ClockDivision = TIM_CLOCKDIVISION_DIV1;
 8004628:	612c      	str	r4, [r5, #16]
  sConfig.EncoderMode = TIM_ENCODERMODE_TI1;
 800462a:	2301      	movs	r3, #1
 800462c:	9303      	str	r3, [sp, #12]
  sConfig.IC1Selection = TIM_ICSELECTION_DIRECTTI;
 800462e:	9305      	str	r3, [sp, #20]
  sConfig.IC2Selection = TIM_ICSELECTION_DIRECTTI;
 8004630:	9309      	str	r3, [sp, #36]	; 0x24
  if (HAL_TIM_Encoder_Init(&htim5, &sConfig) != HAL_OK)
 8004632:	a903      	add	r1, sp, #12
 8004634:	4628      	mov	r0, r5
 8004636:	f7ff fa53 	bl	8003ae0 <HAL_TIM_Encoder_Init>
  sMasterConfig.MasterOutputTrigger = TIM_TRGO_RESET;
 800463a:	9401      	str	r4, [sp, #4]
  sMasterConfig.MasterSlaveMode = TIM_MASTERSLAVEMODE_DISABLE;
 800463c:	9402      	str	r4, [sp, #8]
  if (HAL_TIMEx_MasterConfigSynchronization(&htim5, &sMasterConfig) != HAL_OK)
 800463e:	a901      	add	r1, sp, #4
 8004640:	4628      	mov	r0, r5
 8004642:	f7ff fbef 	bl	8003e24 <HAL_TIMEx_MasterConfigSynchronization>
}
 8004646:	b00d      	add	sp, #52	; 0x34
 8004648:	bd30      	pop	{r4, r5, pc}
 800464a:	bf00      	nop
 800464c:	2000089c 	.word	0x2000089c
 8004650:	40000c00 	.word	0x40000c00

08004654 <MX_I2C1_Init>:
{
 8004654:	b508      	push	{r3, lr}
  hi2c1.Instance = I2C1;
 8004656:	4809      	ldr	r0, [pc, #36]	; (800467c <MX_I2C1_Init+0x28>)
 8004658:	4b09      	ldr	r3, [pc, #36]	; (8004680 <MX_I2C1_Init+0x2c>)
 800465a:	6003      	str	r3, [r0, #0]
  hi2c1.Init.ClockSpeed = 100000;
 800465c:	4b09      	ldr	r3, [pc, #36]	; (8004684 <MX_I2C1_Init+0x30>)
 800465e:	6043      	str	r3, [r0, #4]
  hi2c1.Init.DutyCycle = I2C_DUTYCYCLE_2;
 8004660:	2300      	movs	r3, #0
 8004662:	6083      	str	r3, [r0, #8]
  hi2c1.Init.OwnAddress1 = 12;
 8004664:	220c      	movs	r2, #12
 8004666:	60c2      	str	r2, [r0, #12]
  hi2c1.Init.AddressingMode = I2C_ADDRESSINGMODE_7BIT;
 8004668:	f44f 4280 	mov.w	r2, #16384	; 0x4000
 800466c:	6102      	str	r2, [r0, #16]
  hi2c1.Init.DualAddressMode = I2C_DUALADDRESS_DISABLE;
 800466e:	6143      	str	r3, [r0, #20]
  hi2c1.Init.OwnAddress2 = 0;
 8004670:	6183      	str	r3, [r0, #24]
  hi2c1.Init.GeneralCallMode = I2C_GENERALCALL_DISABLE;
 8004672:	61c3      	str	r3, [r0, #28]
  hi2c1.Init.NoStretchMode = I2C_NOSTRETCH_DISABLE;
 8004674:	6203      	str	r3, [r0, #32]
  if (HAL_I2C_Init(&hi2c1) != HAL_OK)
 8004676:	f7fd fadf 	bl	8001c38 <HAL_I2C_Init>
 800467a:	bd08      	pop	{r3, pc}
 800467c:	20000794 	.word	0x20000794
 8004680:	40005400 	.word	0x40005400
 8004684:	000186a0 	.word	0x000186a0

08004688 <MX_I2C2_Init>:
{
 8004688:	b508      	push	{r3, lr}
  hi2c2.Instance = I2C2;
 800468a:	480a      	ldr	r0, [pc, #40]	; (80046b4 <MX_I2C2_Init+0x2c>)
 800468c:	4b0a      	ldr	r3, [pc, #40]	; (80046b8 <MX_I2C2_Init+0x30>)
 800468e:	6003      	str	r3, [r0, #0]
  hi2c2.Init.ClockSpeed = 10000;
 8004690:	f242 7310 	movw	r3, #10000	; 0x2710
 8004694:	6043      	str	r3, [r0, #4]
  hi2c2.Init.DutyCycle = I2C_DUTYCYCLE_2;
 8004696:	2300      	movs	r3, #0
 8004698:	6083      	str	r3, [r0, #8]
  hi2c2.Init.OwnAddress1 = 6;
 800469a:	2206      	movs	r2, #6
 800469c:	60c2      	str	r2, [r0, #12]
  hi2c2.Init.AddressingMode = I2C_ADDRESSINGMODE_7BIT;
 800469e:	f44f 4280 	mov.w	r2, #16384	; 0x4000
 80046a2:	6102      	str	r2, [r0, #16]
  hi2c2.Init.DualAddressMode = I2C_DUALADDRESS_DISABLE;
 80046a4:	6143      	str	r3, [r0, #20]
  hi2c2.Init.OwnAddress2 = 0;
 80046a6:	6183      	str	r3, [r0, #24]
  hi2c2.Init.GeneralCallMode = I2C_GENERALCALL_DISABLE;
 80046a8:	61c3      	str	r3, [r0, #28]
  hi2c2.Init.NoStretchMode = I2C_NOSTRETCH_DISABLE;
 80046aa:	6203      	str	r3, [r0, #32]
  if (HAL_I2C_Init(&hi2c2) != HAL_OK)
 80046ac:	f7fd fac4 	bl	8001c38 <HAL_I2C_Init>
 80046b0:	bd08      	pop	{r3, pc}
 80046b2:	bf00      	nop
 80046b4:	200007e8 	.word	0x200007e8
 80046b8:	40005800 	.word	0x40005800

080046bc <MX_SPI2_Init>:
{
 80046bc:	b508      	push	{r3, lr}
  hspi2.Instance = SPI2;
 80046be:	480c      	ldr	r0, [pc, #48]	; (80046f0 <MX_SPI2_Init+0x34>)
 80046c0:	4b0c      	ldr	r3, [pc, #48]	; (80046f4 <MX_SPI2_Init+0x38>)
 80046c2:	6003      	str	r3, [r0, #0]
  hspi2.Init.Mode = SPI_MODE_MASTER;
 80046c4:	f44f 7382 	mov.w	r3, #260	; 0x104
 80046c8:	6043      	str	r3, [r0, #4]
  hspi2.Init.Direction = SPI_DIRECTION_2LINES;
 80046ca:	2300      	movs	r3, #0
 80046cc:	6083      	str	r3, [r0, #8]
  hspi2.Init.DataSize = SPI_DATASIZE_8BIT;
 80046ce:	60c3      	str	r3, [r0, #12]
  hspi2.Init.CLKPolarity = SPI_POLARITY_LOW;
 80046d0:	6103      	str	r3, [r0, #16]
  hspi2.Init.CLKPhase = SPI_PHASE_1EDGE;
 80046d2:	6143      	str	r3, [r0, #20]
  hspi2.Init.NSS = SPI_NSS_SOFT;
 80046d4:	f44f 7200 	mov.w	r2, #512	; 0x200
 80046d8:	6182      	str	r2, [r0, #24]
  hspi2.Init.BaudRatePrescaler = SPI_BAUDRATEPRESCALER_128;
 80046da:	2230      	movs	r2, #48	; 0x30
 80046dc:	61c2      	str	r2, [r0, #28]
  hspi2.Init.FirstBit = SPI_FIRSTBIT_MSB;
 80046de:	6203      	str	r3, [r0, #32]
  hspi2.Init.TIMode = SPI_TIMODE_DISABLE;
 80046e0:	6243      	str	r3, [r0, #36]	; 0x24
  hspi2.Init.CRCCalculation = SPI_CRCCALCULATION_DISABLE;
 80046e2:	6283      	str	r3, [r0, #40]	; 0x28
  hspi2.Init.CRCPolynomial = 10;
 80046e4:	230a      	movs	r3, #10
 80046e6:	62c3      	str	r3, [r0, #44]	; 0x2c
  if (HAL_SPI_Init(&hspi2) != HAL_OK)
 80046e8:	f7fe fc36 	bl	8002f58 <HAL_SPI_Init>
 80046ec:	bd08      	pop	{r3, pc}
 80046ee:	bf00      	nop
 80046f0:	200006dc 	.word	0x200006dc
 80046f4:	40003800 	.word	0x40003800

080046f8 <MX_ADC1_Init>:
{
 80046f8:	b5f0      	push	{r4, r5, r6, r7, lr}
 80046fa:	b085      	sub	sp, #20
  ADC_ChannelConfTypeDef sConfig = {0};
 80046fc:	2300      	movs	r3, #0
 80046fe:	9300      	str	r3, [sp, #0]
 8004700:	9301      	str	r3, [sp, #4]
 8004702:	9302      	str	r3, [sp, #8]
 8004704:	9303      	str	r3, [sp, #12]
  hadc1.Instance = ADC1;
 8004706:	4c1c      	ldr	r4, [pc, #112]	; (8004778 <MX_ADC1_Init+0x80>)
 8004708:	4a1c      	ldr	r2, [pc, #112]	; (800477c <MX_ADC1_Init+0x84>)
 800470a:	6022      	str	r2, [r4, #0]
  hadc1.Init.ClockPrescaler = ADC_CLOCK_SYNC_PCLK_DIV4;
 800470c:	f44f 3280 	mov.w	r2, #65536	; 0x10000
 8004710:	6062      	str	r2, [r4, #4]
  hadc1.Init.Resolution = ADC_RESOLUTION_12B;
 8004712:	60a3      	str	r3, [r4, #8]
  hadc1.Init.ScanConvMode = ENABLE;
 8004714:	2501      	movs	r5, #1
 8004716:	6125      	str	r5, [r4, #16]
  hadc1.Init.ContinuousConvMode = ENABLE;
 8004718:	61a5      	str	r5, [r4, #24]
  hadc1.Init.DiscontinuousConvMode = DISABLE;
 800471a:	6223      	str	r3, [r4, #32]
  hadc1.Init.ExternalTrigConvEdge = ADC_EXTERNALTRIGCONVEDGE_NONE;
 800471c:	62e3      	str	r3, [r4, #44]	; 0x2c
  hadc1.Init.ExternalTrigConv = ADC_SOFTWARE_START;
 800471e:	4a18      	ldr	r2, [pc, #96]	; (8004780 <MX_ADC1_Init+0x88>)
 8004720:	62a2      	str	r2, [r4, #40]	; 0x28
  hadc1.Init.DataAlign = ADC_DATAALIGN_RIGHT;
 8004722:	60e3      	str	r3, [r4, #12]
  hadc1.Init.NbrOfConversion = 4;
 8004724:	2604      	movs	r6, #4
 8004726:	61e6      	str	r6, [r4, #28]
  hadc1.Init.DMAContinuousRequests = ENABLE;
 8004728:	6325      	str	r5, [r4, #48]	; 0x30
  hadc1.Init.EOCSelection = ADC_EOC_SINGLE_CONV;
 800472a:	6165      	str	r5, [r4, #20]
  if (HAL_ADC_Init(&hadc1) != HAL_OK)
 800472c:	4620      	mov	r0, r4
 800472e:	f7fc fcc9 	bl	80010c4 <HAL_ADC_Init>
  sConfig.Channel = ADC_CHANNEL_6;
 8004732:	2306      	movs	r3, #6
 8004734:	9300      	str	r3, [sp, #0]
  sConfig.Rank = 1;
 8004736:	9501      	str	r5, [sp, #4]
  sConfig.SamplingTime = ADC_SAMPLETIME_56CYCLES;
 8004738:	2703      	movs	r7, #3
 800473a:	9702      	str	r7, [sp, #8]
  if (HAL_ADC_ConfigChannel(&hadc1, &sConfig) != HAL_OK)
 800473c:	4669      	mov	r1, sp
 800473e:	4620      	mov	r0, r4
 8004740:	f7fc fcea 	bl	8001118 <HAL_ADC_ConfigChannel>
  sConfig.Channel = ADC_CHANNEL_7;
 8004744:	2507      	movs	r5, #7
 8004746:	9500      	str	r5, [sp, #0]
  sConfig.Rank = 2;
 8004748:	2302      	movs	r3, #2
 800474a:	9301      	str	r3, [sp, #4]
  if (HAL_ADC_ConfigChannel(&hadc1, &sConfig) != HAL_OK)
 800474c:	4669      	mov	r1, sp
 800474e:	4620      	mov	r0, r4
 8004750:	f7fc fce2 	bl	8001118 <HAL_ADC_ConfigChannel>
  sConfig.Channel = ADC_CHANNEL_8;
 8004754:	2308      	movs	r3, #8
 8004756:	9300      	str	r3, [sp, #0]
  sConfig.Rank = 3;
 8004758:	9701      	str	r7, [sp, #4]
  if (HAL_ADC_ConfigChannel(&hadc1, &sConfig) != HAL_OK)
 800475a:	4669      	mov	r1, sp
 800475c:	4620      	mov	r0, r4
 800475e:	f7fc fcdb 	bl	8001118 <HAL_ADC_ConfigChannel>
  sConfig.Channel = ADC_CHANNEL_TEMPSENSOR;
 8004762:	4b08      	ldr	r3, [pc, #32]	; (8004784 <MX_ADC1_Init+0x8c>)
 8004764:	9300      	str	r3, [sp, #0]
  sConfig.Rank = 4;
 8004766:	9601      	str	r6, [sp, #4]
  sConfig.SamplingTime = ADC_SAMPLETIME_480CYCLES;
 8004768:	9502      	str	r5, [sp, #8]
  if (HAL_ADC_ConfigChannel(&hadc1, &sConfig) != HAL_OK)
 800476a:	4669      	mov	r1, sp
 800476c:	4620      	mov	r0, r4
 800476e:	f7fc fcd3 	bl	8001118 <HAL_ADC_ConfigChannel>
}
 8004772:	b005      	add	sp, #20
 8004774:	bdf0      	pop	{r4, r5, r6, r7, pc}
 8004776:	bf00      	nop
 8004778:	200008d8 	.word	0x200008d8
 800477c:	40012000 	.word	0x40012000
 8004780:	0f000001 	.word	0x0f000001
 8004784:	10000012 	.word	0x10000012

08004788 <SystemClock_Config>:
{
 8004788:	b530      	push	{r4, r5, lr}
 800478a:	b095      	sub	sp, #84	; 0x54
  RCC_OscInitTypeDef RCC_OscInitStruct = {0};
 800478c:	2234      	movs	r2, #52	; 0x34
 800478e:	2100      	movs	r1, #0
 8004790:	a807      	add	r0, sp, #28
 8004792:	f000 fef8 	bl	8005586 <memset>
  RCC_ClkInitTypeDef RCC_ClkInitStruct = {0};
 8004796:	2400      	movs	r4, #0
 8004798:	9402      	str	r4, [sp, #8]
 800479a:	9403      	str	r4, [sp, #12]
 800479c:	9404      	str	r4, [sp, #16]
 800479e:	9405      	str	r4, [sp, #20]
 80047a0:	9406      	str	r4, [sp, #24]
  __HAL_RCC_PWR_CLK_ENABLE();
 80047a2:	9400      	str	r4, [sp, #0]
 80047a4:	4b1d      	ldr	r3, [pc, #116]	; (800481c <SystemClock_Config+0x94>)
 80047a6:	6c1a      	ldr	r2, [r3, #64]	; 0x40
 80047a8:	f042 5280 	orr.w	r2, r2, #268435456	; 0x10000000
 80047ac:	641a      	str	r2, [r3, #64]	; 0x40
 80047ae:	6c1b      	ldr	r3, [r3, #64]	; 0x40
 80047b0:	f003 5380 	and.w	r3, r3, #268435456	; 0x10000000
 80047b4:	9300      	str	r3, [sp, #0]
 80047b6:	9b00      	ldr	r3, [sp, #0]
  __HAL_PWR_VOLTAGESCALING_CONFIG(PWR_REGULATOR_VOLTAGE_SCALE1);
 80047b8:	9401      	str	r4, [sp, #4]
 80047ba:	4b19      	ldr	r3, [pc, #100]	; (8004820 <SystemClock_Config+0x98>)
 80047bc:	681a      	ldr	r2, [r3, #0]
 80047be:	f442 4240 	orr.w	r2, r2, #49152	; 0xc000
 80047c2:	601a      	str	r2, [r3, #0]
 80047c4:	681b      	ldr	r3, [r3, #0]
 80047c6:	f403 4340 	and.w	r3, r3, #49152	; 0xc000
 80047ca:	9301      	str	r3, [sp, #4]
 80047cc:	9b01      	ldr	r3, [sp, #4]
  RCC_OscInitStruct.OscillatorType = RCC_OSCILLATORTYPE_HSE;
 80047ce:	2301      	movs	r3, #1
 80047d0:	9307      	str	r3, [sp, #28]
  RCC_OscInitStruct.HSEState = RCC_HSE_ON;
 80047d2:	f44f 3380 	mov.w	r3, #65536	; 0x10000
 80047d6:	9308      	str	r3, [sp, #32]
  RCC_OscInitStruct.PLL.PLLState = RCC_PLL_ON;
 80047d8:	2502      	movs	r5, #2
 80047da:	950d      	str	r5, [sp, #52]	; 0x34
  RCC_OscInitStruct.PLL.PLLSource = RCC_PLLSOURCE_HSE;
 80047dc:	f44f 0380 	mov.w	r3, #4194304	; 0x400000
 80047e0:	930e      	str	r3, [sp, #56]	; 0x38
  RCC_OscInitStruct.PLL.PLLM = 4;
 80047e2:	2304      	movs	r3, #4
 80047e4:	930f      	str	r3, [sp, #60]	; 0x3c
  RCC_OscInitStruct.PLL.PLLN = 180;
 80047e6:	23b4      	movs	r3, #180	; 0xb4
 80047e8:	9310      	str	r3, [sp, #64]	; 0x40
  RCC_OscInitStruct.PLL.PLLP = RCC_PLLP_DIV2;
 80047ea:	9511      	str	r5, [sp, #68]	; 0x44
  RCC_OscInitStruct.PLL.PLLQ = 2;
 80047ec:	9512      	str	r5, [sp, #72]	; 0x48
  RCC_OscInitStruct.PLL.PLLR = 2;
 80047ee:	9513      	str	r5, [sp, #76]	; 0x4c
  if (HAL_RCC_OscConfig(&RCC_OscInitStruct) != HAL_OK)
 80047f0:	a807      	add	r0, sp, #28
 80047f2:	f7fe f971 	bl	8002ad8 <HAL_RCC_OscConfig>
  if (HAL_PWREx_EnableOverDrive() != HAL_OK)
 80047f6:	f7fd ff9d 	bl	8002734 <HAL_PWREx_EnableOverDrive>
  RCC_ClkInitStruct.ClockType = RCC_CLOCKTYPE_HCLK|RCC_CLOCKTYPE_SYSCLK
 80047fa:	230f      	movs	r3, #15
 80047fc:	9302      	str	r3, [sp, #8]
  RCC_ClkInitStruct.SYSCLKSource = RCC_SYSCLKSOURCE_PLLCLK;
 80047fe:	9503      	str	r5, [sp, #12]
  RCC_ClkInitStruct.AHBCLKDivider = RCC_SYSCLK_DIV1;
 8004800:	9404      	str	r4, [sp, #16]
  RCC_ClkInitStruct.APB1CLKDivider = RCC_HCLK_DIV4;
 8004802:	f44f 53a0 	mov.w	r3, #5120	; 0x1400
 8004806:	9305      	str	r3, [sp, #20]
  RCC_ClkInitStruct.APB2CLKDivider = RCC_HCLK_DIV2;
 8004808:	f44f 5380 	mov.w	r3, #4096	; 0x1000
 800480c:	9306      	str	r3, [sp, #24]
  if (HAL_RCC_ClockConfig(&RCC_ClkInitStruct, FLASH_LATENCY_5) != HAL_OK)
 800480e:	2105      	movs	r1, #5
 8004810:	a802      	add	r0, sp, #8
 8004812:	f7fd ffcf 	bl	80027b4 <HAL_RCC_ClockConfig>
}
 8004816:	b015      	add	sp, #84	; 0x54
 8004818:	bd30      	pop	{r4, r5, pc}
 800481a:	bf00      	nop
 800481c:	40023800 	.word	0x40023800
 8004820:	40007000 	.word	0x40007000

08004824 <main>:
{
 8004824:	b508      	push	{r3, lr}
  HAL_Init();
 8004826:	f7fc fb89 	bl	8000f3c <HAL_Init>
  SystemClock_Config();
 800482a:	f7ff ffad 	bl	8004788 <SystemClock_Config>
  MX_GPIO_Init();
 800482e:	f7ff fdc7 	bl	80043c0 <MX_GPIO_Init>
  MX_DMA_Init();
 8004832:	f7ff fe2d 	bl	8004490 <MX_DMA_Init>
  MX_USART2_UART_Init();
 8004836:	f7ff fe6f 	bl	8004518 <MX_USART2_UART_Init>
  MX_TIM1_Init();
 800483a:	f7ff fe83 	bl	8004544 <MX_TIM1_Init>
  MX_TIM5_Init();
 800483e:	f7ff fee3 	bl	8004608 <MX_TIM5_Init>
  MX_I2C1_Init();
 8004842:	f7ff ff07 	bl	8004654 <MX_I2C1_Init>
  MX_I2C2_Init();
 8004846:	f7ff ff1f 	bl	8004688 <MX_I2C2_Init>
  MX_SPI2_Init();
 800484a:	f7ff ff37 	bl	80046bc <MX_SPI2_Init>
  MX_ADC1_Init();
 800484e:	f7ff ff53 	bl	80046f8 <MX_ADC1_Init>
  prj_main();
 8004852:	f7ff fdb1 	bl	80043b8 <prj_main>
 8004856:	e7fe      	b.n	8004856 <main+0x32>

08004858 <Error_Handler>:
/**
  * @brief  This function is executed in case of error occurrence.
  * @retval None
  */
void Error_Handler(void)
{
 8004858:	4770      	bx	lr
	...

0800485c <HAL_MspInit>:
void HAL_TIM_MspPostInit(TIM_HandleTypeDef *htim);
                    /**
  * Initializes the Global MSP.
  */
void HAL_MspInit(void)
{
 800485c:	b500      	push	{lr}
 800485e:	b083      	sub	sp, #12
  /* USER CODE BEGIN MspInit 0 */

  /* USER CODE END MspInit 0 */

  __HAL_RCC_SYSCFG_CLK_ENABLE();
 8004860:	2100      	movs	r1, #0
 8004862:	9100      	str	r1, [sp, #0]
 8004864:	4b0c      	ldr	r3, [pc, #48]	; (8004898 <HAL_MspInit+0x3c>)
 8004866:	6c5a      	ldr	r2, [r3, #68]	; 0x44
 8004868:	f442 4280 	orr.w	r2, r2, #16384	; 0x4000
 800486c:	645a      	str	r2, [r3, #68]	; 0x44
 800486e:	6c5a      	ldr	r2, [r3, #68]	; 0x44
 8004870:	f402 4280 	and.w	r2, r2, #16384	; 0x4000
 8004874:	9200      	str	r2, [sp, #0]
 8004876:	9a00      	ldr	r2, [sp, #0]
  __HAL_RCC_PWR_CLK_ENABLE();
 8004878:	9101      	str	r1, [sp, #4]
 800487a:	6c1a      	ldr	r2, [r3, #64]	; 0x40
 800487c:	f042 5280 	orr.w	r2, r2, #268435456	; 0x10000000
 8004880:	641a      	str	r2, [r3, #64]	; 0x40
 8004882:	6c1b      	ldr	r3, [r3, #64]	; 0x40
 8004884:	f003 5380 	and.w	r3, r3, #268435456	; 0x10000000
 8004888:	9301      	str	r3, [sp, #4]
 800488a:	9b01      	ldr	r3, [sp, #4]

  HAL_NVIC_SetPriorityGrouping(NVIC_PRIORITYGROUP_0);
 800488c:	2007      	movs	r0, #7
 800488e:	f7fc fd0d 	bl	80012ac <HAL_NVIC_SetPriorityGrouping>
  /* System interrupt init*/

  /* USER CODE BEGIN MspInit 1 */

  /* USER CODE END MspInit 1 */
}
 8004892:	b003      	add	sp, #12
 8004894:	f85d fb04 	ldr.w	pc, [sp], #4
 8004898:	40023800 	.word	0x40023800

0800489c <HAL_ADC_MspInit>:
* This function configures the hardware resources used in this example
* @param hadc: ADC handle pointer
* @retval None
*/
void HAL_ADC_MspInit(ADC_HandleTypeDef* hadc)
{
 800489c:	b570      	push	{r4, r5, r6, lr}
 800489e:	b088      	sub	sp, #32

  GPIO_InitTypeDef GPIO_InitStruct = {0};
 80048a0:	2300      	movs	r3, #0
 80048a2:	9303      	str	r3, [sp, #12]
 80048a4:	9304      	str	r3, [sp, #16]
 80048a6:	9305      	str	r3, [sp, #20]
 80048a8:	9306      	str	r3, [sp, #24]
 80048aa:	9307      	str	r3, [sp, #28]
  if(hadc->Instance==ADC1)
 80048ac:	6802      	ldr	r2, [r0, #0]
 80048ae:	f103 4380 	add.w	r3, r3, #1073741824	; 0x40000000
 80048b2:	f503 3390 	add.w	r3, r3, #73728	; 0x12000
 80048b6:	429a      	cmp	r2, r3
 80048b8:	d001      	beq.n	80048be <HAL_ADC_MspInit+0x22>
  /* USER CODE BEGIN ADC1_MspInit 1 */

  /* USER CODE END ADC1_MspInit 1 */
  }

}
 80048ba:	b008      	add	sp, #32
 80048bc:	bd70      	pop	{r4, r5, r6, pc}
 80048be:	4604      	mov	r4, r0
    __HAL_RCC_ADC1_CLK_ENABLE();
 80048c0:	2500      	movs	r5, #0
 80048c2:	9500      	str	r5, [sp, #0]
 80048c4:	f503 338c 	add.w	r3, r3, #71680	; 0x11800
 80048c8:	6c5a      	ldr	r2, [r3, #68]	; 0x44
 80048ca:	f442 7280 	orr.w	r2, r2, #256	; 0x100
 80048ce:	645a      	str	r2, [r3, #68]	; 0x44
 80048d0:	6c5a      	ldr	r2, [r3, #68]	; 0x44
 80048d2:	f402 7280 	and.w	r2, r2, #256	; 0x100
 80048d6:	9200      	str	r2, [sp, #0]
 80048d8:	9a00      	ldr	r2, [sp, #0]
    __HAL_RCC_GPIOA_CLK_ENABLE();
 80048da:	9501      	str	r5, [sp, #4]
 80048dc:	6b1a      	ldr	r2, [r3, #48]	; 0x30
 80048de:	f042 0201 	orr.w	r2, r2, #1
 80048e2:	631a      	str	r2, [r3, #48]	; 0x30
 80048e4:	6b1a      	ldr	r2, [r3, #48]	; 0x30
 80048e6:	f002 0201 	and.w	r2, r2, #1
 80048ea:	9201      	str	r2, [sp, #4]
 80048ec:	9a01      	ldr	r2, [sp, #4]
    __HAL_RCC_GPIOB_CLK_ENABLE();
 80048ee:	9502      	str	r5, [sp, #8]
 80048f0:	6b1a      	ldr	r2, [r3, #48]	; 0x30
 80048f2:	f042 0202 	orr.w	r2, r2, #2
 80048f6:	631a      	str	r2, [r3, #48]	; 0x30
 80048f8:	6b1b      	ldr	r3, [r3, #48]	; 0x30
 80048fa:	f003 0302 	and.w	r3, r3, #2
 80048fe:	9302      	str	r3, [sp, #8]
 8004900:	9b02      	ldr	r3, [sp, #8]
    GPIO_InitStruct.Pin = GPIO_PIN_6|GPIO_PIN_7;
 8004902:	23c0      	movs	r3, #192	; 0xc0
 8004904:	9303      	str	r3, [sp, #12]
    GPIO_InitStruct.Mode = GPIO_MODE_ANALOG;
 8004906:	2603      	movs	r6, #3
 8004908:	9604      	str	r6, [sp, #16]
    HAL_GPIO_Init(GPIOA, &GPIO_InitStruct);
 800490a:	a903      	add	r1, sp, #12
 800490c:	4814      	ldr	r0, [pc, #80]	; (8004960 <HAL_ADC_MspInit+0xc4>)
 800490e:	f7fc ff53 	bl	80017b8 <HAL_GPIO_Init>
    GPIO_InitStruct.Pin = GPIO_PIN_0;
 8004912:	2301      	movs	r3, #1
 8004914:	9303      	str	r3, [sp, #12]
    GPIO_InitStruct.Mode = GPIO_MODE_ANALOG;
 8004916:	9604      	str	r6, [sp, #16]
    GPIO_InitStruct.Pull = GPIO_NOPULL;
 8004918:	9505      	str	r5, [sp, #20]
    HAL_GPIO_Init(GPIOB, &GPIO_InitStruct);
 800491a:	a903      	add	r1, sp, #12
 800491c:	4811      	ldr	r0, [pc, #68]	; (8004964 <HAL_ADC_MspInit+0xc8>)
 800491e:	f7fc ff4b 	bl	80017b8 <HAL_GPIO_Init>
    hdma_adc1.Instance = DMA2_Stream0;
 8004922:	4811      	ldr	r0, [pc, #68]	; (8004968 <HAL_ADC_MspInit+0xcc>)
 8004924:	4b11      	ldr	r3, [pc, #68]	; (800496c <HAL_ADC_MspInit+0xd0>)
 8004926:	6003      	str	r3, [r0, #0]
    hdma_adc1.Init.Channel = DMA_CHANNEL_0;
 8004928:	6045      	str	r5, [r0, #4]
    hdma_adc1.Init.Direction = DMA_PERIPH_TO_MEMORY;
 800492a:	6085      	str	r5, [r0, #8]
    hdma_adc1.Init.PeriphInc = DMA_PINC_DISABLE;
 800492c:	60c5      	str	r5, [r0, #12]
    hdma_adc1.Init.MemInc = DMA_MINC_ENABLE;
 800492e:	f44f 6380 	mov.w	r3, #1024	; 0x400
 8004932:	6103      	str	r3, [r0, #16]
    hdma_adc1.Init.PeriphDataAlignment = DMA_PDATAALIGN_HALFWORD;
 8004934:	f44f 6300 	mov.w	r3, #2048	; 0x800
 8004938:	6143      	str	r3, [r0, #20]
    hdma_adc1.Init.MemDataAlignment = DMA_MDATAALIGN_HALFWORD;
 800493a:	f44f 5300 	mov.w	r3, #8192	; 0x2000
 800493e:	6183      	str	r3, [r0, #24]
    hdma_adc1.Init.Mode = DMA_CIRCULAR;
 8004940:	f44f 7380 	mov.w	r3, #256	; 0x100
 8004944:	61c3      	str	r3, [r0, #28]
    hdma_adc1.Init.Priority = DMA_PRIORITY_LOW;
 8004946:	6205      	str	r5, [r0, #32]
    hdma_adc1.Init.FIFOMode = DMA_FIFOMODE_DISABLE;
 8004948:	6245      	str	r5, [r0, #36]	; 0x24
    if (HAL_DMA_Init(&hdma_adc1) != HAL_OK)
 800494a:	f7fc fd91 	bl	8001470 <HAL_DMA_Init>
 800494e:	b918      	cbnz	r0, 8004958 <HAL_ADC_MspInit+0xbc>
    __HAL_LINKDMA(hadc,DMA_Handle,hdma_adc1);
 8004950:	4b05      	ldr	r3, [pc, #20]	; (8004968 <HAL_ADC_MspInit+0xcc>)
 8004952:	63a3      	str	r3, [r4, #56]	; 0x38
 8004954:	639c      	str	r4, [r3, #56]	; 0x38
}
 8004956:	e7b0      	b.n	80048ba <HAL_ADC_MspInit+0x1e>
      Error_Handler();
 8004958:	f7ff ff7e 	bl	8004858 <Error_Handler>
 800495c:	e7f8      	b.n	8004950 <HAL_ADC_MspInit+0xb4>
 800495e:	bf00      	nop
 8004960:	40020000 	.word	0x40020000
 8004964:	40020400 	.word	0x40020400
 8004968:	20000920 	.word	0x20000920
 800496c:	40026410 	.word	0x40026410

08004970 <HAL_I2C_MspInit>:
* This function configures the hardware resources used in this example
* @param hi2c: I2C handle pointer
* @retval None
*/
void HAL_I2C_MspInit(I2C_HandleTypeDef* hi2c)
{
 8004970:	e92d 43f0 	stmdb	sp!, {r4, r5, r6, r7, r8, r9, lr}
 8004974:	b08b      	sub	sp, #44	; 0x2c

  GPIO_InitTypeDef GPIO_InitStruct = {0};
 8004976:	2300      	movs	r3, #0
 8004978:	9305      	str	r3, [sp, #20]
 800497a:	9306      	str	r3, [sp, #24]
 800497c:	9307      	str	r3, [sp, #28]
 800497e:	9308      	str	r3, [sp, #32]
 8004980:	9309      	str	r3, [sp, #36]	; 0x24
  if(hi2c->Instance==I2C1)
 8004982:	6803      	ldr	r3, [r0, #0]
 8004984:	4a5b      	ldr	r2, [pc, #364]	; (8004af4 <HAL_I2C_MspInit+0x184>)
 8004986:	4293      	cmp	r3, r2
 8004988:	d005      	beq.n	8004996 <HAL_I2C_MspInit+0x26>
    HAL_NVIC_EnableIRQ(I2C1_ER_IRQn);
  /* USER CODE BEGIN I2C1_MspInit 1 */

  /* USER CODE END I2C1_MspInit 1 */
  }
  else if(hi2c->Instance==I2C2)
 800498a:	4a5b      	ldr	r2, [pc, #364]	; (8004af8 <HAL_I2C_MspInit+0x188>)
 800498c:	4293      	cmp	r3, r2
 800498e:	d06f      	beq.n	8004a70 <HAL_I2C_MspInit+0x100>
  /* USER CODE BEGIN I2C2_MspInit 1 */

  /* USER CODE END I2C2_MspInit 1 */
  }

}
 8004990:	b00b      	add	sp, #44	; 0x2c
 8004992:	e8bd 83f0 	ldmia.w	sp!, {r4, r5, r6, r7, r8, r9, pc}
 8004996:	4604      	mov	r4, r0
    __HAL_RCC_GPIOB_CLK_ENABLE();
 8004998:	2500      	movs	r5, #0
 800499a:	9500      	str	r5, [sp, #0]
 800499c:	4e57      	ldr	r6, [pc, #348]	; (8004afc <HAL_I2C_MspInit+0x18c>)
 800499e:	6b33      	ldr	r3, [r6, #48]	; 0x30
 80049a0:	f043 0302 	orr.w	r3, r3, #2
 80049a4:	6333      	str	r3, [r6, #48]	; 0x30
 80049a6:	6b33      	ldr	r3, [r6, #48]	; 0x30
 80049a8:	f003 0302 	and.w	r3, r3, #2
 80049ac:	9300      	str	r3, [sp, #0]
 80049ae:	9b00      	ldr	r3, [sp, #0]
    GPIO_InitStruct.Pin = GPIO_PIN_8|GPIO_PIN_9;
 80049b0:	f44f 7340 	mov.w	r3, #768	; 0x300
 80049b4:	9305      	str	r3, [sp, #20]
    GPIO_InitStruct.Mode = GPIO_MODE_AF_OD;
 80049b6:	2312      	movs	r3, #18
 80049b8:	9306      	str	r3, [sp, #24]
    GPIO_InitStruct.Speed = GPIO_SPEED_FREQ_VERY_HIGH;
 80049ba:	2303      	movs	r3, #3
 80049bc:	9308      	str	r3, [sp, #32]
    GPIO_InitStruct.Alternate = GPIO_AF4_I2C1;
 80049be:	2304      	movs	r3, #4
 80049c0:	9309      	str	r3, [sp, #36]	; 0x24
    HAL_GPIO_Init(GPIOB, &GPIO_InitStruct);
 80049c2:	a905      	add	r1, sp, #20
 80049c4:	484e      	ldr	r0, [pc, #312]	; (8004b00 <HAL_I2C_MspInit+0x190>)
 80049c6:	f7fc fef7 	bl	80017b8 <HAL_GPIO_Init>
    __HAL_RCC_I2C1_CLK_ENABLE();
 80049ca:	9501      	str	r5, [sp, #4]
 80049cc:	6c33      	ldr	r3, [r6, #64]	; 0x40
 80049ce:	f443 1300 	orr.w	r3, r3, #2097152	; 0x200000
 80049d2:	6433      	str	r3, [r6, #64]	; 0x40
 80049d4:	6c33      	ldr	r3, [r6, #64]	; 0x40
 80049d6:	f403 1300 	and.w	r3, r3, #2097152	; 0x200000
 80049da:	9301      	str	r3, [sp, #4]
 80049dc:	9b01      	ldr	r3, [sp, #4]
    hdma_i2c1_tx.Instance = DMA1_Stream7;
 80049de:	4849      	ldr	r0, [pc, #292]	; (8004b04 <HAL_I2C_MspInit+0x194>)
 80049e0:	4b49      	ldr	r3, [pc, #292]	; (8004b08 <HAL_I2C_MspInit+0x198>)
 80049e2:	6003      	str	r3, [r0, #0]
    hdma_i2c1_tx.Init.Channel = DMA_CHANNEL_1;
 80049e4:	f04f 7300 	mov.w	r3, #33554432	; 0x2000000
 80049e8:	6043      	str	r3, [r0, #4]
    hdma_i2c1_tx.Init.Direction = DMA_MEMORY_TO_PERIPH;
 80049ea:	2340      	movs	r3, #64	; 0x40
 80049ec:	6083      	str	r3, [r0, #8]
    hdma_i2c1_tx.Init.PeriphInc = DMA_PINC_DISABLE;
 80049ee:	60c5      	str	r5, [r0, #12]
    hdma_i2c1_tx.Init.MemInc = DMA_MINC_ENABLE;
 80049f0:	f44f 6380 	mov.w	r3, #1024	; 0x400
 80049f4:	6103      	str	r3, [r0, #16]
    hdma_i2c1_tx.Init.PeriphDataAlignment = DMA_PDATAALIGN_BYTE;
 80049f6:	6145      	str	r5, [r0, #20]
    hdma_i2c1_tx.Init.MemDataAlignment = DMA_MDATAALIGN_BYTE;
 80049f8:	6185      	str	r5, [r0, #24]
    hdma_i2c1_tx.Init.Mode = DMA_NORMAL;
 80049fa:	61c5      	str	r5, [r0, #28]
    hdma_i2c1_tx.Init.Priority = DMA_PRIORITY_VERY_HIGH;
 80049fc:	f44f 3340 	mov.w	r3, #196608	; 0x30000
 8004a00:	6203      	str	r3, [r0, #32]
    hdma_i2c1_tx.Init.FIFOMode = DMA_FIFOMODE_DISABLE;
 8004a02:	6245      	str	r5, [r0, #36]	; 0x24
    if (HAL_DMA_Init(&hdma_i2c1_tx) != HAL_OK)
 8004a04:	f7fc fd34 	bl	8001470 <HAL_DMA_Init>
 8004a08:	bb60      	cbnz	r0, 8004a64 <HAL_I2C_MspInit+0xf4>
    __HAL_LINKDMA(hi2c,hdmatx,hdma_i2c1_tx);
 8004a0a:	4b3e      	ldr	r3, [pc, #248]	; (8004b04 <HAL_I2C_MspInit+0x194>)
 8004a0c:	6363      	str	r3, [r4, #52]	; 0x34
 8004a0e:	639c      	str	r4, [r3, #56]	; 0x38
    hdma_i2c1_rx.Instance = DMA1_Stream0;
 8004a10:	483e      	ldr	r0, [pc, #248]	; (8004b0c <HAL_I2C_MspInit+0x19c>)
 8004a12:	4b3f      	ldr	r3, [pc, #252]	; (8004b10 <HAL_I2C_MspInit+0x1a0>)
 8004a14:	6003      	str	r3, [r0, #0]
    hdma_i2c1_rx.Init.Channel = DMA_CHANNEL_1;
 8004a16:	f04f 7300 	mov.w	r3, #33554432	; 0x2000000
 8004a1a:	6043      	str	r3, [r0, #4]
    hdma_i2c1_rx.Init.Direction = DMA_PERIPH_TO_MEMORY;
 8004a1c:	2300      	movs	r3, #0
 8004a1e:	6083      	str	r3, [r0, #8]
    hdma_i2c1_rx.Init.PeriphInc = DMA_PINC_DISABLE;
 8004a20:	60c3      	str	r3, [r0, #12]
    hdma_i2c1_rx.Init.MemInc = DMA_MINC_ENABLE;
 8004a22:	f44f 6280 	mov.w	r2, #1024	; 0x400
 8004a26:	6102      	str	r2, [r0, #16]
    hdma_i2c1_rx.Init.PeriphDataAlignment = DMA_PDATAALIGN_BYTE;
 8004a28:	6143      	str	r3, [r0, #20]
    hdma_i2c1_rx.Init.MemDataAlignment = DMA_MDATAALIGN_BYTE;
 8004a2a:	6183      	str	r3, [r0, #24]
    hdma_i2c1_rx.Init.Mode = DMA_NORMAL;
 8004a2c:	61c3      	str	r3, [r0, #28]
    hdma_i2c1_rx.Init.Priority = DMA_PRIORITY_VERY_HIGH;
 8004a2e:	f44f 3240 	mov.w	r2, #196608	; 0x30000
 8004a32:	6202      	str	r2, [r0, #32]
    hdma_i2c1_rx.Init.FIFOMode = DMA_FIFOMODE_DISABLE;
 8004a34:	6243      	str	r3, [r0, #36]	; 0x24
    if (HAL_DMA_Init(&hdma_i2c1_rx) != HAL_OK)
 8004a36:	f7fc fd1b 	bl	8001470 <HAL_DMA_Init>
 8004a3a:	b9b0      	cbnz	r0, 8004a6a <HAL_I2C_MspInit+0xfa>
    __HAL_LINKDMA(hi2c,hdmarx,hdma_i2c1_rx);
 8004a3c:	4b33      	ldr	r3, [pc, #204]	; (8004b0c <HAL_I2C_MspInit+0x19c>)
 8004a3e:	63a3      	str	r3, [r4, #56]	; 0x38
 8004a40:	639c      	str	r4, [r3, #56]	; 0x38
    HAL_NVIC_SetPriority(I2C1_EV_IRQn, 0, 0);
 8004a42:	2200      	movs	r2, #0
 8004a44:	4611      	mov	r1, r2
 8004a46:	201f      	movs	r0, #31
 8004a48:	f7fc fc42 	bl	80012d0 <HAL_NVIC_SetPriority>
    HAL_NVIC_EnableIRQ(I2C1_EV_IRQn);
 8004a4c:	201f      	movs	r0, #31
 8004a4e:	f7fc fc71 	bl	8001334 <HAL_NVIC_EnableIRQ>
    HAL_NVIC_SetPriority(I2C1_ER_IRQn, 0, 0);
 8004a52:	2200      	movs	r2, #0
 8004a54:	4611      	mov	r1, r2
 8004a56:	2020      	movs	r0, #32
 8004a58:	f7fc fc3a 	bl	80012d0 <HAL_NVIC_SetPriority>
    HAL_NVIC_EnableIRQ(I2C1_ER_IRQn);
 8004a5c:	2020      	movs	r0, #32
 8004a5e:	f7fc fc69 	bl	8001334 <HAL_NVIC_EnableIRQ>
 8004a62:	e795      	b.n	8004990 <HAL_I2C_MspInit+0x20>
      Error_Handler();
 8004a64:	f7ff fef8 	bl	8004858 <Error_Handler>
 8004a68:	e7cf      	b.n	8004a0a <HAL_I2C_MspInit+0x9a>
      Error_Handler();
 8004a6a:	f7ff fef5 	bl	8004858 <Error_Handler>
 8004a6e:	e7e5      	b.n	8004a3c <HAL_I2C_MspInit+0xcc>
    __HAL_RCC_GPIOB_CLK_ENABLE();
 8004a70:	2500      	movs	r5, #0
 8004a72:	9502      	str	r5, [sp, #8]
 8004a74:	4c21      	ldr	r4, [pc, #132]	; (8004afc <HAL_I2C_MspInit+0x18c>)
 8004a76:	6b23      	ldr	r3, [r4, #48]	; 0x30
 8004a78:	f043 0302 	orr.w	r3, r3, #2
 8004a7c:	6323      	str	r3, [r4, #48]	; 0x30
 8004a7e:	6b23      	ldr	r3, [r4, #48]	; 0x30
 8004a80:	f003 0302 	and.w	r3, r3, #2
 8004a84:	9302      	str	r3, [sp, #8]
 8004a86:	9b02      	ldr	r3, [sp, #8]
    __HAL_RCC_GPIOC_CLK_ENABLE();
 8004a88:	9503      	str	r5, [sp, #12]
 8004a8a:	6b23      	ldr	r3, [r4, #48]	; 0x30
 8004a8c:	f043 0304 	orr.w	r3, r3, #4
 8004a90:	6323      	str	r3, [r4, #48]	; 0x30
 8004a92:	6b23      	ldr	r3, [r4, #48]	; 0x30
 8004a94:	f003 0304 	and.w	r3, r3, #4
 8004a98:	9303      	str	r3, [sp, #12]
 8004a9a:	9b03      	ldr	r3, [sp, #12]
    GPIO_InitStruct.Pin = GPIO_PIN_10;
 8004a9c:	f44f 6380 	mov.w	r3, #1024	; 0x400
 8004aa0:	9305      	str	r3, [sp, #20]
    GPIO_InitStruct.Mode = GPIO_MODE_AF_OD;
 8004aa2:	f04f 0912 	mov.w	r9, #18
 8004aa6:	f8cd 9018 	str.w	r9, [sp, #24]
    GPIO_InitStruct.Pull = GPIO_PULLUP;
 8004aaa:	f04f 0801 	mov.w	r8, #1
 8004aae:	f8cd 801c 	str.w	r8, [sp, #28]
    GPIO_InitStruct.Speed = GPIO_SPEED_FREQ_VERY_HIGH;
 8004ab2:	2703      	movs	r7, #3
 8004ab4:	9708      	str	r7, [sp, #32]
    GPIO_InitStruct.Alternate = GPIO_AF4_I2C2;
 8004ab6:	2604      	movs	r6, #4
 8004ab8:	9609      	str	r6, [sp, #36]	; 0x24
    HAL_GPIO_Init(GPIOB, &GPIO_InitStruct);
 8004aba:	a905      	add	r1, sp, #20
 8004abc:	4810      	ldr	r0, [pc, #64]	; (8004b00 <HAL_I2C_MspInit+0x190>)
 8004abe:	f7fc fe7b 	bl	80017b8 <HAL_GPIO_Init>
    GPIO_InitStruct.Pin = GPIO_PIN_12;
 8004ac2:	f44f 5380 	mov.w	r3, #4096	; 0x1000
 8004ac6:	9305      	str	r3, [sp, #20]
    GPIO_InitStruct.Mode = GPIO_MODE_AF_OD;
 8004ac8:	f8cd 9018 	str.w	r9, [sp, #24]
    GPIO_InitStruct.Pull = GPIO_PULLUP;
 8004acc:	f8cd 801c 	str.w	r8, [sp, #28]
    GPIO_InitStruct.Speed = GPIO_SPEED_FREQ_VERY_HIGH;
 8004ad0:	9708      	str	r7, [sp, #32]
    GPIO_InitStruct.Alternate = GPIO_AF4_I2C2;
 8004ad2:	9609      	str	r6, [sp, #36]	; 0x24
    HAL_GPIO_Init(GPIOC, &GPIO_InitStruct);
 8004ad4:	a905      	add	r1, sp, #20
 8004ad6:	480f      	ldr	r0, [pc, #60]	; (8004b14 <HAL_I2C_MspInit+0x1a4>)
 8004ad8:	f7fc fe6e 	bl	80017b8 <HAL_GPIO_Init>
    __HAL_RCC_I2C2_CLK_ENABLE();
 8004adc:	9504      	str	r5, [sp, #16]
 8004ade:	6c23      	ldr	r3, [r4, #64]	; 0x40
 8004ae0:	f443 0380 	orr.w	r3, r3, #4194304	; 0x400000
 8004ae4:	6423      	str	r3, [r4, #64]	; 0x40
 8004ae6:	6c23      	ldr	r3, [r4, #64]	; 0x40
 8004ae8:	f403 0380 	and.w	r3, r3, #4194304	; 0x400000
 8004aec:	9304      	str	r3, [sp, #16]
 8004aee:	9b04      	ldr	r3, [sp, #16]
}
 8004af0:	e74e      	b.n	8004990 <HAL_I2C_MspInit+0x20>
 8004af2:	bf00      	nop
 8004af4:	40005400 	.word	0x40005400
 8004af8:	40005800 	.word	0x40005800
 8004afc:	40023800 	.word	0x40023800
 8004b00:	40020400 	.word	0x40020400
 8004b04:	20000734 	.word	0x20000734
 8004b08:	400260b8 	.word	0x400260b8
 8004b0c:	200009bc 	.word	0x200009bc
 8004b10:	40026010 	.word	0x40026010
 8004b14:	40020800 	.word	0x40020800

08004b18 <HAL_SPI_MspInit>:
* This function configures the hardware resources used in this example
* @param hspi: SPI handle pointer
* @retval None
*/
void HAL_SPI_MspInit(SPI_HandleTypeDef* hspi)
{
 8004b18:	e92d 43f0 	stmdb	sp!, {r4, r5, r6, r7, r8, r9, lr}
 8004b1c:	b089      	sub	sp, #36	; 0x24

  GPIO_InitTypeDef GPIO_InitStruct = {0};
 8004b1e:	2300      	movs	r3, #0
 8004b20:	9303      	str	r3, [sp, #12]
 8004b22:	9304      	str	r3, [sp, #16]
 8004b24:	9305      	str	r3, [sp, #20]
 8004b26:	9306      	str	r3, [sp, #24]
 8004b28:	9307      	str	r3, [sp, #28]
  if(hspi->Instance==SPI2)
 8004b2a:	6802      	ldr	r2, [r0, #0]
 8004b2c:	4b43      	ldr	r3, [pc, #268]	; (8004c3c <HAL_SPI_MspInit+0x124>)
 8004b2e:	429a      	cmp	r2, r3
 8004b30:	d002      	beq.n	8004b38 <HAL_SPI_MspInit+0x20>
  /* USER CODE BEGIN SPI2_MspInit 1 */

  /* USER CODE END SPI2_MspInit 1 */
  }

}
 8004b32:	b009      	add	sp, #36	; 0x24
 8004b34:	e8bd 83f0 	ldmia.w	sp!, {r4, r5, r6, r7, r8, r9, pc}
 8004b38:	4604      	mov	r4, r0
    __HAL_RCC_SPI2_CLK_ENABLE();
 8004b3a:	2500      	movs	r5, #0
 8004b3c:	9500      	str	r5, [sp, #0]
 8004b3e:	f503 3300 	add.w	r3, r3, #131072	; 0x20000
 8004b42:	6c1a      	ldr	r2, [r3, #64]	; 0x40
 8004b44:	f442 4280 	orr.w	r2, r2, #16384	; 0x4000
 8004b48:	641a      	str	r2, [r3, #64]	; 0x40
 8004b4a:	6c1a      	ldr	r2, [r3, #64]	; 0x40
 8004b4c:	f402 4280 	and.w	r2, r2, #16384	; 0x4000
 8004b50:	9200      	str	r2, [sp, #0]
 8004b52:	9a00      	ldr	r2, [sp, #0]
    __HAL_RCC_GPIOC_CLK_ENABLE();
 8004b54:	9501      	str	r5, [sp, #4]
 8004b56:	6b1a      	ldr	r2, [r3, #48]	; 0x30
 8004b58:	f042 0204 	orr.w	r2, r2, #4
 8004b5c:	631a      	str	r2, [r3, #48]	; 0x30
 8004b5e:	6b1a      	ldr	r2, [r3, #48]	; 0x30
 8004b60:	f002 0204 	and.w	r2, r2, #4
 8004b64:	9201      	str	r2, [sp, #4]
 8004b66:	9a01      	ldr	r2, [sp, #4]
    __HAL_RCC_GPIOB_CLK_ENABLE();
 8004b68:	9502      	str	r5, [sp, #8]
 8004b6a:	6b1a      	ldr	r2, [r3, #48]	; 0x30
 8004b6c:	f042 0202 	orr.w	r2, r2, #2
 8004b70:	631a      	str	r2, [r3, #48]	; 0x30
 8004b72:	6b1b      	ldr	r3, [r3, #48]	; 0x30
 8004b74:	f003 0302 	and.w	r3, r3, #2
 8004b78:	9302      	str	r3, [sp, #8]
 8004b7a:	9b02      	ldr	r3, [sp, #8]
    GPIO_InitStruct.Pin = GPIO_PIN_1;
 8004b7c:	2602      	movs	r6, #2
 8004b7e:	9603      	str	r6, [sp, #12]
    GPIO_InitStruct.Mode = GPIO_MODE_AF_PP;
 8004b80:	9604      	str	r6, [sp, #16]
    GPIO_InitStruct.Speed = GPIO_SPEED_FREQ_VERY_HIGH;
 8004b82:	2703      	movs	r7, #3
 8004b84:	9706      	str	r7, [sp, #24]
    GPIO_InitStruct.Alternate = GPIO_AF7_SPI2;
 8004b86:	2307      	movs	r3, #7
 8004b88:	9307      	str	r3, [sp, #28]
    HAL_GPIO_Init(GPIOC, &GPIO_InitStruct);
 8004b8a:	f8df 90c8 	ldr.w	r9, [pc, #200]	; 8004c54 <HAL_SPI_MspInit+0x13c>
 8004b8e:	a903      	add	r1, sp, #12
 8004b90:	4648      	mov	r0, r9
 8004b92:	f7fc fe11 	bl	80017b8 <HAL_GPIO_Init>
    GPIO_InitStruct.Pin = GPIO_PIN_2;
 8004b96:	2304      	movs	r3, #4
 8004b98:	9303      	str	r3, [sp, #12]
    GPIO_InitStruct.Mode = GPIO_MODE_AF_PP;
 8004b9a:	9604      	str	r6, [sp, #16]
    GPIO_InitStruct.Pull = GPIO_NOPULL;
 8004b9c:	9505      	str	r5, [sp, #20]
    GPIO_InitStruct.Speed = GPIO_SPEED_FREQ_VERY_HIGH;
 8004b9e:	9706      	str	r7, [sp, #24]
    GPIO_InitStruct.Alternate = GPIO_AF5_SPI2;
 8004ba0:	f04f 0805 	mov.w	r8, #5
 8004ba4:	f8cd 801c 	str.w	r8, [sp, #28]
    HAL_GPIO_Init(GPIOC, &GPIO_InitStruct);
 8004ba8:	a903      	add	r1, sp, #12
 8004baa:	4648      	mov	r0, r9
 8004bac:	f7fc fe04 	bl	80017b8 <HAL_GPIO_Init>
    GPIO_InitStruct.Pin = GPIO_PIN_13;
 8004bb0:	f44f 5300 	mov.w	r3, #8192	; 0x2000
 8004bb4:	9303      	str	r3, [sp, #12]
    GPIO_InitStruct.Mode = GPIO_MODE_AF_PP;
 8004bb6:	9604      	str	r6, [sp, #16]
    GPIO_InitStruct.Pull = GPIO_NOPULL;
 8004bb8:	9505      	str	r5, [sp, #20]
    GPIO_InitStruct.Speed = GPIO_SPEED_FREQ_VERY_HIGH;
 8004bba:	9706      	str	r7, [sp, #24]
    GPIO_InitStruct.Alternate = GPIO_AF5_SPI2;
 8004bbc:	f8cd 801c 	str.w	r8, [sp, #28]
    HAL_GPIO_Init(GPIOB, &GPIO_InitStruct);
 8004bc0:	a903      	add	r1, sp, #12
 8004bc2:	481f      	ldr	r0, [pc, #124]	; (8004c40 <HAL_SPI_MspInit+0x128>)
 8004bc4:	f7fc fdf8 	bl	80017b8 <HAL_GPIO_Init>
    hdma_spi2_rx.Instance = DMA1_Stream3;
 8004bc8:	481e      	ldr	r0, [pc, #120]	; (8004c44 <HAL_SPI_MspInit+0x12c>)
 8004bca:	4b1f      	ldr	r3, [pc, #124]	; (8004c48 <HAL_SPI_MspInit+0x130>)
 8004bcc:	6003      	str	r3, [r0, #0]
    hdma_spi2_rx.Init.Channel = DMA_CHANNEL_0;
 8004bce:	6045      	str	r5, [r0, #4]
    hdma_spi2_rx.Init.Direction = DMA_PERIPH_TO_MEMORY;
 8004bd0:	6085      	str	r5, [r0, #8]
    hdma_spi2_rx.Init.PeriphInc = DMA_PINC_DISABLE;
 8004bd2:	60c5      	str	r5, [r0, #12]
    hdma_spi2_rx.Init.MemInc = DMA_MINC_ENABLE;
 8004bd4:	f44f 6380 	mov.w	r3, #1024	; 0x400
 8004bd8:	6103      	str	r3, [r0, #16]
    hdma_spi2_rx.Init.PeriphDataAlignment = DMA_PDATAALIGN_BYTE;
 8004bda:	6145      	str	r5, [r0, #20]
    hdma_spi2_rx.Init.MemDataAlignment = DMA_MDATAALIGN_BYTE;
 8004bdc:	6185      	str	r5, [r0, #24]
    hdma_spi2_rx.Init.Mode = DMA_NORMAL;
 8004bde:	61c5      	str	r5, [r0, #28]
    hdma_spi2_rx.Init.Priority = DMA_PRIORITY_LOW;
 8004be0:	6205      	str	r5, [r0, #32]
    hdma_spi2_rx.Init.FIFOMode = DMA_FIFOMODE_DISABLE;
 8004be2:	6245      	str	r5, [r0, #36]	; 0x24
    if (HAL_DMA_Init(&hdma_spi2_rx) != HAL_OK)
 8004be4:	f7fc fc44 	bl	8001470 <HAL_DMA_Init>
 8004be8:	bb08      	cbnz	r0, 8004c2e <HAL_SPI_MspInit+0x116>
    __HAL_LINKDMA(hspi,hdmarx,hdma_spi2_rx);
 8004bea:	4b16      	ldr	r3, [pc, #88]	; (8004c44 <HAL_SPI_MspInit+0x12c>)
 8004bec:	64e3      	str	r3, [r4, #76]	; 0x4c
 8004bee:	639c      	str	r4, [r3, #56]	; 0x38
    hdma_spi2_tx.Instance = DMA1_Stream4;
 8004bf0:	4816      	ldr	r0, [pc, #88]	; (8004c4c <HAL_SPI_MspInit+0x134>)
 8004bf2:	4b17      	ldr	r3, [pc, #92]	; (8004c50 <HAL_SPI_MspInit+0x138>)
 8004bf4:	6003      	str	r3, [r0, #0]
    hdma_spi2_tx.Init.Channel = DMA_CHANNEL_0;
 8004bf6:	2300      	movs	r3, #0
 8004bf8:	6043      	str	r3, [r0, #4]
    hdma_spi2_tx.Init.Direction = DMA_MEMORY_TO_PERIPH;
 8004bfa:	2240      	movs	r2, #64	; 0x40
 8004bfc:	6082      	str	r2, [r0, #8]
    hdma_spi2_tx.Init.PeriphInc = DMA_PINC_DISABLE;
 8004bfe:	60c3      	str	r3, [r0, #12]
    hdma_spi2_tx.Init.MemInc = DMA_MINC_ENABLE;
 8004c00:	f44f 6280 	mov.w	r2, #1024	; 0x400
 8004c04:	6102      	str	r2, [r0, #16]
    hdma_spi2_tx.Init.PeriphDataAlignment = DMA_PDATAALIGN_BYTE;
 8004c06:	6143      	str	r3, [r0, #20]
    hdma_spi2_tx.Init.MemDataAlignment = DMA_MDATAALIGN_BYTE;
 8004c08:	6183      	str	r3, [r0, #24]
    hdma_spi2_tx.Init.Mode = DMA_NORMAL;
 8004c0a:	61c3      	str	r3, [r0, #28]
    hdma_spi2_tx.Init.Priority = DMA_PRIORITY_LOW;
 8004c0c:	6203      	str	r3, [r0, #32]
    hdma_spi2_tx.Init.FIFOMode = DMA_FIFOMODE_DISABLE;
 8004c0e:	6243      	str	r3, [r0, #36]	; 0x24
    if (HAL_DMA_Init(&hdma_spi2_tx) != HAL_OK)
 8004c10:	f7fc fc2e 	bl	8001470 <HAL_DMA_Init>
 8004c14:	b970      	cbnz	r0, 8004c34 <HAL_SPI_MspInit+0x11c>
    __HAL_LINKDMA(hspi,hdmatx,hdma_spi2_tx);
 8004c16:	4b0d      	ldr	r3, [pc, #52]	; (8004c4c <HAL_SPI_MspInit+0x134>)
 8004c18:	64a3      	str	r3, [r4, #72]	; 0x48
 8004c1a:	639c      	str	r4, [r3, #56]	; 0x38
    HAL_NVIC_SetPriority(SPI2_IRQn, 0, 0);
 8004c1c:	2200      	movs	r2, #0
 8004c1e:	4611      	mov	r1, r2
 8004c20:	2024      	movs	r0, #36	; 0x24
 8004c22:	f7fc fb55 	bl	80012d0 <HAL_NVIC_SetPriority>
    HAL_NVIC_EnableIRQ(SPI2_IRQn);
 8004c26:	2024      	movs	r0, #36	; 0x24
 8004c28:	f7fc fb84 	bl	8001334 <HAL_NVIC_EnableIRQ>
}
 8004c2c:	e781      	b.n	8004b32 <HAL_SPI_MspInit+0x1a>
      Error_Handler();
 8004c2e:	f7ff fe13 	bl	8004858 <Error_Handler>
 8004c32:	e7da      	b.n	8004bea <HAL_SPI_MspInit+0xd2>
      Error_Handler();
 8004c34:	f7ff fe10 	bl	8004858 <Error_Handler>
 8004c38:	e7ed      	b.n	8004c16 <HAL_SPI_MspInit+0xfe>
 8004c3a:	bf00      	nop
 8004c3c:	40003800 	.word	0x40003800
 8004c40:	40020400 	.word	0x40020400
 8004c44:	2000083c 	.word	0x2000083c
 8004c48:	40026058 	.word	0x40026058
 8004c4c:	20000a5c 	.word	0x20000a5c
 8004c50:	40026070 	.word	0x40026070
 8004c54:	40020800 	.word	0x40020800

08004c58 <HAL_TIM_PWM_MspInit>:
* This function configures the hardware resources used in this example
* @param htim_pwm: TIM_PWM handle pointer
* @retval None
*/
void HAL_TIM_PWM_MspInit(TIM_HandleTypeDef* htim_pwm)
{
 8004c58:	b500      	push	{lr}
 8004c5a:	b089      	sub	sp, #36	; 0x24

  GPIO_InitTypeDef GPIO_InitStruct = {0};
 8004c5c:	2300      	movs	r3, #0
 8004c5e:	9303      	str	r3, [sp, #12]
 8004c60:	9304      	str	r3, [sp, #16]
 8004c62:	9305      	str	r3, [sp, #20]
 8004c64:	9306      	str	r3, [sp, #24]
 8004c66:	9307      	str	r3, [sp, #28]
  if(htim_pwm->Instance==TIM1)
 8004c68:	6802      	ldr	r2, [r0, #0]
 8004c6a:	4b14      	ldr	r3, [pc, #80]	; (8004cbc <HAL_TIM_PWM_MspInit+0x64>)
 8004c6c:	429a      	cmp	r2, r3
 8004c6e:	d002      	beq.n	8004c76 <HAL_TIM_PWM_MspInit+0x1e>
  /* USER CODE BEGIN TIM1_MspInit 1 */

  /* USER CODE END TIM1_MspInit 1 */
  }

}
 8004c70:	b009      	add	sp, #36	; 0x24
 8004c72:	f85d fb04 	ldr.w	pc, [sp], #4
    __HAL_RCC_TIM1_CLK_ENABLE();
 8004c76:	2100      	movs	r1, #0
 8004c78:	9101      	str	r1, [sp, #4]
 8004c7a:	f503 339c 	add.w	r3, r3, #79872	; 0x13800
 8004c7e:	6c5a      	ldr	r2, [r3, #68]	; 0x44
 8004c80:	f042 0201 	orr.w	r2, r2, #1
 8004c84:	645a      	str	r2, [r3, #68]	; 0x44
 8004c86:	6c5a      	ldr	r2, [r3, #68]	; 0x44
 8004c88:	f002 0201 	and.w	r2, r2, #1
 8004c8c:	9201      	str	r2, [sp, #4]
 8004c8e:	9a01      	ldr	r2, [sp, #4]
    __HAL_RCC_GPIOA_CLK_ENABLE();
 8004c90:	9102      	str	r1, [sp, #8]
 8004c92:	6b1a      	ldr	r2, [r3, #48]	; 0x30
 8004c94:	f042 0201 	orr.w	r2, r2, #1
 8004c98:	631a      	str	r2, [r3, #48]	; 0x30
 8004c9a:	6b1b      	ldr	r3, [r3, #48]	; 0x30
 8004c9c:	f003 0301 	and.w	r3, r3, #1
 8004ca0:	9302      	str	r3, [sp, #8]
 8004ca2:	9b02      	ldr	r3, [sp, #8]
    GPIO_InitStruct.Pin = GPIO_PIN_10|GPIO_PIN_11;
 8004ca4:	f44f 6340 	mov.w	r3, #3072	; 0xc00
 8004ca8:	9303      	str	r3, [sp, #12]
    GPIO_InitStruct.Mode = GPIO_MODE_AF_PP;
 8004caa:	2302      	movs	r3, #2
 8004cac:	9304      	str	r3, [sp, #16]
    GPIO_InitStruct.Alternate = GPIO_AF1_TIM1;
 8004cae:	2301      	movs	r3, #1
 8004cb0:	9307      	str	r3, [sp, #28]
    HAL_GPIO_Init(GPIOA, &GPIO_InitStruct);
 8004cb2:	a903      	add	r1, sp, #12
 8004cb4:	4802      	ldr	r0, [pc, #8]	; (8004cc0 <HAL_TIM_PWM_MspInit+0x68>)
 8004cb6:	f7fc fd7f 	bl	80017b8 <HAL_GPIO_Init>
}
 8004cba:	e7d9      	b.n	8004c70 <HAL_TIM_PWM_MspInit+0x18>
 8004cbc:	40010000 	.word	0x40010000
 8004cc0:	40020000 	.word	0x40020000

08004cc4 <HAL_TIM_Encoder_MspInit>:
* This function configures the hardware resources used in this example
* @param htim_encoder: TIM_Encoder handle pointer
* @retval None
*/
void HAL_TIM_Encoder_MspInit(TIM_HandleTypeDef* htim_encoder)
{
 8004cc4:	b500      	push	{lr}
 8004cc6:	b089      	sub	sp, #36	; 0x24

  GPIO_InitTypeDef GPIO_InitStruct = {0};
 8004cc8:	2300      	movs	r3, #0
 8004cca:	9303      	str	r3, [sp, #12]
 8004ccc:	9304      	str	r3, [sp, #16]
 8004cce:	9305      	str	r3, [sp, #20]
 8004cd0:	9306      	str	r3, [sp, #24]
 8004cd2:	9307      	str	r3, [sp, #28]
  if(htim_encoder->Instance==TIM5)
 8004cd4:	6802      	ldr	r2, [r0, #0]
 8004cd6:	4b13      	ldr	r3, [pc, #76]	; (8004d24 <HAL_TIM_Encoder_MspInit+0x60>)
 8004cd8:	429a      	cmp	r2, r3
 8004cda:	d002      	beq.n	8004ce2 <HAL_TIM_Encoder_MspInit+0x1e>
  /* USER CODE BEGIN TIM5_MspInit 1 */

  /* USER CODE END TIM5_MspInit 1 */
  }

}
 8004cdc:	b009      	add	sp, #36	; 0x24
 8004cde:	f85d fb04 	ldr.w	pc, [sp], #4
    __HAL_RCC_TIM5_CLK_ENABLE();
 8004ce2:	2100      	movs	r1, #0
 8004ce4:	9101      	str	r1, [sp, #4]
 8004ce6:	f503 330b 	add.w	r3, r3, #142336	; 0x22c00
 8004cea:	6c1a      	ldr	r2, [r3, #64]	; 0x40
 8004cec:	f042 0208 	orr.w	r2, r2, #8
 8004cf0:	641a      	str	r2, [r3, #64]	; 0x40
 8004cf2:	6c1a      	ldr	r2, [r3, #64]	; 0x40
 8004cf4:	f002 0208 	and.w	r2, r2, #8
 8004cf8:	9201      	str	r2, [sp, #4]
 8004cfa:	9a01      	ldr	r2, [sp, #4]
    __HAL_RCC_GPIOA_CLK_ENABLE();
 8004cfc:	9102      	str	r1, [sp, #8]
 8004cfe:	6b1a      	ldr	r2, [r3, #48]	; 0x30
 8004d00:	f042 0201 	orr.w	r2, r2, #1
 8004d04:	631a      	str	r2, [r3, #48]	; 0x30
 8004d06:	6b1b      	ldr	r3, [r3, #48]	; 0x30
 8004d08:	f003 0301 	and.w	r3, r3, #1
 8004d0c:	9302      	str	r3, [sp, #8]
 8004d0e:	9b02      	ldr	r3, [sp, #8]
    GPIO_InitStruct.Pin = GPIO_PIN_0|GPIO_PIN_1;
 8004d10:	2303      	movs	r3, #3
 8004d12:	9303      	str	r3, [sp, #12]
    GPIO_InitStruct.Mode = GPIO_MODE_AF_PP;
 8004d14:	2302      	movs	r3, #2
 8004d16:	9304      	str	r3, [sp, #16]
    GPIO_InitStruct.Alternate = GPIO_AF2_TIM5;
 8004d18:	9307      	str	r3, [sp, #28]
    HAL_GPIO_Init(GPIOA, &GPIO_InitStruct);
 8004d1a:	a903      	add	r1, sp, #12
 8004d1c:	4802      	ldr	r0, [pc, #8]	; (8004d28 <HAL_TIM_Encoder_MspInit+0x64>)
 8004d1e:	f7fc fd4b 	bl	80017b8 <HAL_GPIO_Init>
}
 8004d22:	e7db      	b.n	8004cdc <HAL_TIM_Encoder_MspInit+0x18>
 8004d24:	40000c00 	.word	0x40000c00
 8004d28:	40020000 	.word	0x40020000

08004d2c <HAL_TIM_MspPostInit>:

void HAL_TIM_MspPostInit(TIM_HandleTypeDef* htim)
{
 8004d2c:	b500      	push	{lr}
 8004d2e:	b087      	sub	sp, #28

  GPIO_InitTypeDef GPIO_InitStruct = {0};
 8004d30:	2300      	movs	r3, #0
 8004d32:	9301      	str	r3, [sp, #4]
 8004d34:	9302      	str	r3, [sp, #8]
 8004d36:	9303      	str	r3, [sp, #12]
 8004d38:	9304      	str	r3, [sp, #16]
 8004d3a:	9305      	str	r3, [sp, #20]
  if(htim->Instance==TIM1)
 8004d3c:	6802      	ldr	r2, [r0, #0]
 8004d3e:	4b0f      	ldr	r3, [pc, #60]	; (8004d7c <HAL_TIM_MspPostInit+0x50>)
 8004d40:	429a      	cmp	r2, r3
 8004d42:	d002      	beq.n	8004d4a <HAL_TIM_MspPostInit+0x1e>
  /* USER CODE BEGIN TIM1_MspPostInit 1 */

  /* USER CODE END TIM1_MspPostInit 1 */
  }

}
 8004d44:	b007      	add	sp, #28
 8004d46:	f85d fb04 	ldr.w	pc, [sp], #4
    __HAL_RCC_GPIOA_CLK_ENABLE();
 8004d4a:	2300      	movs	r3, #0
 8004d4c:	9300      	str	r3, [sp, #0]
 8004d4e:	4b0c      	ldr	r3, [pc, #48]	; (8004d80 <HAL_TIM_MspPostInit+0x54>)
 8004d50:	6b1a      	ldr	r2, [r3, #48]	; 0x30
 8004d52:	f042 0201 	orr.w	r2, r2, #1
 8004d56:	631a      	str	r2, [r3, #48]	; 0x30
 8004d58:	6b1b      	ldr	r3, [r3, #48]	; 0x30
 8004d5a:	f003 0301 	and.w	r3, r3, #1
 8004d5e:	9300      	str	r3, [sp, #0]
 8004d60:	9b00      	ldr	r3, [sp, #0]
    GPIO_InitStruct.Pin = GPIO_PIN_8|GPIO_PIN_9;
 8004d62:	f44f 7340 	mov.w	r3, #768	; 0x300
 8004d66:	9301      	str	r3, [sp, #4]
    GPIO_InitStruct.Mode = GPIO_MODE_AF_PP;
 8004d68:	2302      	movs	r3, #2
 8004d6a:	9302      	str	r3, [sp, #8]
    GPIO_InitStruct.Alternate = GPIO_AF1_TIM1;
 8004d6c:	2301      	movs	r3, #1
 8004d6e:	9305      	str	r3, [sp, #20]
    HAL_GPIO_Init(GPIOA, &GPIO_InitStruct);
 8004d70:	a901      	add	r1, sp, #4
 8004d72:	4804      	ldr	r0, [pc, #16]	; (8004d84 <HAL_TIM_MspPostInit+0x58>)
 8004d74:	f7fc fd20 	bl	80017b8 <HAL_GPIO_Init>
}
 8004d78:	e7e4      	b.n	8004d44 <HAL_TIM_MspPostInit+0x18>
 8004d7a:	bf00      	nop
 8004d7c:	40010000 	.word	0x40010000
 8004d80:	40023800 	.word	0x40023800
 8004d84:	40020000 	.word	0x40020000

08004d88 <HAL_UART_MspInit>:
* This function configures the hardware resources used in this example
* @param huart: UART handle pointer
* @retval None
*/
void HAL_UART_MspInit(UART_HandleTypeDef* huart)
{
 8004d88:	b500      	push	{lr}
 8004d8a:	b089      	sub	sp, #36	; 0x24

  GPIO_InitTypeDef GPIO_InitStruct = {0};
 8004d8c:	2300      	movs	r3, #0
 8004d8e:	9303      	str	r3, [sp, #12]
 8004d90:	9304      	str	r3, [sp, #16]
 8004d92:	9305      	str	r3, [sp, #20]
 8004d94:	9306      	str	r3, [sp, #24]
 8004d96:	9307      	str	r3, [sp, #28]
  if(huart->Instance==USART2)
 8004d98:	6802      	ldr	r2, [r0, #0]
 8004d9a:	4b16      	ldr	r3, [pc, #88]	; (8004df4 <HAL_UART_MspInit+0x6c>)
 8004d9c:	429a      	cmp	r2, r3
 8004d9e:	d002      	beq.n	8004da6 <HAL_UART_MspInit+0x1e>
  /* USER CODE BEGIN USART2_MspInit 1 */

  /* USER CODE END USART2_MspInit 1 */
  }

}
 8004da0:	b009      	add	sp, #36	; 0x24
 8004da2:	f85d fb04 	ldr.w	pc, [sp], #4
    __HAL_RCC_USART2_CLK_ENABLE();
 8004da6:	2100      	movs	r1, #0
 8004da8:	9101      	str	r1, [sp, #4]
 8004daa:	f503 33fa 	add.w	r3, r3, #128000	; 0x1f400
 8004dae:	6c1a      	ldr	r2, [r3, #64]	; 0x40
 8004db0:	f442 3200 	orr.w	r2, r2, #131072	; 0x20000
 8004db4:	641a      	str	r2, [r3, #64]	; 0x40
 8004db6:	6c1a      	ldr	r2, [r3, #64]	; 0x40
 8004db8:	f402 3200 	and.w	r2, r2, #131072	; 0x20000
 8004dbc:	9201      	str	r2, [sp, #4]
 8004dbe:	9a01      	ldr	r2, [sp, #4]
    __HAL_RCC_GPIOA_CLK_ENABLE();
 8004dc0:	9102      	str	r1, [sp, #8]
 8004dc2:	6b1a      	ldr	r2, [r3, #48]	; 0x30
 8004dc4:	f042 0201 	orr.w	r2, r2, #1
 8004dc8:	631a      	str	r2, [r3, #48]	; 0x30
 8004dca:	6b1b      	ldr	r3, [r3, #48]	; 0x30
 8004dcc:	f003 0301 	and.w	r3, r3, #1
 8004dd0:	9302      	str	r3, [sp, #8]
 8004dd2:	9b02      	ldr	r3, [sp, #8]
    GPIO_InitStruct.Pin = USART_TX_Pin|USART_RX_Pin;
 8004dd4:	230c      	movs	r3, #12
 8004dd6:	9303      	str	r3, [sp, #12]
    GPIO_InitStruct.Mode = GPIO_MODE_AF_PP;
 8004dd8:	2302      	movs	r3, #2
 8004dda:	9304      	str	r3, [sp, #16]
    GPIO_InitStruct.Pull = GPIO_PULLUP;
 8004ddc:	2301      	movs	r3, #1
 8004dde:	9305      	str	r3, [sp, #20]
    GPIO_InitStruct.Speed = GPIO_SPEED_FREQ_VERY_HIGH;
 8004de0:	2303      	movs	r3, #3
 8004de2:	9306      	str	r3, [sp, #24]
    GPIO_InitStruct.Alternate = GPIO_AF7_USART2;
 8004de4:	2307      	movs	r3, #7
 8004de6:	9307      	str	r3, [sp, #28]
    HAL_GPIO_Init(GPIOA, &GPIO_InitStruct);
 8004de8:	a903      	add	r1, sp, #12
 8004dea:	4803      	ldr	r0, [pc, #12]	; (8004df8 <HAL_UART_MspInit+0x70>)
 8004dec:	f7fc fce4 	bl	80017b8 <HAL_GPIO_Init>
}
 8004df0:	e7d6      	b.n	8004da0 <HAL_UART_MspInit+0x18>
 8004df2:	bf00      	nop
 8004df4:	40004400 	.word	0x40004400
 8004df8:	40020000 	.word	0x40020000

08004dfc <NMI_Handler>:
/******************************************************************************/
/**
  * @brief This function handles Non maskable interrupt.
  */
void NMI_Handler(void)
{
 8004dfc:	4770      	bx	lr

08004dfe <HardFault_Handler>:

/**
  * @brief This function handles Hard fault interrupt.
  */
void HardFault_Handler(void)
{
 8004dfe:	e7fe      	b.n	8004dfe <HardFault_Handler>

08004e00 <MemManage_Handler>:

/**
  * @brief This function handles Memory management fault.
  */
void MemManage_Handler(void)
{
 8004e00:	e7fe      	b.n	8004e00 <MemManage_Handler>

08004e02 <BusFault_Handler>:

/**
  * @brief This function handles Pre-fetch fault, memory access fault.
  */
void BusFault_Handler(void)
{
 8004e02:	e7fe      	b.n	8004e02 <BusFault_Handler>

08004e04 <UsageFault_Handler>:

/**
  * @brief This function handles Undefined instruction or illegal state.
  */
void UsageFault_Handler(void)
{
 8004e04:	e7fe      	b.n	8004e04 <UsageFault_Handler>

08004e06 <SVC_Handler>:

/**
  * @brief This function handles System service call via SWI instruction.
  */
void SVC_Handler(void)
{
 8004e06:	4770      	bx	lr

08004e08 <DebugMon_Handler>:

/**
  * @brief This function handles Debug monitor.
  */
void DebugMon_Handler(void)
{
 8004e08:	4770      	bx	lr

08004e0a <PendSV_Handler>:

/**
  * @brief This function handles Pendable request for system service.
  */
void PendSV_Handler(void)
{
 8004e0a:	4770      	bx	lr

08004e0c <SysTick_Handler>:

/**
  * @brief This function handles System tick timer.
  */
void SysTick_Handler(void)
{
 8004e0c:	b508      	push	{r3, lr}
  /* USER CODE BEGIN SysTick_IRQn 0 */

  /* USER CODE END SysTick_IRQn 0 */
  HAL_IncTick();
 8004e0e:	f7fc f8af 	bl	8000f70 <HAL_IncTick>
 8004e12:	bd08      	pop	{r3, pc}

08004e14 <DMA1_Stream0_IRQHandler>:

/**
  * @brief This function handles DMA1 stream0 global interrupt.
  */
void DMA1_Stream0_IRQHandler(void)
{
 8004e14:	b508      	push	{r3, lr}
  /* USER CODE BEGIN DMA1_Stream0_IRQn 0 */

  /* USER CODE END DMA1_Stream0_IRQn 0 */
  HAL_DMA_IRQHandler(&hdma_i2c1_rx);
 8004e16:	4802      	ldr	r0, [pc, #8]	; (8004e20 <DMA1_Stream0_IRQHandler+0xc>)
 8004e18:	f7fc fbe0 	bl	80015dc <HAL_DMA_IRQHandler>
 8004e1c:	bd08      	pop	{r3, pc}
 8004e1e:	bf00      	nop
 8004e20:	200009bc 	.word	0x200009bc

08004e24 <DMA1_Stream3_IRQHandler>:

/**
  * @brief This function handles DMA1 stream3 global interrupt.
  */
void DMA1_Stream3_IRQHandler(void)
{
 8004e24:	b508      	push	{r3, lr}
  /* USER CODE BEGIN DMA1_Stream3_IRQn 0 */

  /* USER CODE END DMA1_Stream3_IRQn 0 */
  HAL_DMA_IRQHandler(&hdma_spi2_rx);
 8004e26:	4802      	ldr	r0, [pc, #8]	; (8004e30 <DMA1_Stream3_IRQHandler+0xc>)
 8004e28:	f7fc fbd8 	bl	80015dc <HAL_DMA_IRQHandler>
 8004e2c:	bd08      	pop	{r3, pc}
 8004e2e:	bf00      	nop
 8004e30:	2000083c 	.word	0x2000083c

08004e34 <DMA1_Stream4_IRQHandler>:

/**
  * @brief This function handles DMA1 stream4 global interrupt.
  */
void DMA1_Stream4_IRQHandler(void)
{
 8004e34:	b508      	push	{r3, lr}
  /* USER CODE BEGIN DMA1_Stream4_IRQn 0 */

  /* USER CODE END DMA1_Stream4_IRQn 0 */
  HAL_DMA_IRQHandler(&hdma_spi2_tx);
 8004e36:	4802      	ldr	r0, [pc, #8]	; (8004e40 <DMA1_Stream4_IRQHandler+0xc>)
 8004e38:	f7fc fbd0 	bl	80015dc <HAL_DMA_IRQHandler>
 8004e3c:	bd08      	pop	{r3, pc}
 8004e3e:	bf00      	nop
 8004e40:	20000a5c 	.word	0x20000a5c

08004e44 <I2C1_EV_IRQHandler>:

/**
  * @brief This function handles I2C1 event interrupt.
  */
void I2C1_EV_IRQHandler(void)
{
 8004e44:	b508      	push	{r3, lr}
  /* USER CODE BEGIN I2C1_EV_IRQn 0 */

  /* USER CODE END I2C1_EV_IRQn 0 */
  HAL_I2C_EV_IRQHandler(&hi2c1);
 8004e46:	4802      	ldr	r0, [pc, #8]	; (8004e50 <I2C1_EV_IRQHandler+0xc>)
 8004e48:	f7fd fb26 	bl	8002498 <HAL_I2C_EV_IRQHandler>
 8004e4c:	bd08      	pop	{r3, pc}
 8004e4e:	bf00      	nop
 8004e50:	20000794 	.word	0x20000794

08004e54 <I2C1_ER_IRQHandler>:

/**
  * @brief This function handles I2C1 error interrupt.
  */
void I2C1_ER_IRQHandler(void)
{
 8004e54:	b508      	push	{r3, lr}
  /* USER CODE BEGIN I2C1_ER_IRQn 0 */

  /* USER CODE END I2C1_ER_IRQn 0 */
  HAL_I2C_ER_IRQHandler(&hi2c1);
 8004e56:	4802      	ldr	r0, [pc, #8]	; (8004e60 <I2C1_ER_IRQHandler+0xc>)
 8004e58:	f7fd fbd2 	bl	8002600 <HAL_I2C_ER_IRQHandler>
 8004e5c:	bd08      	pop	{r3, pc}
 8004e5e:	bf00      	nop
 8004e60:	20000794 	.word	0x20000794

08004e64 <SPI2_IRQHandler>:

/**
  * @brief This function handles SPI2 global interrupt.
  */
void SPI2_IRQHandler(void)
{
 8004e64:	b508      	push	{r3, lr}
  /* USER CODE BEGIN SPI2_IRQn 0 */

  /* USER CODE END SPI2_IRQn 0 */
  HAL_SPI_IRQHandler(&hspi2);
 8004e66:	4802      	ldr	r0, [pc, #8]	; (8004e70 <SPI2_IRQHandler+0xc>)
 8004e68:	f7fe fc0c 	bl	8003684 <HAL_SPI_IRQHandler>
 8004e6c:	bd08      	pop	{r3, pc}
 8004e6e:	bf00      	nop
 8004e70:	200006dc 	.word	0x200006dc

08004e74 <DMA1_Stream7_IRQHandler>:

/**
  * @brief This function handles DMA1 stream7 global interrupt.
  */
void DMA1_Stream7_IRQHandler(void)
{
 8004e74:	b508      	push	{r3, lr}
  /* USER CODE BEGIN DMA1_Stream7_IRQn 0 */

  /* USER CODE END DMA1_Stream7_IRQn 0 */
  HAL_DMA_IRQHandler(&hdma_i2c1_tx);
 8004e76:	4802      	ldr	r0, [pc, #8]	; (8004e80 <DMA1_Stream7_IRQHandler+0xc>)
 8004e78:	f7fc fbb0 	bl	80015dc <HAL_DMA_IRQHandler>
 8004e7c:	bd08      	pop	{r3, pc}
 8004e7e:	bf00      	nop
 8004e80:	20000734 	.word	0x20000734

08004e84 <DMA2_Stream0_IRQHandler>:

/**
  * @brief This function handles DMA2 stream0 global interrupt.
  */
void DMA2_Stream0_IRQHandler(void)
{
 8004e84:	b508      	push	{r3, lr}
  /* USER CODE BEGIN DMA2_Stream0_IRQn 0 */

  /* USER CODE END DMA2_Stream0_IRQn 0 */
  HAL_DMA_IRQHandler(&hdma_adc1);
 8004e86:	4802      	ldr	r0, [pc, #8]	; (8004e90 <DMA2_Stream0_IRQHandler+0xc>)
 8004e88:	f7fc fba8 	bl	80015dc <HAL_DMA_IRQHandler>
 8004e8c:	bd08      	pop	{r3, pc}
 8004e8e:	bf00      	nop
 8004e90:	20000920 	.word	0x20000920

08004e94 <SystemInit>:
  */
void SystemInit(void)
{
  /* FPU settings ------------------------------------------------------------*/
  #if (__FPU_PRESENT == 1) && (__FPU_USED == 1)
    SCB->CPACR |= ((3UL << 10*2)|(3UL << 11*2));  /* set CP10 and CP11 Full Access */
 8004e94:	490f      	ldr	r1, [pc, #60]	; (8004ed4 <SystemInit+0x40>)
 8004e96:	f8d1 3088 	ldr.w	r3, [r1, #136]	; 0x88
 8004e9a:	f443 0370 	orr.w	r3, r3, #15728640	; 0xf00000
 8004e9e:	f8c1 3088 	str.w	r3, [r1, #136]	; 0x88
  #endif
  /* Reset the RCC clock configuration to the default reset state ------------*/
  /* Set HSION bit */
  RCC->CR |= (uint32_t)0x00000001;
 8004ea2:	4b0d      	ldr	r3, [pc, #52]	; (8004ed8 <SystemInit+0x44>)
 8004ea4:	681a      	ldr	r2, [r3, #0]
 8004ea6:	f042 0201 	orr.w	r2, r2, #1
 8004eaa:	601a      	str	r2, [r3, #0]

  /* Reset CFGR register */
  RCC->CFGR = 0x00000000;
 8004eac:	2000      	movs	r0, #0
 8004eae:	6098      	str	r0, [r3, #8]

  /* Reset HSEON, CSSON and PLLON bits */
  RCC->CR &= (uint32_t)0xFEF6FFFF;
 8004eb0:	681a      	ldr	r2, [r3, #0]
 8004eb2:	f022 7284 	bic.w	r2, r2, #17301504	; 0x1080000
 8004eb6:	f422 3280 	bic.w	r2, r2, #65536	; 0x10000
 8004eba:	601a      	str	r2, [r3, #0]

  /* Reset PLLCFGR register */
  RCC->PLLCFGR = 0x24003010;
 8004ebc:	4a07      	ldr	r2, [pc, #28]	; (8004edc <SystemInit+0x48>)
 8004ebe:	605a      	str	r2, [r3, #4]

  /* Reset HSEBYP bit */
  RCC->CR &= (uint32_t)0xFFFBFFFF;
 8004ec0:	681a      	ldr	r2, [r3, #0]
 8004ec2:	f422 2280 	bic.w	r2, r2, #262144	; 0x40000
 8004ec6:	601a      	str	r2, [r3, #0]

  /* Disable all interrupts */
  RCC->CIR = 0x00000000;
 8004ec8:	60d8      	str	r0, [r3, #12]

  /* Configure the Vector Table location add offset address ------------------*/
#ifdef VECT_TAB_SRAM
  SCB->VTOR = SRAM_BASE | VECT_TAB_OFFSET; /* Vector Table Relocation in Internal SRAM */
#else
  SCB->VTOR = FLASH_BASE | VECT_TAB_OFFSET; /* Vector Table Relocation in Internal FLASH */
 8004eca:	f04f 6300 	mov.w	r3, #134217728	; 0x8000000
 8004ece:	608b      	str	r3, [r1, #8]
 8004ed0:	4770      	bx	lr
 8004ed2:	bf00      	nop
 8004ed4:	e000ed00 	.word	0xe000ed00
 8004ed8:	40023800 	.word	0x40023800
 8004edc:	24003010 	.word	0x24003010

08004ee0 <Exception_Handler>:

void testI2c(void) {
	testTwoNucleoBoardComm();
}

void Exception_Handler(const char* str) {
 8004ee0:	b508      	push	{r3, lr}
	printf_u("\r%s\r\n",str);
 8004ee2:	4601      	mov	r1, r0
 8004ee4:	4801      	ldr	r0, [pc, #4]	; (8004eec <Exception_Handler+0xc>)
 8004ee6:	f000 fadb 	bl	80054a0 <printf_u>
 8004eea:	bd08      	pop	{r3, pc}
 8004eec:	08008398 	.word	0x08008398

08004ef0 <setup>:
#define Master_Board    //code to be downloaded to the Master board
//#define Slave_Board     //code to be downloaded the Slave  board



static void setup(void) {
 8004ef0:	b508      	push	{r3, lr}
	newMainUSART(&huart2);
 8004ef2:	4810      	ldr	r0, [pc, #64]	; (8004f34 <setup+0x44>)
 8004ef4:	f000 fa94 	bl	8005420 <newMainUSART>
	spiBus = newSPI(&spiBusMem ,&hspi2);
 8004ef8:	490f      	ldr	r1, [pc, #60]	; (8004f38 <setup+0x48>)
 8004efa:	4810      	ldr	r0, [pc, #64]	; (8004f3c <setup+0x4c>)
 8004efc:	f000 f97c 	bl	80051f8 <newSPI>
 8004f00:	4b0f      	ldr	r3, [pc, #60]	; (8004f40 <setup+0x50>)
 8004f02:	6018      	str	r0, [r3, #0]
	led = newGPIO(&ledMem, LD2_GPIO_Port, LD2_Pin);
 8004f04:	2220      	movs	r2, #32
 8004f06:	490f      	ldr	r1, [pc, #60]	; (8004f44 <setup+0x54>)
 8004f08:	480f      	ldr	r0, [pc, #60]	; (8004f48 <setup+0x58>)
 8004f0a:	f000 f8e6 	bl	80050da <newGPIO>
 8004f0e:	4b0f      	ldr	r3, [pc, #60]	; (8004f4c <setup+0x5c>)
 8004f10:	6018      	str	r0, [r3, #0]
	button = newGPIO(&buttonMem, B1_GPIO_Port, B1_Pin);
 8004f12:	f44f 5200 	mov.w	r2, #8192	; 0x2000
 8004f16:	490e      	ldr	r1, [pc, #56]	; (8004f50 <setup+0x60>)
 8004f18:	480e      	ldr	r0, [pc, #56]	; (8004f54 <setup+0x64>)
 8004f1a:	f000 f8de 	bl	80050da <newGPIO>
 8004f1e:	4b0e      	ldr	r3, [pc, #56]	; (8004f58 <setup+0x68>)
 8004f20:	6018      	str	r0, [r3, #0]
	spi_cs = newGPIO(&spi_csMem, SPI2_SoftCS_GPIO_Port, SPI2_SoftCS_Pin);
 8004f22:	f44f 5280 	mov.w	r2, #4096	; 0x1000
 8004f26:	490d      	ldr	r1, [pc, #52]	; (8004f5c <setup+0x6c>)
 8004f28:	480d      	ldr	r0, [pc, #52]	; (8004f60 <setup+0x70>)
 8004f2a:	f000 f8d6 	bl	80050da <newGPIO>
 8004f2e:	4b0d      	ldr	r3, [pc, #52]	; (8004f64 <setup+0x74>)
 8004f30:	6018      	str	r0, [r3, #0]
 8004f32:	bd08      	pop	{r3, pc}
 8004f34:	20000a1c 	.word	0x20000a1c
 8004f38:	200006dc 	.word	0x200006dc
 8004f3c:	20000bbc 	.word	0x20000bbc
 8004f40:	20000c9c 	.word	0x20000c9c
 8004f44:	40020000 	.word	0x40020000
 8004f48:	20000abc 	.word	0x20000abc
 8004f4c:	20000ba8 	.word	0x20000ba8
 8004f50:	40020800 	.word	0x40020800
 8004f54:	20000bb0 	.word	0x20000bb0
 8004f58:	20000ac8 	.word	0x20000ac8
 8004f5c:	40020400 	.word	0x40020400
 8004f60:	20000c94 	.word	0x20000c94
 8004f64:	20000bb8 	.word	0x20000bb8

08004f68 <testByteWiseReadWrite>:

#endif
}

//Test with a Logic Analyzer
static void testByteWiseReadWrite(void) {
 8004f68:	e92d 43f8 	stmdb	sp!, {r3, r4, r5, r6, r7, r8, r9, lr}
	setup();
 8004f6c:	f7ff ffc0 	bl	8004ef0 <setup>
	uint8_t regAddrA = 0x1A;
	uint8_t regAddrB = 0x1B;
	uint8_t byteA = 0x0A;
	uint8_t byteB = 0x0B;

	gpioWrite(led, High);
 8004f70:	2101      	movs	r1, #1
 8004f72:	4b49      	ldr	r3, [pc, #292]	; (8005098 <testByteWiseReadWrite+0x130>)
 8004f74:	6818      	ldr	r0, [r3, #0]
 8004f76:	f000 f8cb 	bl	8005110 <gpioWrite>
	while(gpioRead(button));
 8004f7a:	4b48      	ldr	r3, [pc, #288]	; (800509c <testByteWiseReadWrite+0x134>)
 8004f7c:	6818      	ldr	r0, [r3, #0]
 8004f7e:	f000 f8af 	bl	80050e0 <gpioRead>
 8004f82:	2800      	cmp	r0, #0
 8004f84:	d1f9      	bne.n	8004f7a <testByteWiseReadWrite+0x12>
	gpioWrite(led, Low);
 8004f86:	2100      	movs	r1, #0
 8004f88:	4b43      	ldr	r3, [pc, #268]	; (8005098 <testByteWiseReadWrite+0x130>)
 8004f8a:	6818      	ldr	r0, [r3, #0]
 8004f8c:	f000 f8c0 	bl	8005110 <gpioWrite>

	printf_u("\r==============================================================\r\n");
 8004f90:	4d43      	ldr	r5, [pc, #268]	; (80050a0 <testByteWiseReadWrite+0x138>)
 8004f92:	4628      	mov	r0, r5
 8004f94:	f000 fa84 	bl	80054a0 <printf_u>
	uint8_t egWriteByte = 0xAE; //0xAE 1010,1110
	uint8_t egReadByte = 0x2F;  //0x2F 0010,1111
	printf_u("\rExample Write Byte: %#02x\r\n", egWriteByte);
 8004f98:	21ae      	movs	r1, #174	; 0xae
 8004f9a:	4842      	ldr	r0, [pc, #264]	; (80050a4 <testByteWiseReadWrite+0x13c>)
 8004f9c:	f000 fa80 	bl	80054a0 <printf_u>
	printf_u("\r>>> Is this incoming byte by master/mcu requesting a WRITE operation to a slave/device? T/F\r\n");
 8004fa0:	f8df 9128 	ldr.w	r9, [pc, #296]	; 80050cc <testByteWiseReadWrite+0x164>
 8004fa4:	4648      	mov	r0, r9
 8004fa6:	f000 fa7b 	bl	80054a0 <printf_u>
	printf_u("\r%s\r\n", SPI_isRequestingWrite(egWriteByte)?"True":"False");
 8004faa:	4e3f      	ldr	r6, [pc, #252]	; (80050a8 <testByteWiseReadWrite+0x140>)
 8004fac:	4c3f      	ldr	r4, [pc, #252]	; (80050ac <testByteWiseReadWrite+0x144>)
 8004fae:	4631      	mov	r1, r6
 8004fb0:	4620      	mov	r0, r4
 8004fb2:	f000 fa75 	bl	80054a0 <printf_u>
	printf_u("\r>>> Is this incoming byte by master/mcu requesting a READ  operation to a slave/device? T/F\r\n");
 8004fb6:	4f3e      	ldr	r7, [pc, #248]	; (80050b0 <testByteWiseReadWrite+0x148>)
 8004fb8:	4638      	mov	r0, r7
 8004fba:	f000 fa71 	bl	80054a0 <printf_u>
	printf_u("\r%s\r\n", SPI_isRequestingRead(egWriteByte)?"True":"False");
 8004fbe:	f8df 8110 	ldr.w	r8, [pc, #272]	; 80050d0 <testByteWiseReadWrite+0x168>
 8004fc2:	4641      	mov	r1, r8
 8004fc4:	4620      	mov	r0, r4
 8004fc6:	f000 fa6b 	bl	80054a0 <printf_u>
	printf_u("\r\nExtract RegAddress from Example Byte: %#02x\r\n\n", SPI_getRegAddr(egWriteByte));
 8004fca:	212e      	movs	r1, #46	; 0x2e
 8004fcc:	4839      	ldr	r0, [pc, #228]	; (80050b4 <testByteWiseReadWrite+0x14c>)
 8004fce:	f000 fa67 	bl	80054a0 <printf_u>
	printf_u("\r---------------------------------\r\n\n");
 8004fd2:	4839      	ldr	r0, [pc, #228]	; (80050b8 <testByteWiseReadWrite+0x150>)
 8004fd4:	f000 fa64 	bl	80054a0 <printf_u>
	printf_u("\rExample Read Byte: %#02x\r\n", egReadByte);
 8004fd8:	212f      	movs	r1, #47	; 0x2f
 8004fda:	4838      	ldr	r0, [pc, #224]	; (80050bc <testByteWiseReadWrite+0x154>)
 8004fdc:	f000 fa60 	bl	80054a0 <printf_u>
	printf_u("\r>>> Is this incoming byte by master/mcu requesting a WRITE operation to a slave/device? T/F\r\n");
 8004fe0:	4648      	mov	r0, r9
 8004fe2:	f000 fa5d 	bl	80054a0 <printf_u>
	printf_u("\r%s\r\n", SPI_isRequestingWrite(egReadByte)?"True":"False");
 8004fe6:	4641      	mov	r1, r8
 8004fe8:	4620      	mov	r0, r4
 8004fea:	f000 fa59 	bl	80054a0 <printf_u>
	printf_u("\r>>> Is this incoming byte by master/mcu requesting a READ  operation to a slave/device? T/F\r\n");
 8004fee:	4638      	mov	r0, r7
 8004ff0:	f000 fa56 	bl	80054a0 <printf_u>
	printf_u("\r%s\r\n", SPI_isRequestingRead(egReadByte)?"True":"False");
 8004ff4:	4631      	mov	r1, r6
 8004ff6:	4620      	mov	r0, r4
 8004ff8:	f000 fa52 	bl	80054a0 <printf_u>
	printf_u("\r\nExtract RegAddress from Example Byte: %#02x\r\n", SPI_getRegAddr(egReadByte));
 8004ffc:	212f      	movs	r1, #47	; 0x2f
 8004ffe:	4830      	ldr	r0, [pc, #192]	; (80050c0 <testByteWiseReadWrite+0x158>)
 8005000:	f000 fa4e 	bl	80054a0 <printf_u>
	printf_u("\r==============================================================\r\n");
 8005004:	4628      	mov	r0, r5
 8005006:	f000 fa4b 	bl	80054a0 <printf_u>
	while(1) {
		spiBeginDevice(spi_cs);
 800500a:	4b2e      	ldr	r3, [pc, #184]	; (80050c4 <testByteWiseReadWrite+0x15c>)
 800500c:	6818      	ldr	r0, [r3, #0]
 800500e:	f000 f91b 	bl	8005248 <spiBeginDevice>

		spiReadWriteByte(spiBus, SPI_WriteMode(regAddrA));
 8005012:	4c2d      	ldr	r4, [pc, #180]	; (80050c8 <testByteWiseReadWrite+0x160>)
 8005014:	219a      	movs	r1, #154	; 0x9a
 8005016:	6820      	ldr	r0, [r4, #0]
 8005018:	f000 f920 	bl	800525c <spiReadWriteByte>
		spiReadWriteByte(spiBus, byteA);
 800501c:	210a      	movs	r1, #10
 800501e:	6820      	ldr	r0, [r4, #0]
 8005020:	f000 f91c 	bl	800525c <spiReadWriteByte>

		spiReadWriteByte(spiBus, SPI_ReadMode(regAddrB));
 8005024:	211b      	movs	r1, #27
 8005026:	6820      	ldr	r0, [r4, #0]
 8005028:	f000 f918 	bl	800525c <spiReadWriteByte>
		spiReadWriteByte(spiBus, byteB);
 800502c:	210b      	movs	r1, #11
 800502e:	6820      	ldr	r0, [r4, #0]
 8005030:	f000 f914 	bl	800525c <spiReadWriteByte>

		spiReadWriteByte_IT(spiBus, SPI_WriteMode(regAddrA));
 8005034:	219a      	movs	r1, #154	; 0x9a
 8005036:	6820      	ldr	r0, [r4, #0]
 8005038:	f000 f94c 	bl	80052d4 <spiReadWriteByte_IT>
		while(spiBus->Status != Completed);
 800503c:	4b22      	ldr	r3, [pc, #136]	; (80050c8 <testByteWiseReadWrite+0x160>)
 800503e:	6818      	ldr	r0, [r3, #0]
 8005040:	f890 30d4 	ldrb.w	r3, [r0, #212]	; 0xd4
 8005044:	b2db      	uxtb	r3, r3
 8005046:	2b03      	cmp	r3, #3
 8005048:	d1f8      	bne.n	800503c <testByteWiseReadWrite+0xd4>
		spiReadWriteByte_IT(spiBus, byteA);
 800504a:	210a      	movs	r1, #10
 800504c:	f000 f942 	bl	80052d4 <spiReadWriteByte_IT>
		while(spiBus->Status != Completed);
 8005050:	4b1d      	ldr	r3, [pc, #116]	; (80050c8 <testByteWiseReadWrite+0x160>)
 8005052:	6818      	ldr	r0, [r3, #0]
 8005054:	f890 30d4 	ldrb.w	r3, [r0, #212]	; 0xd4
 8005058:	b2db      	uxtb	r3, r3
 800505a:	2b03      	cmp	r3, #3
 800505c:	d1f8      	bne.n	8005050 <testByteWiseReadWrite+0xe8>

		spiReadWriteByte_DMA(spiBus, SPI_ReadMode(regAddrB));
 800505e:	211b      	movs	r1, #27
 8005060:	f000 f95e 	bl	8005320 <spiReadWriteByte_DMA>
		while(spiBus->Status != Completed);
 8005064:	4b18      	ldr	r3, [pc, #96]	; (80050c8 <testByteWiseReadWrite+0x160>)
 8005066:	6818      	ldr	r0, [r3, #0]
 8005068:	f890 30d4 	ldrb.w	r3, [r0, #212]	; 0xd4
 800506c:	b2db      	uxtb	r3, r3
 800506e:	2b03      	cmp	r3, #3
 8005070:	d1f8      	bne.n	8005064 <testByteWiseReadWrite+0xfc>
		spiReadWriteByte_DMA(spiBus, byteB);
 8005072:	210b      	movs	r1, #11
 8005074:	f000 f954 	bl	8005320 <spiReadWriteByte_DMA>
		while(spiBus->Status != Completed);
 8005078:	4b13      	ldr	r3, [pc, #76]	; (80050c8 <testByteWiseReadWrite+0x160>)
 800507a:	681b      	ldr	r3, [r3, #0]
 800507c:	f893 30d4 	ldrb.w	r3, [r3, #212]	; 0xd4
 8005080:	b2db      	uxtb	r3, r3
 8005082:	2b03      	cmp	r3, #3
 8005084:	d1f8      	bne.n	8005078 <testByteWiseReadWrite+0x110>

		spiEndDevice(spi_cs);
 8005086:	4b0f      	ldr	r3, [pc, #60]	; (80050c4 <testByteWiseReadWrite+0x15c>)
 8005088:	6818      	ldr	r0, [r3, #0]
 800508a:	f000 f8e2 	bl	8005252 <spiEndDevice>

		delay(10); //10 ms
 800508e:	200a      	movs	r0, #10
 8005090:	f000 f98c 	bl	80053ac <delay>
		spiBeginDevice(spi_cs);
 8005094:	e7b9      	b.n	800500a <testByteWiseReadWrite+0xa2>
 8005096:	bf00      	nop
 8005098:	20000ba8 	.word	0x20000ba8
 800509c:	20000ac8 	.word	0x20000ac8
 80050a0:	080083a0 	.word	0x080083a0
 80050a4:	080083e4 	.word	0x080083e4
 80050a8:	08008464 	.word	0x08008464
 80050ac:	08008398 	.word	0x08008398
 80050b0:	0800846c 	.word	0x0800846c
 80050b4:	080084d4 	.word	0x080084d4
 80050b8:	08008508 	.word	0x08008508
 80050bc:	08008530 	.word	0x08008530
 80050c0:	0800854c 	.word	0x0800854c
 80050c4:	20000bb8 	.word	0x20000bb8
 80050c8:	20000c9c 	.word	0x20000c9c
 80050cc:	08008404 	.word	0x08008404
 80050d0:	080084cc 	.word	0x080084cc

080050d4 <testSpi>:
	}
}

void testSpi(void) {
 80050d4:	b508      	push	{r3, lr}
	testByteWiseReadWrite();
 80050d6:	f7ff ff47 	bl	8004f68 <testByteWiseReadWrite>

080050da <newGPIO>:



/*========================SETUP AND DATA STRUCTURE========================*/
GPIO *newGPIO(GPIO* obj, GPIO_TypeDef* GPIOx, uint16_t GPIO_Pin) {
	obj->GPIO_Pin = GPIO_Pin;
 80050da:	8082      	strh	r2, [r0, #4]
	obj->GPIOx = GPIOx;
 80050dc:	6001      	str	r1, [r0, #0]
	return obj;
}
 80050de:	4770      	bx	lr

080050e0 <gpioRead>:
/*========================General GPIO Methods================================*/
void gpioWrite(GPIO* obj, uint8_t Bit) {
	if(Bit == High) turnOn(obj);
	else turnOff(obj);
}
uint8_t gpioRead(GPIO* obj) {
 80050e0:	b508      	push	{r3, lr}
	return HAL_GPIO_ReadPin(obj->GPIOx, obj->GPIO_Pin) == GPIO_PIN_SET?High:Low;
 80050e2:	8881      	ldrh	r1, [r0, #4]
 80050e4:	6800      	ldr	r0, [r0, #0]
 80050e6:	f7fc fc49 	bl	800197c <HAL_GPIO_ReadPin>
}
 80050ea:	2801      	cmp	r0, #1
 80050ec:	bf14      	ite	ne
 80050ee:	2000      	movne	r0, #0
 80050f0:	2001      	moveq	r0, #1
 80050f2:	bd08      	pop	{r3, pc}

080050f4 <turnOn>:
/*=============================================================================*/


/*========================Convenience Purposed Methods========================*/
void turnOn(GPIO* obj) {
 80050f4:	b508      	push	{r3, lr}
	HAL_GPIO_WritePin(obj->GPIOx, obj->GPIO_Pin, GPIO_PIN_SET);
 80050f6:	2201      	movs	r2, #1
 80050f8:	8881      	ldrh	r1, [r0, #4]
 80050fa:	6800      	ldr	r0, [r0, #0]
 80050fc:	f7fc fc45 	bl	800198a <HAL_GPIO_WritePin>
 8005100:	bd08      	pop	{r3, pc}

08005102 <turnOff>:
}

void turnOff(GPIO* obj) {
 8005102:	b508      	push	{r3, lr}
	HAL_GPIO_WritePin(obj->GPIOx, obj->GPIO_Pin, GPIO_PIN_RESET);
 8005104:	2200      	movs	r2, #0
 8005106:	8881      	ldrh	r1, [r0, #4]
 8005108:	6800      	ldr	r0, [r0, #0]
 800510a:	f7fc fc3e 	bl	800198a <HAL_GPIO_WritePin>
 800510e:	bd08      	pop	{r3, pc}

08005110 <gpioWrite>:
void gpioWrite(GPIO* obj, uint8_t Bit) {
 8005110:	b508      	push	{r3, lr}
	if(Bit == High) turnOn(obj);
 8005112:	2901      	cmp	r1, #1
 8005114:	d002      	beq.n	800511c <gpioWrite+0xc>
	else turnOff(obj);
 8005116:	f7ff fff4 	bl	8005102 <turnOff>
 800511a:	bd08      	pop	{r3, pc}
	if(Bit == High) turnOn(obj);
 800511c:	f7ff ffea 	bl	80050f4 <turnOn>
 8005120:	bd08      	pop	{r3, pc}

08005122 <i2cTC_IT_CallBack>:
}
/*=========================================================================*/


/*==============================Interrupt Handler===============================*/
__weak void i2cTC_IT_CallBack(I2C* instance){
 8005122:	4770      	bx	lr

08005124 <HAL_I2C_MasterTxCpltCallback>:
void HAL_I2C_MasterTxCpltCallback(I2C_HandleTypeDef *hi2c) {
 8005124:	b538      	push	{r3, r4, r5, lr}
 8005126:	4605      	mov	r5, r0
	for(int i = 0; i < numActiveI2Cs; i++) {
 8005128:	2400      	movs	r4, #0
 800512a:	e000      	b.n	800512e <HAL_I2C_MasterTxCpltCallback+0xa>
 800512c:	3401      	adds	r4, #1
 800512e:	4b08      	ldr	r3, [pc, #32]	; (8005150 <HAL_I2C_MasterTxCpltCallback+0x2c>)
 8005130:	881b      	ldrh	r3, [r3, #0]
 8005132:	429c      	cmp	r4, r3
 8005134:	da0b      	bge.n	800514e <HAL_I2C_MasterTxCpltCallback+0x2a>
		if(ActiveI2Cs[i]->hi2c == hi2c) {
 8005136:	4b07      	ldr	r3, [pc, #28]	; (8005154 <HAL_I2C_MasterTxCpltCallback+0x30>)
 8005138:	f853 0024 	ldr.w	r0, [r3, r4, lsl #2]
 800513c:	6803      	ldr	r3, [r0, #0]
 800513e:	42ab      	cmp	r3, r5
 8005140:	d1f4      	bne.n	800512c <HAL_I2C_MasterTxCpltCallback+0x8>
			ActiveI2Cs[i]->TxStatus = Completed;
 8005142:	2303      	movs	r3, #3
 8005144:	f880 30d8 	strb.w	r3, [r0, #216]	; 0xd8
			i2cTC_IT_CallBack(ActiveI2Cs[i]);
 8005148:	f7ff ffeb 	bl	8005122 <i2cTC_IT_CallBack>
 800514c:	e7ee      	b.n	800512c <HAL_I2C_MasterTxCpltCallback+0x8>
}
 800514e:	bd38      	pop	{r3, r4, r5, pc}
 8005150:	20000698 	.word	0x20000698
 8005154:	20000ca0 	.word	0x20000ca0

08005158 <HAL_I2C_SlaveTxCpltCallback>:
void HAL_I2C_SlaveTxCpltCallback(I2C_HandleTypeDef *hi2c) {
 8005158:	b538      	push	{r3, r4, r5, lr}
 800515a:	4605      	mov	r5, r0
	for(int i = 0; i < numActiveI2Cs; i++) {
 800515c:	2400      	movs	r4, #0
 800515e:	e000      	b.n	8005162 <HAL_I2C_SlaveTxCpltCallback+0xa>
 8005160:	3401      	adds	r4, #1
 8005162:	4b08      	ldr	r3, [pc, #32]	; (8005184 <HAL_I2C_SlaveTxCpltCallback+0x2c>)
 8005164:	881b      	ldrh	r3, [r3, #0]
 8005166:	429c      	cmp	r4, r3
 8005168:	da0b      	bge.n	8005182 <HAL_I2C_SlaveTxCpltCallback+0x2a>
		if(ActiveI2Cs[i]->hi2c == hi2c) {
 800516a:	4b07      	ldr	r3, [pc, #28]	; (8005188 <HAL_I2C_SlaveTxCpltCallback+0x30>)
 800516c:	f853 0024 	ldr.w	r0, [r3, r4, lsl #2]
 8005170:	6803      	ldr	r3, [r0, #0]
 8005172:	42ab      	cmp	r3, r5
 8005174:	d1f4      	bne.n	8005160 <HAL_I2C_SlaveTxCpltCallback+0x8>
			ActiveI2Cs[i]->TxStatus = Completed;
 8005176:	2303      	movs	r3, #3
 8005178:	f880 30d8 	strb.w	r3, [r0, #216]	; 0xd8
			i2cTC_IT_CallBack(ActiveI2Cs[i]);
 800517c:	f7ff ffd1 	bl	8005122 <i2cTC_IT_CallBack>
 8005180:	e7ee      	b.n	8005160 <HAL_I2C_SlaveTxCpltCallback+0x8>
}
 8005182:	bd38      	pop	{r3, r4, r5, pc}
 8005184:	20000698 	.word	0x20000698
 8005188:	20000ca0 	.word	0x20000ca0

0800518c <i2cRC_IT_CallBack>:
	 UNUSED(instance);
}

__weak void i2cRC_IT_CallBack(I2C* instance){
 800518c:	4770      	bx	lr
	...

08005190 <HAL_I2C_MasterRxCpltCallback>:
void HAL_I2C_MasterRxCpltCallback(I2C_HandleTypeDef *hi2c) {
 8005190:	b538      	push	{r3, r4, r5, lr}
 8005192:	4605      	mov	r5, r0
	for(int i = 0; i < numActiveI2Cs; i++) {
 8005194:	2400      	movs	r4, #0
 8005196:	e000      	b.n	800519a <HAL_I2C_MasterRxCpltCallback+0xa>
 8005198:	3401      	adds	r4, #1
 800519a:	4b08      	ldr	r3, [pc, #32]	; (80051bc <HAL_I2C_MasterRxCpltCallback+0x2c>)
 800519c:	881b      	ldrh	r3, [r3, #0]
 800519e:	429c      	cmp	r4, r3
 80051a0:	da0b      	bge.n	80051ba <HAL_I2C_MasterRxCpltCallback+0x2a>
		if(ActiveI2Cs[i]->hi2c == hi2c) {
 80051a2:	4b07      	ldr	r3, [pc, #28]	; (80051c0 <HAL_I2C_MasterRxCpltCallback+0x30>)
 80051a4:	f853 0024 	ldr.w	r0, [r3, r4, lsl #2]
 80051a8:	6803      	ldr	r3, [r0, #0]
 80051aa:	42ab      	cmp	r3, r5
 80051ac:	d1f4      	bne.n	8005198 <HAL_I2C_MasterRxCpltCallback+0x8>
			ActiveI2Cs[i]->RxStatus = Completed;
 80051ae:	2303      	movs	r3, #3
 80051b0:	f880 30d9 	strb.w	r3, [r0, #217]	; 0xd9
			i2cRC_IT_CallBack(ActiveI2Cs[i]);
 80051b4:	f7ff ffea 	bl	800518c <i2cRC_IT_CallBack>
 80051b8:	e7ee      	b.n	8005198 <HAL_I2C_MasterRxCpltCallback+0x8>
}
 80051ba:	bd38      	pop	{r3, r4, r5, pc}
 80051bc:	20000698 	.word	0x20000698
 80051c0:	20000ca0 	.word	0x20000ca0

080051c4 <HAL_I2C_SlaveRxCpltCallback>:
void HAL_I2C_SlaveRxCpltCallback(I2C_HandleTypeDef *hi2c) {
 80051c4:	b538      	push	{r3, r4, r5, lr}
 80051c6:	4605      	mov	r5, r0
	for(int i = 0; i < numActiveI2Cs; i++) {
 80051c8:	2400      	movs	r4, #0
 80051ca:	e000      	b.n	80051ce <HAL_I2C_SlaveRxCpltCallback+0xa>
 80051cc:	3401      	adds	r4, #1
 80051ce:	4b08      	ldr	r3, [pc, #32]	; (80051f0 <HAL_I2C_SlaveRxCpltCallback+0x2c>)
 80051d0:	881b      	ldrh	r3, [r3, #0]
 80051d2:	429c      	cmp	r4, r3
 80051d4:	da0b      	bge.n	80051ee <HAL_I2C_SlaveRxCpltCallback+0x2a>
		if(ActiveI2Cs[i]->hi2c == hi2c) {
 80051d6:	4b07      	ldr	r3, [pc, #28]	; (80051f4 <HAL_I2C_SlaveRxCpltCallback+0x30>)
 80051d8:	f853 0024 	ldr.w	r0, [r3, r4, lsl #2]
 80051dc:	6803      	ldr	r3, [r0, #0]
 80051de:	42ab      	cmp	r3, r5
 80051e0:	d1f4      	bne.n	80051cc <HAL_I2C_SlaveRxCpltCallback+0x8>
			ActiveI2Cs[i]->RxStatus = Completed;
 80051e2:	2303      	movs	r3, #3
 80051e4:	f880 30d9 	strb.w	r3, [r0, #217]	; 0xd9
			i2cRC_IT_CallBack(ActiveI2Cs[i]);
 80051e8:	f7ff ffd0 	bl	800518c <i2cRC_IT_CallBack>
 80051ec:	e7ee      	b.n	80051cc <HAL_I2C_SlaveRxCpltCallback+0x8>
}
 80051ee:	bd38      	pop	{r3, r4, r5, pc}
 80051f0:	20000698 	.word	0x20000698
 80051f4:	20000ca0 	.word	0x20000ca0

080051f8 <newSPI>:


/*==============================instantiation===============================*/
/* Pseudo-Constructor
 * */
SPI *newSPI(SPI* instance, SPI_HandleTypeDef *hspi) {
 80051f8:	b410      	push	{r4}
	instance->hspi = hspi;
 80051fa:	6001      	str	r1, [r0, #0]
	instance->TxRxTimeOut = SPI_Default_TimeOut;
 80051fc:	f64f 73ff 	movw	r3, #65535	; 0xffff
 8005200:	f8c0 30d0 	str.w	r3, [r0, #208]	; 0xd0
	instance->Status = Ready;
 8005204:	2301      	movs	r3, #1
 8005206:	f880 30d4 	strb.w	r3, [r0, #212]	; 0xd4
	for(int i = 0; i < numActiveSPIs; i++)
 800520a:	2300      	movs	r3, #0
 800520c:	4a0c      	ldr	r2, [pc, #48]	; (8005240 <newSPI+0x48>)
 800520e:	8812      	ldrh	r2, [r2, #0]
 8005210:	4614      	mov	r4, r2
 8005212:	4293      	cmp	r3, r2
 8005214:	da0b      	bge.n	800522e <newSPI+0x36>
		if(ActiveSPIs[i]->hspi == hspi) {
 8005216:	4a0b      	ldr	r2, [pc, #44]	; (8005244 <newSPI+0x4c>)
 8005218:	f852 2023 	ldr.w	r2, [r2, r3, lsl #2]
 800521c:	6812      	ldr	r2, [r2, #0]
 800521e:	4291      	cmp	r1, r2
 8005220:	d001      	beq.n	8005226 <newSPI+0x2e>
	for(int i = 0; i < numActiveSPIs; i++)
 8005222:	3301      	adds	r3, #1
 8005224:	e7f2      	b.n	800520c <newSPI+0x14>
			ActiveSPIs[i] = instance;
 8005226:	4a07      	ldr	r2, [pc, #28]	; (8005244 <newSPI+0x4c>)
 8005228:	f842 0023 	str.w	r0, [r2, r3, lsl #2]
			return instance;
 800522c:	e005      	b.n	800523a <newSPI+0x42>
		}
	ActiveSPIs[numActiveSPIs++] = instance;
 800522e:	3201      	adds	r2, #1
 8005230:	4b03      	ldr	r3, [pc, #12]	; (8005240 <newSPI+0x48>)
 8005232:	801a      	strh	r2, [r3, #0]
 8005234:	4b03      	ldr	r3, [pc, #12]	; (8005244 <newSPI+0x4c>)
 8005236:	f843 0024 	str.w	r0, [r3, r4, lsl #2]
	return instance;
}
 800523a:	f85d 4b04 	ldr.w	r4, [sp], #4
 800523e:	4770      	bx	lr
 8005240:	2000069a 	.word	0x2000069a
 8005244:	20000cc8 	.word	0x20000cc8

08005248 <spiBeginDevice>:
/*==============================Chip Select================================*/
/*For a SPI bus shared by multiple devices,
 *BeginDevice/EndDevice functions enable/disable
 *the particular chip_select pin wired to
 *each of the devices. Only one device can be enabled at one times*/
void spiBeginDevice(GPIO* chip_select) {
 8005248:	b508      	push	{r3, lr}
	gpioWrite(chip_select, Low);  //Pull CS low to enable device
 800524a:	2100      	movs	r1, #0
 800524c:	f7ff ff60 	bl	8005110 <gpioWrite>
 8005250:	bd08      	pop	{r3, pc}

08005252 <spiEndDevice>:
}
void spiEndDevice(GPIO* chip_select) {
 8005252:	b508      	push	{r3, lr}
	gpioWrite(chip_select, High); //Pull CS High to disable device for another device
 8005254:	2101      	movs	r1, #1
 8005256:	f7ff ff5b 	bl	8005110 <gpioWrite>
 800525a:	bd08      	pop	{r3, pc}

0800525c <spiReadWriteByte>:
	}
	else if(Status == HAL_OK) instance->Status = Completed;
	return instance->RxBuffer;
}

uint8_t* spiReadWriteByte(SPI* instance, uint8_t byte) {
 800525c:	b530      	push	{r4, r5, lr}
 800525e:	b083      	sub	sp, #12
 8005260:	4604      	mov	r4, r0
	HAL_StatusTypeDef Status;
	instance->TxByte = byte;
 8005262:	f880 10cc 	strb.w	r1, [r0, #204]	; 0xcc
	Status = HAL_SPI_TransmitReceive(instance->hspi,
 8005266:	4601      	mov	r1, r0
 8005268:	f851 0bcc 	ldr.w	r0, [r1], #204
 800526c:	f104 05cd 	add.w	r5, r4, #205	; 0xcd
 8005270:	f8d4 30d0 	ldr.w	r3, [r4, #208]	; 0xd0
 8005274:	9300      	str	r3, [sp, #0]
 8005276:	2301      	movs	r3, #1
 8005278:	462a      	mov	r2, r5
 800527a:	f7fd fead 	bl	8002fd8 <HAL_SPI_TransmitReceive>
									&instance->TxByte,
									&instance->RxByte,
									1, instance->TxRxTimeOut);
	if(Status == HAL_BUSY) instance->Status = InProcess;
 800527e:	2802      	cmp	r0, #2
 8005280:	d00a      	beq.n	8005298 <spiReadWriteByte+0x3c>
	else if(Status == HAL_TIMEOUT) {
 8005282:	2803      	cmp	r0, #3
 8005284:	d00c      	beq.n	80052a0 <spiReadWriteByte+0x44>
		__HAL_UNLOCK(instance->hspi);
		instance->hspi->State = HAL_SPI_STATE_READY;

		throwException("THL_SPI.c: spiReadWriteByte() | TimeOut");
	}
	else if(Status == HAL_ERROR) {
 8005286:	2801      	cmp	r0, #1
 8005288:	d019      	beq.n	80052be <spiReadWriteByte+0x62>
		instance->Status = Error;
		throwException("THL_SPI.c: spiReadWriteByte() | Error");
	}
	else if(Status == HAL_OK) instance->Status = Completed;
 800528a:	b910      	cbnz	r0, 8005292 <spiReadWriteByte+0x36>
 800528c:	2303      	movs	r3, #3
 800528e:	f884 30d4 	strb.w	r3, [r4, #212]	; 0xd4
	return &instance->RxByte;
}
 8005292:	4628      	mov	r0, r5
 8005294:	b003      	add	sp, #12
 8005296:	bd30      	pop	{r4, r5, pc}
	if(Status == HAL_BUSY) instance->Status = InProcess;
 8005298:	2302      	movs	r3, #2
 800529a:	f884 30d4 	strb.w	r3, [r4, #212]	; 0xd4
 800529e:	e7f8      	b.n	8005292 <spiReadWriteByte+0x36>
		instance->Status = TimeOut;
 80052a0:	2304      	movs	r3, #4
 80052a2:	f884 30d4 	strb.w	r3, [r4, #212]	; 0xd4
		__HAL_UNLOCK(instance->hspi);
 80052a6:	6823      	ldr	r3, [r4, #0]
 80052a8:	2200      	movs	r2, #0
 80052aa:	f883 2050 	strb.w	r2, [r3, #80]	; 0x50
		instance->hspi->State = HAL_SPI_STATE_READY;
 80052ae:	6823      	ldr	r3, [r4, #0]
 80052b0:	2201      	movs	r2, #1
 80052b2:	f883 2051 	strb.w	r2, [r3, #81]	; 0x51
		throwException("THL_SPI.c: spiReadWriteByte() | TimeOut");
 80052b6:	4805      	ldr	r0, [pc, #20]	; (80052cc <spiReadWriteByte+0x70>)
 80052b8:	f000 f908 	bl	80054cc <throwException>
 80052bc:	e7e9      	b.n	8005292 <spiReadWriteByte+0x36>
		instance->Status = Error;
 80052be:	2305      	movs	r3, #5
 80052c0:	f884 30d4 	strb.w	r3, [r4, #212]	; 0xd4
		throwException("THL_SPI.c: spiReadWriteByte() | Error");
 80052c4:	4802      	ldr	r0, [pc, #8]	; (80052d0 <spiReadWriteByte+0x74>)
 80052c6:	f000 f901 	bl	80054cc <throwException>
 80052ca:	e7e2      	b.n	8005292 <spiReadWriteByte+0x36>
 80052cc:	0800857c 	.word	0x0800857c
 80052d0:	080085a4 	.word	0x080085a4

080052d4 <spiReadWriteByte_IT>:
		return instance->RxBuffer;
	}
	instance->Status = InProcess;
	return instance->RxBuffer;
}
uint8_t* spiReadWriteByte_IT(SPI* instance, uint8_t byte) {
 80052d4:	b538      	push	{r3, r4, r5, lr}
	//check if the previous reception is completed
	if(instance->Status == InProcess) return &instance->RxByte;
 80052d6:	f890 30d4 	ldrb.w	r3, [r0, #212]	; 0xd4
 80052da:	b2db      	uxtb	r3, r3
 80052dc:	2b02      	cmp	r3, #2
 80052de:	d012      	beq.n	8005306 <spiReadWriteByte_IT+0x32>
 80052e0:	4604      	mov	r4, r0
	HAL_StatusTypeDef Status;
	instance->TxByte = byte;
 80052e2:	f880 10cc 	strb.w	r1, [r0, #204]	; 0xcc
	Status = HAL_SPI_TransmitReceive_IT(instance->hspi, &instance->TxByte, &instance->RxByte, 1);
 80052e6:	4601      	mov	r1, r0
 80052e8:	f851 0bcc 	ldr.w	r0, [r1], #204
 80052ec:	f104 05cd 	add.w	r5, r4, #205	; 0xcd
 80052f0:	2301      	movs	r3, #1
 80052f2:	462a      	mov	r2, r5
 80052f4:	f7fd ff92 	bl	800321c <HAL_SPI_TransmitReceive_IT>
	if(Status == HAL_ERROR) {
 80052f8:	2801      	cmp	r0, #1
 80052fa:	d007      	beq.n	800530c <spiReadWriteByte_IT+0x38>
		instance->Status = Error;
		throwException("SPI.c: spiReadWriteByte_IT() | Error");
		return &instance->RxByte;
	}
	instance->Status = InProcess;
 80052fc:	2302      	movs	r3, #2
 80052fe:	f884 30d4 	strb.w	r3, [r4, #212]	; 0xd4
	return &instance->RxByte;
}
 8005302:	4628      	mov	r0, r5
 8005304:	bd38      	pop	{r3, r4, r5, pc}
	if(instance->Status == InProcess) return &instance->RxByte;
 8005306:	f100 05cd 	add.w	r5, r0, #205	; 0xcd
 800530a:	e7fa      	b.n	8005302 <spiReadWriteByte_IT+0x2e>
		instance->Status = Error;
 800530c:	2305      	movs	r3, #5
 800530e:	f884 30d4 	strb.w	r3, [r4, #212]	; 0xd4
		throwException("SPI.c: spiReadWriteByte_IT() | Error");
 8005312:	4802      	ldr	r0, [pc, #8]	; (800531c <spiReadWriteByte_IT+0x48>)
 8005314:	f000 f8da 	bl	80054cc <throwException>
		return &instance->RxByte;
 8005318:	e7f3      	b.n	8005302 <spiReadWriteByte_IT+0x2e>
 800531a:	bf00      	nop
 800531c:	080085f4 	.word	0x080085f4

08005320 <spiReadWriteByte_DMA>:
	}
	instance->Status = InProcess;
	return instance->RxBuffer;
}

uint8_t* spiReadWriteByte_DMA(SPI* instance, uint8_t byte) {
 8005320:	b538      	push	{r3, r4, r5, lr}
	//check if the previous reception is completed
	if(instance->Status == InProcess) return &instance->RxByte;
 8005322:	f890 30d4 	ldrb.w	r3, [r0, #212]	; 0xd4
 8005326:	b2db      	uxtb	r3, r3
 8005328:	2b02      	cmp	r3, #2
 800532a:	d012      	beq.n	8005352 <spiReadWriteByte_DMA+0x32>
 800532c:	4604      	mov	r4, r0
	HAL_StatusTypeDef Status;
	instance->TxByte = byte;
 800532e:	f880 10cc 	strb.w	r1, [r0, #204]	; 0xcc
	Status = HAL_SPI_TransmitReceive_DMA(instance->hspi, &instance->TxByte, &instance->RxByte, 1);
 8005332:	4601      	mov	r1, r0
 8005334:	f851 0bcc 	ldr.w	r0, [r1], #204
 8005338:	f104 05cd 	add.w	r5, r4, #205	; 0xcd
 800533c:	2301      	movs	r3, #1
 800533e:	462a      	mov	r2, r5
 8005340:	f7fd ffd2 	bl	80032e8 <HAL_SPI_TransmitReceive_DMA>
	if(Status == HAL_ERROR) {
 8005344:	2801      	cmp	r0, #1
 8005346:	d007      	beq.n	8005358 <spiReadWriteByte_DMA+0x38>
		instance->Status = Error;
		throwException("SPI.c: spiReadWriteByte_DMA() | Error");
		return &instance->RxByte;
	}
	instance->Status = InProcess;
 8005348:	2302      	movs	r3, #2
 800534a:	f884 30d4 	strb.w	r3, [r4, #212]	; 0xd4
	return &instance->RxByte;
}
 800534e:	4628      	mov	r0, r5
 8005350:	bd38      	pop	{r3, r4, r5, pc}
	if(instance->Status == InProcess) return &instance->RxByte;
 8005352:	f100 05cd 	add.w	r5, r0, #205	; 0xcd
 8005356:	e7fa      	b.n	800534e <spiReadWriteByte_DMA+0x2e>
		instance->Status = Error;
 8005358:	2305      	movs	r3, #5
 800535a:	f884 30d4 	strb.w	r3, [r4, #212]	; 0xd4
		throwException("SPI.c: spiReadWriteByte_DMA() | Error");
 800535e:	4802      	ldr	r0, [pc, #8]	; (8005368 <spiReadWriteByte_DMA+0x48>)
 8005360:	f000 f8b4 	bl	80054cc <throwException>
		return &instance->RxByte;
 8005364:	e7f3      	b.n	800534e <spiReadWriteByte_DMA+0x2e>
 8005366:	bf00      	nop
 8005368:	080085cc 	.word	0x080085cc

0800536c <spiTRC_IT_CallBack>:
/*=========================================================================*/



/*==============================Interrupt Handler===============================*/
__weak void spiTRC_IT_CallBack(SPI* instance) {
 800536c:	4770      	bx	lr
	...

08005370 <HAL_SPI_TxRxCpltCallback>:
void HAL_SPI_TxRxCpltCallback(SPI_HandleTypeDef *hspi) {
 8005370:	b538      	push	{r3, r4, r5, lr}
 8005372:	4605      	mov	r5, r0
	for(int i = 0; i < numActiveSPIs; i++) {
 8005374:	2400      	movs	r4, #0
 8005376:	e000      	b.n	800537a <HAL_SPI_TxRxCpltCallback+0xa>
 8005378:	3401      	adds	r4, #1
 800537a:	4b08      	ldr	r3, [pc, #32]	; (800539c <HAL_SPI_TxRxCpltCallback+0x2c>)
 800537c:	881b      	ldrh	r3, [r3, #0]
 800537e:	429c      	cmp	r4, r3
 8005380:	da0b      	bge.n	800539a <HAL_SPI_TxRxCpltCallback+0x2a>
		if(ActiveSPIs[i]->hspi == hspi) {
 8005382:	4b07      	ldr	r3, [pc, #28]	; (80053a0 <HAL_SPI_TxRxCpltCallback+0x30>)
 8005384:	f853 0024 	ldr.w	r0, [r3, r4, lsl #2]
 8005388:	6803      	ldr	r3, [r0, #0]
 800538a:	42ab      	cmp	r3, r5
 800538c:	d1f4      	bne.n	8005378 <HAL_SPI_TxRxCpltCallback+0x8>
			ActiveSPIs[i]->Status = Completed;
 800538e:	2303      	movs	r3, #3
 8005390:	f880 30d4 	strb.w	r3, [r0, #212]	; 0xd4
			spiTRC_IT_CallBack(ActiveSPIs[i]);
 8005394:	f7ff ffea 	bl	800536c <spiTRC_IT_CallBack>
 8005398:	e7ee      	b.n	8005378 <HAL_SPI_TxRxCpltCallback+0x8>
}
 800539a:	bd38      	pop	{r3, r4, r5, pc}
 800539c:	2000069a 	.word	0x2000069a
 80053a0:	20000cc8 	.word	0x20000cc8

080053a4 <millis>:
void delay(uint32_t Time) {
		uint32_t T_init = millis();
		while(millis() - T_init < Time);
}*/
#else
__weak uint32_t millis(void) {
 80053a4:	b508      	push	{r3, lr}
		return HAL_GetTick();
 80053a6:	f7fb fdef 	bl	8000f88 <HAL_GetTick>
}
 80053aa:	bd08      	pop	{r3, pc}

080053ac <delay>:
}
void delay_us(uint32_t Time) {
		uint32_t T_init = micros(); 
		while(micros() - T_init < Time); 
}
void delay(uint32_t Time) {
 80053ac:	b538      	push	{r3, r4, r5, lr}
 80053ae:	4605      	mov	r5, r0
		uint32_t T_init = millis(); 
 80053b0:	f7ff fff8 	bl	80053a4 <millis>
 80053b4:	4604      	mov	r4, r0
		while(millis() - T_init < Time); 
 80053b6:	f7ff fff5 	bl	80053a4 <millis>
 80053ba:	1b00      	subs	r0, r0, r4
 80053bc:	42a8      	cmp	r0, r5
 80053be:	d3fa      	bcc.n	80053b6 <delay+0xa>
}
 80053c0:	bd38      	pop	{r3, r4, r5, pc}
	...

080053c4 <newUSART>:
  *The actual initiation of the usart circuit takes place by HAL 
  *before THL_Main.c gets called by main.c
  *Treated it as Pseudo-Constructor
  *Note: no memory allocation occurs
  */
USART *newUSART(USART* instance, UART_HandleTypeDef *huart) {
 80053c4:	b410      	push	{r4}
	instance->huart = huart;
 80053c6:	6001      	str	r1, [r0, #0]
	instance->TxTimeOut = USART_Default_TxTimeOut;
 80053c8:	f64f 73ff 	movw	r3, #65535	; 0xffff
 80053cc:	f8c0 30cc 	str.w	r3, [r0, #204]	; 0xcc
	instance->RxTimeOut = USART_Default_RxTimeOut;
 80053d0:	f04f 33ff 	mov.w	r3, #4294967295
 80053d4:	f8c0 30d0 	str.w	r3, [r0, #208]	; 0xd0
	instance->TxStatus = Ready;
 80053d8:	2301      	movs	r3, #1
 80053da:	f880 30d4 	strb.w	r3, [r0, #212]	; 0xd4
	instance->RxStatus = Ready;
 80053de:	f880 30d5 	strb.w	r3, [r0, #213]	; 0xd5
	for(int i = 0; i < numActiveUSARTs; i++) 
 80053e2:	2300      	movs	r3, #0
 80053e4:	4a0c      	ldr	r2, [pc, #48]	; (8005418 <newUSART+0x54>)
 80053e6:	8812      	ldrh	r2, [r2, #0]
 80053e8:	4614      	mov	r4, r2
 80053ea:	4293      	cmp	r3, r2
 80053ec:	da0b      	bge.n	8005406 <newUSART+0x42>
		if(ActiveUSARTs[i]->huart == huart) {
 80053ee:	4a0b      	ldr	r2, [pc, #44]	; (800541c <newUSART+0x58>)
 80053f0:	f852 2023 	ldr.w	r2, [r2, r3, lsl #2]
 80053f4:	6812      	ldr	r2, [r2, #0]
 80053f6:	4291      	cmp	r1, r2
 80053f8:	d001      	beq.n	80053fe <newUSART+0x3a>
	for(int i = 0; i < numActiveUSARTs; i++) 
 80053fa:	3301      	adds	r3, #1
 80053fc:	e7f2      	b.n	80053e4 <newUSART+0x20>
			ActiveUSARTs[i] = instance;
 80053fe:	4a07      	ldr	r2, [pc, #28]	; (800541c <newUSART+0x58>)
 8005400:	f842 0023 	str.w	r0, [r2, r3, lsl #2]
			return instance;
 8005404:	e005      	b.n	8005412 <newUSART+0x4e>
		}
	ActiveUSARTs[numActiveUSARTs++] = instance;
 8005406:	3201      	adds	r2, #1
 8005408:	4b03      	ldr	r3, [pc, #12]	; (8005418 <newUSART+0x54>)
 800540a:	801a      	strh	r2, [r3, #0]
 800540c:	4b03      	ldr	r3, [pc, #12]	; (800541c <newUSART+0x58>)
 800540e:	f843 0024 	str.w	r0, [r3, r4, lsl #2]
	return instance;
}
 8005412:	f85d 4b04 	ldr.w	r4, [sp], #4
 8005416:	4770      	bx	lr
 8005418:	2000069c 	.word	0x2000069c
 800541c:	20000dc8 	.word	0x20000dc8

08005420 <newMainUSART>:

/**Pseudo-Constructor for Default/Main USART
  *It sets the usart
  */
USART *newMainUSART(UART_HandleTypeDef *huart) { 
 8005420:	b508      	push	{r3, lr}
	return newUSART(&DefaultUSART, huart);
 8005422:	4601      	mov	r1, r0
 8005424:	4801      	ldr	r0, [pc, #4]	; (800542c <newMainUSART+0xc>)
 8005426:	f7ff ffcd 	bl	80053c4 <newUSART>
}
 800542a:	bd08      	pop	{r3, pc}
 800542c:	20000cf0 	.word	0x20000cf0

08005430 <usartWrite>:
/*=========================================================================*/



/*==============================Transmission===============================*/
void usartWrite(USART* instance) {
 8005430:	b570      	push	{r4, r5, r6, lr}
 8005432:	4605      	mov	r5, r0
	HAL_StatusTypeDef Status;
	Status = HAL_UART_Transmit(instance->huart, (uint8_t*)instance->TxBuffer, strlen(instance->TxBuffer), instance->TxTimeOut);
 8005434:	4604      	mov	r4, r0
 8005436:	f854 6b04 	ldr.w	r6, [r4], #4
 800543a:	4620      	mov	r0, r4
 800543c:	f7fa fee8 	bl	8000210 <strlen>
 8005440:	f8d5 30cc 	ldr.w	r3, [r5, #204]	; 0xcc
 8005444:	b282      	uxth	r2, r0
 8005446:	4621      	mov	r1, r4
 8005448:	4630      	mov	r0, r6
 800544a:	f7fe ff44 	bl	80042d6 <HAL_UART_Transmit>
	if(Status == HAL_BUSY) instance->TxStatus = InProcess;
 800544e:	2802      	cmp	r0, #2
 8005450:	d008      	beq.n	8005464 <usartWrite+0x34>
	else if(Status == HAL_TIMEOUT) {
 8005452:	2803      	cmp	r0, #3
 8005454:	d00a      	beq.n	800546c <usartWrite+0x3c>
		__HAL_UNLOCK(instance->huart);
		instance->huart->gState = HAL_UART_STATE_READY;
		
		throwException("THL_Usart.c: usartWrite() | TimeOut");
	}
	else if(Status == HAL_ERROR) {
 8005456:	2801      	cmp	r0, #1
 8005458:	d017      	beq.n	800548a <usartWrite+0x5a>
		instance->TxStatus = Error;
		throwException("THL_Usart.c: usartWrite() | Error");
	}
	else if(Status == HAL_OK) instance->TxStatus = Completed;
 800545a:	b910      	cbnz	r0, 8005462 <usartWrite+0x32>
 800545c:	2303      	movs	r3, #3
 800545e:	f885 30d4 	strb.w	r3, [r5, #212]	; 0xd4
 8005462:	bd70      	pop	{r4, r5, r6, pc}
	if(Status == HAL_BUSY) instance->TxStatus = InProcess;
 8005464:	2302      	movs	r3, #2
 8005466:	f885 30d4 	strb.w	r3, [r5, #212]	; 0xd4
 800546a:	bd70      	pop	{r4, r5, r6, pc}
		instance->TxStatus = TimeOut;
 800546c:	2304      	movs	r3, #4
 800546e:	f885 30d4 	strb.w	r3, [r5, #212]	; 0xd4
		__HAL_UNLOCK(instance->huart);
 8005472:	682b      	ldr	r3, [r5, #0]
 8005474:	2200      	movs	r2, #0
 8005476:	f883 2038 	strb.w	r2, [r3, #56]	; 0x38
		instance->huart->gState = HAL_UART_STATE_READY;
 800547a:	682b      	ldr	r3, [r5, #0]
 800547c:	2220      	movs	r2, #32
 800547e:	f883 2039 	strb.w	r2, [r3, #57]	; 0x39
		throwException("THL_Usart.c: usartWrite() | TimeOut");
 8005482:	4805      	ldr	r0, [pc, #20]	; (8005498 <usartWrite+0x68>)
 8005484:	f000 f822 	bl	80054cc <throwException>
 8005488:	bd70      	pop	{r4, r5, r6, pc}
		instance->TxStatus = Error;
 800548a:	2305      	movs	r3, #5
 800548c:	f885 30d4 	strb.w	r3, [r5, #212]	; 0xd4
		throwException("THL_Usart.c: usartWrite() | Error");
 8005490:	4802      	ldr	r0, [pc, #8]	; (800549c <usartWrite+0x6c>)
 8005492:	f000 f81b 	bl	80054cc <throwException>
 8005496:	bd70      	pop	{r4, r5, r6, pc}
 8005498:	0800861c 	.word	0x0800861c
 800549c:	08008640 	.word	0x08008640

080054a0 <printf_u>:

void print(USART* instance, Format_Param) {
	formatStrings(instance->TxBuffer);
	usartWrite(instance);
}
void printf_u(Format_Param) {
 80054a0:	b40f      	push	{r0, r1, r2, r3}
 80054a2:	b510      	push	{r4, lr}
 80054a4:	b082      	sub	sp, #8
 80054a6:	aa04      	add	r2, sp, #16
 80054a8:	f852 1b04 	ldr.w	r1, [r2], #4
	formatStrings(DefaultUSART.TxBuffer);
 80054ac:	9201      	str	r2, [sp, #4]
 80054ae:	4c06      	ldr	r4, [pc, #24]	; (80054c8 <printf_u+0x28>)
 80054b0:	4620      	mov	r0, r4
 80054b2:	f000 f889 	bl	80055c8 <vsprintf>
	usartWrite(&DefaultUSART);
 80054b6:	1f20      	subs	r0, r4, #4
 80054b8:	f7ff ffba 	bl	8005430 <usartWrite>
}
 80054bc:	b002      	add	sp, #8
 80054be:	e8bd 4010 	ldmia.w	sp!, {r4, lr}
 80054c2:	b004      	add	sp, #16
 80054c4:	4770      	bx	lr
 80054c6:	bf00      	nop
 80054c8:	20000cf4 	.word	0x20000cf4

080054cc <throwException>:

/*==========================Exception Handling==============================*/
__weak void Exception_Handler(const char* str) {
	UNUSED(str);
}
void throwException(const char* str) {
 80054cc:	b508      	push	{r3, lr}
	Exception_Handler(str);
 80054ce:	f7ff fd07 	bl	8004ee0 <Exception_Handler>
 80054d2:	bd08      	pop	{r3, pc}

080054d4 <Reset_Handler>:

    .section  .text.Reset_Handler
  .weak  Reset_Handler
  .type  Reset_Handler, %function
Reset_Handler:  
  ldr   sp, =_estack      /* set stack pointer */
 80054d4:	f8df d034 	ldr.w	sp, [pc, #52]	; 800550c <LoopFillZerobss+0x14>

/* Copy the data segment initializers from flash to SRAM */  
  movs  r1, #0
 80054d8:	2100      	movs	r1, #0
  b  LoopCopyDataInit
 80054da:	e003      	b.n	80054e4 <LoopCopyDataInit>

080054dc <CopyDataInit>:

CopyDataInit:
  ldr  r3, =_sidata
 80054dc:	4b0c      	ldr	r3, [pc, #48]	; (8005510 <LoopFillZerobss+0x18>)
  ldr  r3, [r3, r1]
 80054de:	585b      	ldr	r3, [r3, r1]
  str  r3, [r0, r1]
 80054e0:	5043      	str	r3, [r0, r1]
  adds  r1, r1, #4
 80054e2:	3104      	adds	r1, #4

080054e4 <LoopCopyDataInit>:
    
LoopCopyDataInit:
  ldr  r0, =_sdata
 80054e4:	480b      	ldr	r0, [pc, #44]	; (8005514 <LoopFillZerobss+0x1c>)
  ldr  r3, =_edata
 80054e6:	4b0c      	ldr	r3, [pc, #48]	; (8005518 <LoopFillZerobss+0x20>)
  adds  r2, r0, r1
 80054e8:	1842      	adds	r2, r0, r1
  cmp  r2, r3
 80054ea:	429a      	cmp	r2, r3
  bcc  CopyDataInit
 80054ec:	d3f6      	bcc.n	80054dc <CopyDataInit>
  ldr  r2, =_sbss
 80054ee:	4a0b      	ldr	r2, [pc, #44]	; (800551c <LoopFillZerobss+0x24>)
  b  LoopFillZerobss
 80054f0:	e002      	b.n	80054f8 <LoopFillZerobss>

080054f2 <FillZerobss>:
/* Zero fill the bss segment. */  
FillZerobss:
  movs  r3, #0
 80054f2:	2300      	movs	r3, #0
  str  r3, [r2], #4
 80054f4:	f842 3b04 	str.w	r3, [r2], #4

080054f8 <LoopFillZerobss>:
    
LoopFillZerobss:
  ldr  r3, = _ebss
 80054f8:	4b09      	ldr	r3, [pc, #36]	; (8005520 <LoopFillZerobss+0x28>)
  cmp  r2, r3
 80054fa:	429a      	cmp	r2, r3
  bcc  FillZerobss
 80054fc:	d3f9      	bcc.n	80054f2 <FillZerobss>

/* Call the clock system intitialization function.*/
  bl  SystemInit   
 80054fe:	f7ff fcc9 	bl	8004e94 <SystemInit>
/* Call static constructors */
    bl __libc_init_array
 8005502:	f000 f811 	bl	8005528 <__libc_init_array>
/* Call the application's entry point.*/
  bl  main
 8005506:	f7ff f98d 	bl	8004824 <main>
  bx  lr    
 800550a:	4770      	bx	lr
  ldr   sp, =_estack      /* set stack pointer */
 800550c:	20020000 	.word	0x20020000
  ldr  r3, =_sidata
 8005510:	08008940 	.word	0x08008940
  ldr  r0, =_sdata
 8005514:	20000000 	.word	0x20000000
  ldr  r3, =_edata
 8005518:	2000067c 	.word	0x2000067c
  ldr  r2, =_sbss
 800551c:	2000067c 	.word	0x2000067c
  ldr  r3, = _ebss
 8005520:	20000e28 	.word	0x20000e28

08005524 <ADC_IRQHandler>:
 * @retval None       
*/
    .section  .text.Default_Handler,"ax",%progbits
Default_Handler:
Infinite_Loop:
  b  Infinite_Loop
 8005524:	e7fe      	b.n	8005524 <ADC_IRQHandler>
	...

08005528 <__libc_init_array>:
 8005528:	b570      	push	{r4, r5, r6, lr}
 800552a:	4e0d      	ldr	r6, [pc, #52]	; (8005560 <__libc_init_array+0x38>)
 800552c:	4c0d      	ldr	r4, [pc, #52]	; (8005564 <__libc_init_array+0x3c>)
 800552e:	1ba4      	subs	r4, r4, r6
 8005530:	10a4      	asrs	r4, r4, #2
 8005532:	2500      	movs	r5, #0
 8005534:	42a5      	cmp	r5, r4
 8005536:	d109      	bne.n	800554c <__libc_init_array+0x24>
 8005538:	4e0b      	ldr	r6, [pc, #44]	; (8005568 <__libc_init_array+0x40>)
 800553a:	4c0c      	ldr	r4, [pc, #48]	; (800556c <__libc_init_array+0x44>)
 800553c:	f002 ff10 	bl	8008360 <_init>
 8005540:	1ba4      	subs	r4, r4, r6
 8005542:	10a4      	asrs	r4, r4, #2
 8005544:	2500      	movs	r5, #0
 8005546:	42a5      	cmp	r5, r4
 8005548:	d105      	bne.n	8005556 <__libc_init_array+0x2e>
 800554a:	bd70      	pop	{r4, r5, r6, pc}
 800554c:	f856 3025 	ldr.w	r3, [r6, r5, lsl #2]
 8005550:	4798      	blx	r3
 8005552:	3501      	adds	r5, #1
 8005554:	e7ee      	b.n	8005534 <__libc_init_array+0xc>
 8005556:	f856 3025 	ldr.w	r3, [r6, r5, lsl #2]
 800555a:	4798      	blx	r3
 800555c:	3501      	adds	r5, #1
 800555e:	e7f2      	b.n	8005546 <__libc_init_array+0x1e>
 8005560:	08008938 	.word	0x08008938
 8005564:	08008938 	.word	0x08008938
 8005568:	08008938 	.word	0x08008938
 800556c:	0800893c 	.word	0x0800893c

08005570 <memcpy>:
 8005570:	b510      	push	{r4, lr}
 8005572:	1e43      	subs	r3, r0, #1
 8005574:	440a      	add	r2, r1
 8005576:	4291      	cmp	r1, r2
 8005578:	d100      	bne.n	800557c <memcpy+0xc>
 800557a:	bd10      	pop	{r4, pc}
 800557c:	f811 4b01 	ldrb.w	r4, [r1], #1
 8005580:	f803 4f01 	strb.w	r4, [r3, #1]!
 8005584:	e7f7      	b.n	8005576 <memcpy+0x6>

08005586 <memset>:
 8005586:	4402      	add	r2, r0
 8005588:	4603      	mov	r3, r0
 800558a:	4293      	cmp	r3, r2
 800558c:	d100      	bne.n	8005590 <memset+0xa>
 800558e:	4770      	bx	lr
 8005590:	f803 1b01 	strb.w	r1, [r3], #1
 8005594:	e7f9      	b.n	800558a <memset+0x4>

08005596 <_vsprintf_r>:
 8005596:	b510      	push	{r4, lr}
 8005598:	b09a      	sub	sp, #104	; 0x68
 800559a:	f44f 7402 	mov.w	r4, #520	; 0x208
 800559e:	9100      	str	r1, [sp, #0]
 80055a0:	9104      	str	r1, [sp, #16]
 80055a2:	f06f 4100 	mvn.w	r1, #2147483648	; 0x80000000
 80055a6:	9102      	str	r1, [sp, #8]
 80055a8:	9105      	str	r1, [sp, #20]
 80055aa:	f64f 71ff 	movw	r1, #65535	; 0xffff
 80055ae:	f8ad 100e 	strh.w	r1, [sp, #14]
 80055b2:	4669      	mov	r1, sp
 80055b4:	f8ad 400c 	strh.w	r4, [sp, #12]
 80055b8:	f000 f812 	bl	80055e0 <_svfprintf_r>
 80055bc:	9b00      	ldr	r3, [sp, #0]
 80055be:	2200      	movs	r2, #0
 80055c0:	701a      	strb	r2, [r3, #0]
 80055c2:	b01a      	add	sp, #104	; 0x68
 80055c4:	bd10      	pop	{r4, pc}
	...

080055c8 <vsprintf>:
 80055c8:	4613      	mov	r3, r2
 80055ca:	460a      	mov	r2, r1
 80055cc:	4601      	mov	r1, r0
 80055ce:	4802      	ldr	r0, [pc, #8]	; (80055d8 <vsprintf+0x10>)
 80055d0:	6800      	ldr	r0, [r0, #0]
 80055d2:	f7ff bfe0 	b.w	8005596 <_vsprintf_r>
 80055d6:	bf00      	nop
 80055d8:	2000000c 	.word	0x2000000c
 80055dc:	00000000 	.word	0x00000000

080055e0 <_svfprintf_r>:
 80055e0:	e92d 4ff0 	stmdb	sp!, {r4, r5, r6, r7, r8, r9, sl, fp, lr}
 80055e4:	b0bd      	sub	sp, #244	; 0xf4
 80055e6:	468a      	mov	sl, r1
 80055e8:	4615      	mov	r5, r2
 80055ea:	461f      	mov	r7, r3
 80055ec:	4683      	mov	fp, r0
 80055ee:	f001 fe25 	bl	800723c <_localeconv_r>
 80055f2:	6803      	ldr	r3, [r0, #0]
 80055f4:	930d      	str	r3, [sp, #52]	; 0x34
 80055f6:	4618      	mov	r0, r3
 80055f8:	f7fa fe0a 	bl	8000210 <strlen>
 80055fc:	f8ba 300c 	ldrh.w	r3, [sl, #12]
 8005600:	9008      	str	r0, [sp, #32]
 8005602:	061b      	lsls	r3, r3, #24
 8005604:	d518      	bpl.n	8005638 <_svfprintf_r+0x58>
 8005606:	f8da 3010 	ldr.w	r3, [sl, #16]
 800560a:	b9ab      	cbnz	r3, 8005638 <_svfprintf_r+0x58>
 800560c:	2140      	movs	r1, #64	; 0x40
 800560e:	4658      	mov	r0, fp
 8005610:	f001 fe2a 	bl	8007268 <_malloc_r>
 8005614:	f8ca 0000 	str.w	r0, [sl]
 8005618:	f8ca 0010 	str.w	r0, [sl, #16]
 800561c:	b948      	cbnz	r0, 8005632 <_svfprintf_r+0x52>
 800561e:	230c      	movs	r3, #12
 8005620:	f8cb 3000 	str.w	r3, [fp]
 8005624:	f04f 33ff 	mov.w	r3, #4294967295
 8005628:	9309      	str	r3, [sp, #36]	; 0x24
 800562a:	9809      	ldr	r0, [sp, #36]	; 0x24
 800562c:	b03d      	add	sp, #244	; 0xf4
 800562e:	e8bd 8ff0 	ldmia.w	sp!, {r4, r5, r6, r7, r8, r9, sl, fp, pc}
 8005632:	2340      	movs	r3, #64	; 0x40
 8005634:	f8ca 3014 	str.w	r3, [sl, #20]
 8005638:	ed9f 7b99 	vldr	d7, [pc, #612]	; 80058a0 <_svfprintf_r+0x2c0>
 800563c:	ed8d 7b06 	vstr	d7, [sp, #24]
 8005640:	2300      	movs	r3, #0
 8005642:	ac2c      	add	r4, sp, #176	; 0xb0
 8005644:	941f      	str	r4, [sp, #124]	; 0x7c
 8005646:	9321      	str	r3, [sp, #132]	; 0x84
 8005648:	9320      	str	r3, [sp, #128]	; 0x80
 800564a:	9505      	str	r5, [sp, #20]
 800564c:	9303      	str	r3, [sp, #12]
 800564e:	9311      	str	r3, [sp, #68]	; 0x44
 8005650:	9310      	str	r3, [sp, #64]	; 0x40
 8005652:	9309      	str	r3, [sp, #36]	; 0x24
 8005654:	9d05      	ldr	r5, [sp, #20]
 8005656:	462b      	mov	r3, r5
 8005658:	f813 2b01 	ldrb.w	r2, [r3], #1
 800565c:	b112      	cbz	r2, 8005664 <_svfprintf_r+0x84>
 800565e:	2a25      	cmp	r2, #37	; 0x25
 8005660:	f040 8083 	bne.w	800576a <_svfprintf_r+0x18a>
 8005664:	9b05      	ldr	r3, [sp, #20]
 8005666:	1aee      	subs	r6, r5, r3
 8005668:	d00d      	beq.n	8005686 <_svfprintf_r+0xa6>
 800566a:	e884 0048 	stmia.w	r4, {r3, r6}
 800566e:	9b21      	ldr	r3, [sp, #132]	; 0x84
 8005670:	4433      	add	r3, r6
 8005672:	9321      	str	r3, [sp, #132]	; 0x84
 8005674:	9b20      	ldr	r3, [sp, #128]	; 0x80
 8005676:	3301      	adds	r3, #1
 8005678:	2b07      	cmp	r3, #7
 800567a:	9320      	str	r3, [sp, #128]	; 0x80
 800567c:	dc77      	bgt.n	800576e <_svfprintf_r+0x18e>
 800567e:	3408      	adds	r4, #8
 8005680:	9b09      	ldr	r3, [sp, #36]	; 0x24
 8005682:	4433      	add	r3, r6
 8005684:	9309      	str	r3, [sp, #36]	; 0x24
 8005686:	782b      	ldrb	r3, [r5, #0]
 8005688:	2b00      	cmp	r3, #0
 800568a:	f000 8729 	beq.w	80064e0 <_svfprintf_r+0xf00>
 800568e:	2300      	movs	r3, #0
 8005690:	1c69      	adds	r1, r5, #1
 8005692:	f88d 305f 	strb.w	r3, [sp, #95]	; 0x5f
 8005696:	461a      	mov	r2, r3
 8005698:	f04f 39ff 	mov.w	r9, #4294967295
 800569c:	930a      	str	r3, [sp, #40]	; 0x28
 800569e:	461d      	mov	r5, r3
 80056a0:	200a      	movs	r0, #10
 80056a2:	1c4e      	adds	r6, r1, #1
 80056a4:	7809      	ldrb	r1, [r1, #0]
 80056a6:	9605      	str	r6, [sp, #20]
 80056a8:	9102      	str	r1, [sp, #8]
 80056aa:	9902      	ldr	r1, [sp, #8]
 80056ac:	3920      	subs	r1, #32
 80056ae:	2958      	cmp	r1, #88	; 0x58
 80056b0:	f200 8418 	bhi.w	8005ee4 <_svfprintf_r+0x904>
 80056b4:	e8df f011 	tbh	[pc, r1, lsl #1]
 80056b8:	041600a6 	.word	0x041600a6
 80056bc:	00ab0416 	.word	0x00ab0416
 80056c0:	04160416 	.word	0x04160416
 80056c4:	04160416 	.word	0x04160416
 80056c8:	04160416 	.word	0x04160416
 80056cc:	006500ae 	.word	0x006500ae
 80056d0:	00b70416 	.word	0x00b70416
 80056d4:	041600ba 	.word	0x041600ba
 80056d8:	00da00d7 	.word	0x00da00d7
 80056dc:	00da00da 	.word	0x00da00da
 80056e0:	00da00da 	.word	0x00da00da
 80056e4:	00da00da 	.word	0x00da00da
 80056e8:	00da00da 	.word	0x00da00da
 80056ec:	04160416 	.word	0x04160416
 80056f0:	04160416 	.word	0x04160416
 80056f4:	04160416 	.word	0x04160416
 80056f8:	04160416 	.word	0x04160416
 80056fc:	04160416 	.word	0x04160416
 8005700:	012b0115 	.word	0x012b0115
 8005704:	012b0416 	.word	0x012b0416
 8005708:	04160416 	.word	0x04160416
 800570c:	04160416 	.word	0x04160416
 8005710:	041600ed 	.word	0x041600ed
 8005714:	03400416 	.word	0x03400416
 8005718:	04160416 	.word	0x04160416
 800571c:	04160416 	.word	0x04160416
 8005720:	03a80416 	.word	0x03a80416
 8005724:	04160416 	.word	0x04160416
 8005728:	04160086 	.word	0x04160086
 800572c:	04160416 	.word	0x04160416
 8005730:	04160416 	.word	0x04160416
 8005734:	04160416 	.word	0x04160416
 8005738:	04160416 	.word	0x04160416
 800573c:	01070416 	.word	0x01070416
 8005740:	012b006b 	.word	0x012b006b
 8005744:	012b012b 	.word	0x012b012b
 8005748:	006b00f0 	.word	0x006b00f0
 800574c:	04160416 	.word	0x04160416
 8005750:	041600fa 	.word	0x041600fa
 8005754:	03420322 	.word	0x03420322
 8005758:	01010376 	.word	0x01010376
 800575c:	03870416 	.word	0x03870416
 8005760:	03aa0416 	.word	0x03aa0416
 8005764:	04160416 	.word	0x04160416
 8005768:	03c2      	.short	0x03c2
 800576a:	461d      	mov	r5, r3
 800576c:	e773      	b.n	8005656 <_svfprintf_r+0x76>
 800576e:	aa1f      	add	r2, sp, #124	; 0x7c
 8005770:	4651      	mov	r1, sl
 8005772:	4658      	mov	r0, fp
 8005774:	f002 fa84 	bl	8007c80 <__ssprint_r>
 8005778:	2800      	cmp	r0, #0
 800577a:	f040 8692 	bne.w	80064a2 <_svfprintf_r+0xec2>
 800577e:	ac2c      	add	r4, sp, #176	; 0xb0
 8005780:	e77e      	b.n	8005680 <_svfprintf_r+0xa0>
 8005782:	2301      	movs	r3, #1
 8005784:	222b      	movs	r2, #43	; 0x2b
 8005786:	9905      	ldr	r1, [sp, #20]
 8005788:	e78b      	b.n	80056a2 <_svfprintf_r+0xc2>
 800578a:	460f      	mov	r7, r1
 800578c:	e7fb      	b.n	8005786 <_svfprintf_r+0x1a6>
 800578e:	b10b      	cbz	r3, 8005794 <_svfprintf_r+0x1b4>
 8005790:	f88d 205f 	strb.w	r2, [sp, #95]	; 0x5f
 8005794:	06ae      	lsls	r6, r5, #26
 8005796:	f140 80aa 	bpl.w	80058ee <_svfprintf_r+0x30e>
 800579a:	3707      	adds	r7, #7
 800579c:	f027 0707 	bic.w	r7, r7, #7
 80057a0:	f107 0308 	add.w	r3, r7, #8
 80057a4:	e9d7 6700 	ldrd	r6, r7, [r7]
 80057a8:	9304      	str	r3, [sp, #16]
 80057aa:	2e00      	cmp	r6, #0
 80057ac:	f177 0300 	sbcs.w	r3, r7, #0
 80057b0:	da06      	bge.n	80057c0 <_svfprintf_r+0x1e0>
 80057b2:	4276      	negs	r6, r6
 80057b4:	f04f 032d 	mov.w	r3, #45	; 0x2d
 80057b8:	eb67 0747 	sbc.w	r7, r7, r7, lsl #1
 80057bc:	f88d 305f 	strb.w	r3, [sp, #95]	; 0x5f
 80057c0:	2301      	movs	r3, #1
 80057c2:	e2ca      	b.n	8005d5a <_svfprintf_r+0x77a>
 80057c4:	b10b      	cbz	r3, 80057ca <_svfprintf_r+0x1ea>
 80057c6:	f88d 205f 	strb.w	r2, [sp, #95]	; 0x5f
 80057ca:	4b37      	ldr	r3, [pc, #220]	; (80058a8 <_svfprintf_r+0x2c8>)
 80057cc:	9311      	str	r3, [sp, #68]	; 0x44
 80057ce:	06ab      	lsls	r3, r5, #26
 80057d0:	f140 8339 	bpl.w	8005e46 <_svfprintf_r+0x866>
 80057d4:	3707      	adds	r7, #7
 80057d6:	f027 0707 	bic.w	r7, r7, #7
 80057da:	f107 0308 	add.w	r3, r7, #8
 80057de:	e9d7 6700 	ldrd	r6, r7, [r7]
 80057e2:	9304      	str	r3, [sp, #16]
 80057e4:	07e8      	lsls	r0, r5, #31
 80057e6:	d50b      	bpl.n	8005800 <_svfprintf_r+0x220>
 80057e8:	ea56 0307 	orrs.w	r3, r6, r7
 80057ec:	d008      	beq.n	8005800 <_svfprintf_r+0x220>
 80057ee:	2330      	movs	r3, #48	; 0x30
 80057f0:	f88d 3060 	strb.w	r3, [sp, #96]	; 0x60
 80057f4:	f89d 3008 	ldrb.w	r3, [sp, #8]
 80057f8:	f88d 3061 	strb.w	r3, [sp, #97]	; 0x61
 80057fc:	f045 0502 	orr.w	r5, r5, #2
 8005800:	2302      	movs	r3, #2
 8005802:	e2a7      	b.n	8005d54 <_svfprintf_r+0x774>
 8005804:	2a00      	cmp	r2, #0
 8005806:	d1be      	bne.n	8005786 <_svfprintf_r+0x1a6>
 8005808:	2301      	movs	r3, #1
 800580a:	2220      	movs	r2, #32
 800580c:	e7bb      	b.n	8005786 <_svfprintf_r+0x1a6>
 800580e:	f045 0501 	orr.w	r5, r5, #1
 8005812:	e7b8      	b.n	8005786 <_svfprintf_r+0x1a6>
 8005814:	683e      	ldr	r6, [r7, #0]
 8005816:	960a      	str	r6, [sp, #40]	; 0x28
 8005818:	2e00      	cmp	r6, #0
 800581a:	f107 0104 	add.w	r1, r7, #4
 800581e:	dab4      	bge.n	800578a <_svfprintf_r+0x1aa>
 8005820:	4276      	negs	r6, r6
 8005822:	960a      	str	r6, [sp, #40]	; 0x28
 8005824:	460f      	mov	r7, r1
 8005826:	f045 0504 	orr.w	r5, r5, #4
 800582a:	e7ac      	b.n	8005786 <_svfprintf_r+0x1a6>
 800582c:	9905      	ldr	r1, [sp, #20]
 800582e:	1c4e      	adds	r6, r1, #1
 8005830:	7809      	ldrb	r1, [r1, #0]
 8005832:	9102      	str	r1, [sp, #8]
 8005834:	292a      	cmp	r1, #42	; 0x2a
 8005836:	d010      	beq.n	800585a <_svfprintf_r+0x27a>
 8005838:	f04f 0900 	mov.w	r9, #0
 800583c:	9605      	str	r6, [sp, #20]
 800583e:	9902      	ldr	r1, [sp, #8]
 8005840:	3930      	subs	r1, #48	; 0x30
 8005842:	2909      	cmp	r1, #9
 8005844:	f63f af31 	bhi.w	80056aa <_svfprintf_r+0xca>
 8005848:	fb00 1909 	mla	r9, r0, r9, r1
 800584c:	9905      	ldr	r1, [sp, #20]
 800584e:	460e      	mov	r6, r1
 8005850:	f816 1b01 	ldrb.w	r1, [r6], #1
 8005854:	9102      	str	r1, [sp, #8]
 8005856:	9605      	str	r6, [sp, #20]
 8005858:	e7f1      	b.n	800583e <_svfprintf_r+0x25e>
 800585a:	6839      	ldr	r1, [r7, #0]
 800585c:	9605      	str	r6, [sp, #20]
 800585e:	ea41 79e1 	orr.w	r9, r1, r1, asr #31
 8005862:	3704      	adds	r7, #4
 8005864:	e78f      	b.n	8005786 <_svfprintf_r+0x1a6>
 8005866:	f045 0580 	orr.w	r5, r5, #128	; 0x80
 800586a:	e78c      	b.n	8005786 <_svfprintf_r+0x1a6>
 800586c:	2100      	movs	r1, #0
 800586e:	910a      	str	r1, [sp, #40]	; 0x28
 8005870:	9902      	ldr	r1, [sp, #8]
 8005872:	9e0a      	ldr	r6, [sp, #40]	; 0x28
 8005874:	3930      	subs	r1, #48	; 0x30
 8005876:	fb00 1106 	mla	r1, r0, r6, r1
 800587a:	910a      	str	r1, [sp, #40]	; 0x28
 800587c:	9905      	ldr	r1, [sp, #20]
 800587e:	460e      	mov	r6, r1
 8005880:	f816 1b01 	ldrb.w	r1, [r6], #1
 8005884:	9102      	str	r1, [sp, #8]
 8005886:	9902      	ldr	r1, [sp, #8]
 8005888:	9605      	str	r6, [sp, #20]
 800588a:	3930      	subs	r1, #48	; 0x30
 800588c:	2909      	cmp	r1, #9
 800588e:	d9ef      	bls.n	8005870 <_svfprintf_r+0x290>
 8005890:	e70b      	b.n	80056aa <_svfprintf_r+0xca>
 8005892:	f045 0508 	orr.w	r5, r5, #8
 8005896:	e776      	b.n	8005786 <_svfprintf_r+0x1a6>
 8005898:	f045 0540 	orr.w	r5, r5, #64	; 0x40
 800589c:	e773      	b.n	8005786 <_svfprintf_r+0x1a6>
 800589e:	bf00      	nop
	...
 80058a8:	08008674 	.word	0x08008674
 80058ac:	9905      	ldr	r1, [sp, #20]
 80058ae:	7809      	ldrb	r1, [r1, #0]
 80058b0:	296c      	cmp	r1, #108	; 0x6c
 80058b2:	d105      	bne.n	80058c0 <_svfprintf_r+0x2e0>
 80058b4:	9905      	ldr	r1, [sp, #20]
 80058b6:	3101      	adds	r1, #1
 80058b8:	9105      	str	r1, [sp, #20]
 80058ba:	f045 0520 	orr.w	r5, r5, #32
 80058be:	e762      	b.n	8005786 <_svfprintf_r+0x1a6>
 80058c0:	f045 0510 	orr.w	r5, r5, #16
 80058c4:	e75f      	b.n	8005786 <_svfprintf_r+0x1a6>
 80058c6:	1d3b      	adds	r3, r7, #4
 80058c8:	9304      	str	r3, [sp, #16]
 80058ca:	2600      	movs	r6, #0
 80058cc:	683b      	ldr	r3, [r7, #0]
 80058ce:	f88d 3088 	strb.w	r3, [sp, #136]	; 0x88
 80058d2:	f88d 605f 	strb.w	r6, [sp, #95]	; 0x5f
 80058d6:	f04f 0901 	mov.w	r9, #1
 80058da:	4637      	mov	r7, r6
 80058dc:	f10d 0888 	add.w	r8, sp, #136	; 0x88
 80058e0:	e11b      	b.n	8005b1a <_svfprintf_r+0x53a>
 80058e2:	b10b      	cbz	r3, 80058e8 <_svfprintf_r+0x308>
 80058e4:	f88d 205f 	strb.w	r2, [sp, #95]	; 0x5f
 80058e8:	f045 0510 	orr.w	r5, r5, #16
 80058ec:	e752      	b.n	8005794 <_svfprintf_r+0x1b4>
 80058ee:	f015 0f10 	tst.w	r5, #16
 80058f2:	f107 0304 	add.w	r3, r7, #4
 80058f6:	d003      	beq.n	8005900 <_svfprintf_r+0x320>
 80058f8:	683e      	ldr	r6, [r7, #0]
 80058fa:	9304      	str	r3, [sp, #16]
 80058fc:	17f7      	asrs	r7, r6, #31
 80058fe:	e754      	b.n	80057aa <_svfprintf_r+0x1ca>
 8005900:	683e      	ldr	r6, [r7, #0]
 8005902:	9304      	str	r3, [sp, #16]
 8005904:	f015 0f40 	tst.w	r5, #64	; 0x40
 8005908:	bf18      	it	ne
 800590a:	b236      	sxthne	r6, r6
 800590c:	e7f6      	b.n	80058fc <_svfprintf_r+0x31c>
 800590e:	b10b      	cbz	r3, 8005914 <_svfprintf_r+0x334>
 8005910:	f88d 205f 	strb.w	r2, [sp, #95]	; 0x5f
 8005914:	3707      	adds	r7, #7
 8005916:	f027 0707 	bic.w	r7, r7, #7
 800591a:	f107 0308 	add.w	r3, r7, #8
 800591e:	9304      	str	r3, [sp, #16]
 8005920:	ed97 7b00 	vldr	d7, [r7]
 8005924:	ed8d 7b06 	vstr	d7, [sp, #24]
 8005928:	9b06      	ldr	r3, [sp, #24]
 800592a:	9312      	str	r3, [sp, #72]	; 0x48
 800592c:	9b07      	ldr	r3, [sp, #28]
 800592e:	f023 4300 	bic.w	r3, r3, #2147483648	; 0x80000000
 8005932:	9313      	str	r3, [sp, #76]	; 0x4c
 8005934:	f04f 32ff 	mov.w	r2, #4294967295
 8005938:	4b4a      	ldr	r3, [pc, #296]	; (8005a64 <_svfprintf_r+0x484>)
 800593a:	e9dd 0112 	ldrd	r0, r1, [sp, #72]	; 0x48
 800593e:	f7fb f911 	bl	8000b64 <__aeabi_dcmpun>
 8005942:	2800      	cmp	r0, #0
 8005944:	f040 85d5 	bne.w	80064f2 <_svfprintf_r+0xf12>
 8005948:	f04f 32ff 	mov.w	r2, #4294967295
 800594c:	4b45      	ldr	r3, [pc, #276]	; (8005a64 <_svfprintf_r+0x484>)
 800594e:	e9dd 0112 	ldrd	r0, r1, [sp, #72]	; 0x48
 8005952:	f7fb f8e9 	bl	8000b28 <__aeabi_dcmple>
 8005956:	2800      	cmp	r0, #0
 8005958:	f040 85cb 	bne.w	80064f2 <_svfprintf_r+0xf12>
 800595c:	2200      	movs	r2, #0
 800595e:	2300      	movs	r3, #0
 8005960:	e9dd 0106 	ldrd	r0, r1, [sp, #24]
 8005964:	f7fb f8d6 	bl	8000b14 <__aeabi_dcmplt>
 8005968:	b110      	cbz	r0, 8005970 <_svfprintf_r+0x390>
 800596a:	232d      	movs	r3, #45	; 0x2d
 800596c:	f88d 305f 	strb.w	r3, [sp, #95]	; 0x5f
 8005970:	4b3d      	ldr	r3, [pc, #244]	; (8005a68 <_svfprintf_r+0x488>)
 8005972:	4a3e      	ldr	r2, [pc, #248]	; (8005a6c <_svfprintf_r+0x48c>)
 8005974:	9902      	ldr	r1, [sp, #8]
 8005976:	f025 0580 	bic.w	r5, r5, #128	; 0x80
 800597a:	2947      	cmp	r1, #71	; 0x47
 800597c:	bfcc      	ite	gt
 800597e:	4690      	movgt	r8, r2
 8005980:	4698      	movle	r8, r3
 8005982:	f04f 0903 	mov.w	r9, #3
 8005986:	2600      	movs	r6, #0
 8005988:	4637      	mov	r7, r6
 800598a:	e0c6      	b.n	8005b1a <_svfprintf_r+0x53a>
 800598c:	f1b9 3fff 	cmp.w	r9, #4294967295
 8005990:	d022      	beq.n	80059d8 <_svfprintf_r+0x3f8>
 8005992:	9b02      	ldr	r3, [sp, #8]
 8005994:	f023 0320 	bic.w	r3, r3, #32
 8005998:	2b47      	cmp	r3, #71	; 0x47
 800599a:	d104      	bne.n	80059a6 <_svfprintf_r+0x3c6>
 800599c:	f1b9 0f00 	cmp.w	r9, #0
 80059a0:	bf08      	it	eq
 80059a2:	f04f 0901 	moveq.w	r9, #1
 80059a6:	f445 7380 	orr.w	r3, r5, #256	; 0x100
 80059aa:	930c      	str	r3, [sp, #48]	; 0x30
 80059ac:	9b07      	ldr	r3, [sp, #28]
 80059ae:	2b00      	cmp	r3, #0
 80059b0:	da15      	bge.n	80059de <_svfprintf_r+0x3fe>
 80059b2:	9b06      	ldr	r3, [sp, #24]
 80059b4:	930e      	str	r3, [sp, #56]	; 0x38
 80059b6:	9b07      	ldr	r3, [sp, #28]
 80059b8:	f103 4300 	add.w	r3, r3, #2147483648	; 0x80000000
 80059bc:	930f      	str	r3, [sp, #60]	; 0x3c
 80059be:	232d      	movs	r3, #45	; 0x2d
 80059c0:	930b      	str	r3, [sp, #44]	; 0x2c
 80059c2:	9b02      	ldr	r3, [sp, #8]
 80059c4:	f023 0720 	bic.w	r7, r3, #32
 80059c8:	2f46      	cmp	r7, #70	; 0x46
 80059ca:	d00e      	beq.n	80059ea <_svfprintf_r+0x40a>
 80059cc:	2f45      	cmp	r7, #69	; 0x45
 80059ce:	d146      	bne.n	8005a5e <_svfprintf_r+0x47e>
 80059d0:	f109 0601 	add.w	r6, r9, #1
 80059d4:	2102      	movs	r1, #2
 80059d6:	e00a      	b.n	80059ee <_svfprintf_r+0x40e>
 80059d8:	f04f 0906 	mov.w	r9, #6
 80059dc:	e7e3      	b.n	80059a6 <_svfprintf_r+0x3c6>
 80059de:	ed9d 7b06 	vldr	d7, [sp, #24]
 80059e2:	2300      	movs	r3, #0
 80059e4:	ed8d 7b0e 	vstr	d7, [sp, #56]	; 0x38
 80059e8:	e7ea      	b.n	80059c0 <_svfprintf_r+0x3e0>
 80059ea:	464e      	mov	r6, r9
 80059ec:	2103      	movs	r1, #3
 80059ee:	ab1d      	add	r3, sp, #116	; 0x74
 80059f0:	9301      	str	r3, [sp, #4]
 80059f2:	ab1a      	add	r3, sp, #104	; 0x68
 80059f4:	9300      	str	r3, [sp, #0]
 80059f6:	4632      	mov	r2, r6
 80059f8:	ab19      	add	r3, sp, #100	; 0x64
 80059fa:	ed9d 0b0e 	vldr	d0, [sp, #56]	; 0x38
 80059fe:	4658      	mov	r0, fp
 8005a00:	f000 fe4e 	bl	80066a0 <_dtoa_r>
 8005a04:	2f47      	cmp	r7, #71	; 0x47
 8005a06:	4680      	mov	r8, r0
 8005a08:	d102      	bne.n	8005a10 <_svfprintf_r+0x430>
 8005a0a:	07e8      	lsls	r0, r5, #31
 8005a0c:	f140 857e 	bpl.w	800650c <_svfprintf_r+0xf2c>
 8005a10:	eb08 0306 	add.w	r3, r8, r6
 8005a14:	2f46      	cmp	r7, #70	; 0x46
 8005a16:	9303      	str	r3, [sp, #12]
 8005a18:	d111      	bne.n	8005a3e <_svfprintf_r+0x45e>
 8005a1a:	f898 3000 	ldrb.w	r3, [r8]
 8005a1e:	2b30      	cmp	r3, #48	; 0x30
 8005a20:	d109      	bne.n	8005a36 <_svfprintf_r+0x456>
 8005a22:	2200      	movs	r2, #0
 8005a24:	2300      	movs	r3, #0
 8005a26:	e9dd 010e 	ldrd	r0, r1, [sp, #56]	; 0x38
 8005a2a:	f7fb f869 	bl	8000b00 <__aeabi_dcmpeq>
 8005a2e:	b910      	cbnz	r0, 8005a36 <_svfprintf_r+0x456>
 8005a30:	f1c6 0601 	rsb	r6, r6, #1
 8005a34:	9619      	str	r6, [sp, #100]	; 0x64
 8005a36:	9a03      	ldr	r2, [sp, #12]
 8005a38:	9b19      	ldr	r3, [sp, #100]	; 0x64
 8005a3a:	441a      	add	r2, r3
 8005a3c:	9203      	str	r2, [sp, #12]
 8005a3e:	2200      	movs	r2, #0
 8005a40:	2300      	movs	r3, #0
 8005a42:	e9dd 010e 	ldrd	r0, r1, [sp, #56]	; 0x38
 8005a46:	f7fb f85b 	bl	8000b00 <__aeabi_dcmpeq>
 8005a4a:	b988      	cbnz	r0, 8005a70 <_svfprintf_r+0x490>
 8005a4c:	2230      	movs	r2, #48	; 0x30
 8005a4e:	9b1d      	ldr	r3, [sp, #116]	; 0x74
 8005a50:	9903      	ldr	r1, [sp, #12]
 8005a52:	4299      	cmp	r1, r3
 8005a54:	d90e      	bls.n	8005a74 <_svfprintf_r+0x494>
 8005a56:	1c59      	adds	r1, r3, #1
 8005a58:	911d      	str	r1, [sp, #116]	; 0x74
 8005a5a:	701a      	strb	r2, [r3, #0]
 8005a5c:	e7f7      	b.n	8005a4e <_svfprintf_r+0x46e>
 8005a5e:	464e      	mov	r6, r9
 8005a60:	e7b8      	b.n	80059d4 <_svfprintf_r+0x3f4>
 8005a62:	bf00      	nop
 8005a64:	7fefffff 	.word	0x7fefffff
 8005a68:	08008664 	.word	0x08008664
 8005a6c:	08008668 	.word	0x08008668
 8005a70:	9b03      	ldr	r3, [sp, #12]
 8005a72:	931d      	str	r3, [sp, #116]	; 0x74
 8005a74:	9b1d      	ldr	r3, [sp, #116]	; 0x74
 8005a76:	2f47      	cmp	r7, #71	; 0x47
 8005a78:	eba3 0308 	sub.w	r3, r3, r8
 8005a7c:	9303      	str	r3, [sp, #12]
 8005a7e:	f040 80fa 	bne.w	8005c76 <_svfprintf_r+0x696>
 8005a82:	9b19      	ldr	r3, [sp, #100]	; 0x64
 8005a84:	1cd9      	adds	r1, r3, #3
 8005a86:	db02      	blt.n	8005a8e <_svfprintf_r+0x4ae>
 8005a88:	4599      	cmp	r9, r3
 8005a8a:	f280 8120 	bge.w	8005cce <_svfprintf_r+0x6ee>
 8005a8e:	9b02      	ldr	r3, [sp, #8]
 8005a90:	3b02      	subs	r3, #2
 8005a92:	9302      	str	r3, [sp, #8]
 8005a94:	9a19      	ldr	r2, [sp, #100]	; 0x64
 8005a96:	f89d 1008 	ldrb.w	r1, [sp, #8]
 8005a9a:	f88d 106c 	strb.w	r1, [sp, #108]	; 0x6c
 8005a9e:	1e53      	subs	r3, r2, #1
 8005aa0:	2b00      	cmp	r3, #0
 8005aa2:	9319      	str	r3, [sp, #100]	; 0x64
 8005aa4:	bfb6      	itet	lt
 8005aa6:	f1c2 0301 	rsblt	r3, r2, #1
 8005aaa:	222b      	movge	r2, #43	; 0x2b
 8005aac:	222d      	movlt	r2, #45	; 0x2d
 8005aae:	2b09      	cmp	r3, #9
 8005ab0:	f88d 206d 	strb.w	r2, [sp, #109]	; 0x6d
 8005ab4:	f340 80fb 	ble.w	8005cae <_svfprintf_r+0x6ce>
 8005ab8:	f10d 027b 	add.w	r2, sp, #123	; 0x7b
 8005abc:	260a      	movs	r6, #10
 8005abe:	fb93 f0f6 	sdiv	r0, r3, r6
 8005ac2:	fb06 3310 	mls	r3, r6, r0, r3
 8005ac6:	3330      	adds	r3, #48	; 0x30
 8005ac8:	2809      	cmp	r0, #9
 8005aca:	f802 3c01 	strb.w	r3, [r2, #-1]
 8005ace:	f102 31ff 	add.w	r1, r2, #4294967295
 8005ad2:	4603      	mov	r3, r0
 8005ad4:	f300 80e4 	bgt.w	8005ca0 <_svfprintf_r+0x6c0>
 8005ad8:	3330      	adds	r3, #48	; 0x30
 8005ada:	f801 3c01 	strb.w	r3, [r1, #-1]
 8005ade:	3a02      	subs	r2, #2
 8005ae0:	f10d 036e 	add.w	r3, sp, #110	; 0x6e
 8005ae4:	f10d 007b 	add.w	r0, sp, #123	; 0x7b
 8005ae8:	4282      	cmp	r2, r0
 8005aea:	4619      	mov	r1, r3
 8005aec:	f0c0 80da 	bcc.w	8005ca4 <_svfprintf_r+0x6c4>
 8005af0:	9a03      	ldr	r2, [sp, #12]
 8005af2:	ab1b      	add	r3, sp, #108	; 0x6c
 8005af4:	1acb      	subs	r3, r1, r3
 8005af6:	2a01      	cmp	r2, #1
 8005af8:	9310      	str	r3, [sp, #64]	; 0x40
 8005afa:	eb03 0902 	add.w	r9, r3, r2
 8005afe:	dc02      	bgt.n	8005b06 <_svfprintf_r+0x526>
 8005b00:	f015 0701 	ands.w	r7, r5, #1
 8005b04:	d002      	beq.n	8005b0c <_svfprintf_r+0x52c>
 8005b06:	9b08      	ldr	r3, [sp, #32]
 8005b08:	2700      	movs	r7, #0
 8005b0a:	4499      	add	r9, r3
 8005b0c:	9b0b      	ldr	r3, [sp, #44]	; 0x2c
 8005b0e:	b113      	cbz	r3, 8005b16 <_svfprintf_r+0x536>
 8005b10:	232d      	movs	r3, #45	; 0x2d
 8005b12:	f88d 305f 	strb.w	r3, [sp, #95]	; 0x5f
 8005b16:	9d0c      	ldr	r5, [sp, #48]	; 0x30
 8005b18:	2600      	movs	r6, #0
 8005b1a:	454e      	cmp	r6, r9
 8005b1c:	4633      	mov	r3, r6
 8005b1e:	bfb8      	it	lt
 8005b20:	464b      	movlt	r3, r9
 8005b22:	930b      	str	r3, [sp, #44]	; 0x2c
 8005b24:	f89d 305f 	ldrb.w	r3, [sp, #95]	; 0x5f
 8005b28:	b113      	cbz	r3, 8005b30 <_svfprintf_r+0x550>
 8005b2a:	9b0b      	ldr	r3, [sp, #44]	; 0x2c
 8005b2c:	3301      	adds	r3, #1
 8005b2e:	930b      	str	r3, [sp, #44]	; 0x2c
 8005b30:	f015 0302 	ands.w	r3, r5, #2
 8005b34:	9314      	str	r3, [sp, #80]	; 0x50
 8005b36:	bf1e      	ittt	ne
 8005b38:	9b0b      	ldrne	r3, [sp, #44]	; 0x2c
 8005b3a:	3302      	addne	r3, #2
 8005b3c:	930b      	strne	r3, [sp, #44]	; 0x2c
 8005b3e:	f015 0384 	ands.w	r3, r5, #132	; 0x84
 8005b42:	9315      	str	r3, [sp, #84]	; 0x54
 8005b44:	d118      	bne.n	8005b78 <_svfprintf_r+0x598>
 8005b46:	9b0a      	ldr	r3, [sp, #40]	; 0x28
 8005b48:	9a0b      	ldr	r2, [sp, #44]	; 0x2c
 8005b4a:	1a9b      	subs	r3, r3, r2
 8005b4c:	2b00      	cmp	r3, #0
 8005b4e:	930c      	str	r3, [sp, #48]	; 0x30
 8005b50:	dd12      	ble.n	8005b78 <_svfprintf_r+0x598>
 8005b52:	9b0c      	ldr	r3, [sp, #48]	; 0x30
 8005b54:	2b10      	cmp	r3, #16
 8005b56:	4ba9      	ldr	r3, [pc, #676]	; (8005dfc <_svfprintf_r+0x81c>)
 8005b58:	6023      	str	r3, [r4, #0]
 8005b5a:	f300 81d5 	bgt.w	8005f08 <_svfprintf_r+0x928>
 8005b5e:	9b0c      	ldr	r3, [sp, #48]	; 0x30
 8005b60:	6063      	str	r3, [r4, #4]
 8005b62:	9a0c      	ldr	r2, [sp, #48]	; 0x30
 8005b64:	9b21      	ldr	r3, [sp, #132]	; 0x84
 8005b66:	4413      	add	r3, r2
 8005b68:	9321      	str	r3, [sp, #132]	; 0x84
 8005b6a:	9b20      	ldr	r3, [sp, #128]	; 0x80
 8005b6c:	3301      	adds	r3, #1
 8005b6e:	2b07      	cmp	r3, #7
 8005b70:	9320      	str	r3, [sp, #128]	; 0x80
 8005b72:	f300 81e2 	bgt.w	8005f3a <_svfprintf_r+0x95a>
 8005b76:	3408      	adds	r4, #8
 8005b78:	f89d 305f 	ldrb.w	r3, [sp, #95]	; 0x5f
 8005b7c:	b173      	cbz	r3, 8005b9c <_svfprintf_r+0x5bc>
 8005b7e:	f10d 035f 	add.w	r3, sp, #95	; 0x5f
 8005b82:	6023      	str	r3, [r4, #0]
 8005b84:	2301      	movs	r3, #1
 8005b86:	6063      	str	r3, [r4, #4]
 8005b88:	9b21      	ldr	r3, [sp, #132]	; 0x84
 8005b8a:	3301      	adds	r3, #1
 8005b8c:	9321      	str	r3, [sp, #132]	; 0x84
 8005b8e:	9b20      	ldr	r3, [sp, #128]	; 0x80
 8005b90:	3301      	adds	r3, #1
 8005b92:	2b07      	cmp	r3, #7
 8005b94:	9320      	str	r3, [sp, #128]	; 0x80
 8005b96:	f300 81da 	bgt.w	8005f4e <_svfprintf_r+0x96e>
 8005b9a:	3408      	adds	r4, #8
 8005b9c:	9b14      	ldr	r3, [sp, #80]	; 0x50
 8005b9e:	b16b      	cbz	r3, 8005bbc <_svfprintf_r+0x5dc>
 8005ba0:	ab18      	add	r3, sp, #96	; 0x60
 8005ba2:	6023      	str	r3, [r4, #0]
 8005ba4:	2302      	movs	r3, #2
 8005ba6:	6063      	str	r3, [r4, #4]
 8005ba8:	9b21      	ldr	r3, [sp, #132]	; 0x84
 8005baa:	3302      	adds	r3, #2
 8005bac:	9321      	str	r3, [sp, #132]	; 0x84
 8005bae:	9b20      	ldr	r3, [sp, #128]	; 0x80
 8005bb0:	3301      	adds	r3, #1
 8005bb2:	2b07      	cmp	r3, #7
 8005bb4:	9320      	str	r3, [sp, #128]	; 0x80
 8005bb6:	f300 81d4 	bgt.w	8005f62 <_svfprintf_r+0x982>
 8005bba:	3408      	adds	r4, #8
 8005bbc:	9b15      	ldr	r3, [sp, #84]	; 0x54
 8005bbe:	2b80      	cmp	r3, #128	; 0x80
 8005bc0:	d114      	bne.n	8005bec <_svfprintf_r+0x60c>
 8005bc2:	9b0a      	ldr	r3, [sp, #40]	; 0x28
 8005bc4:	9a0b      	ldr	r2, [sp, #44]	; 0x2c
 8005bc6:	1a9b      	subs	r3, r3, r2
 8005bc8:	2b00      	cmp	r3, #0
 8005bca:	dd0f      	ble.n	8005bec <_svfprintf_r+0x60c>
 8005bcc:	4a8c      	ldr	r2, [pc, #560]	; (8005e00 <_svfprintf_r+0x820>)
 8005bce:	6022      	str	r2, [r4, #0]
 8005bd0:	2b10      	cmp	r3, #16
 8005bd2:	f300 81d0 	bgt.w	8005f76 <_svfprintf_r+0x996>
 8005bd6:	9a21      	ldr	r2, [sp, #132]	; 0x84
 8005bd8:	6063      	str	r3, [r4, #4]
 8005bda:	4413      	add	r3, r2
 8005bdc:	9321      	str	r3, [sp, #132]	; 0x84
 8005bde:	9b20      	ldr	r3, [sp, #128]	; 0x80
 8005be0:	3301      	adds	r3, #1
 8005be2:	2b07      	cmp	r3, #7
 8005be4:	9320      	str	r3, [sp, #128]	; 0x80
 8005be6:	f300 81df 	bgt.w	8005fa8 <_svfprintf_r+0x9c8>
 8005bea:	3408      	adds	r4, #8
 8005bec:	eba6 0609 	sub.w	r6, r6, r9
 8005bf0:	2e00      	cmp	r6, #0
 8005bf2:	dd0f      	ble.n	8005c14 <_svfprintf_r+0x634>
 8005bf4:	4b82      	ldr	r3, [pc, #520]	; (8005e00 <_svfprintf_r+0x820>)
 8005bf6:	6023      	str	r3, [r4, #0]
 8005bf8:	2e10      	cmp	r6, #16
 8005bfa:	f300 81df 	bgt.w	8005fbc <_svfprintf_r+0x9dc>
 8005bfe:	9b20      	ldr	r3, [sp, #128]	; 0x80
 8005c00:	9821      	ldr	r0, [sp, #132]	; 0x84
 8005c02:	6066      	str	r6, [r4, #4]
 8005c04:	3301      	adds	r3, #1
 8005c06:	4406      	add	r6, r0
 8005c08:	2b07      	cmp	r3, #7
 8005c0a:	9621      	str	r6, [sp, #132]	; 0x84
 8005c0c:	9320      	str	r3, [sp, #128]	; 0x80
 8005c0e:	f300 81ec 	bgt.w	8005fea <_svfprintf_r+0xa0a>
 8005c12:	3408      	adds	r4, #8
 8005c14:	05eb      	lsls	r3, r5, #23
 8005c16:	f100 81f2 	bmi.w	8005ffe <_svfprintf_r+0xa1e>
 8005c1a:	9b21      	ldr	r3, [sp, #132]	; 0x84
 8005c1c:	e884 0300 	stmia.w	r4, {r8, r9}
 8005c20:	444b      	add	r3, r9
 8005c22:	9321      	str	r3, [sp, #132]	; 0x84
 8005c24:	9b20      	ldr	r3, [sp, #128]	; 0x80
 8005c26:	3301      	adds	r3, #1
 8005c28:	2b07      	cmp	r3, #7
 8005c2a:	9320      	str	r3, [sp, #128]	; 0x80
 8005c2c:	f340 8419 	ble.w	8006462 <_svfprintf_r+0xe82>
 8005c30:	aa1f      	add	r2, sp, #124	; 0x7c
 8005c32:	4651      	mov	r1, sl
 8005c34:	4658      	mov	r0, fp
 8005c36:	f002 f823 	bl	8007c80 <__ssprint_r>
 8005c3a:	2800      	cmp	r0, #0
 8005c3c:	f040 8431 	bne.w	80064a2 <_svfprintf_r+0xec2>
 8005c40:	ac2c      	add	r4, sp, #176	; 0xb0
 8005c42:	076b      	lsls	r3, r5, #29
 8005c44:	f100 8410 	bmi.w	8006468 <_svfprintf_r+0xe88>
 8005c48:	9b09      	ldr	r3, [sp, #36]	; 0x24
 8005c4a:	9a0a      	ldr	r2, [sp, #40]	; 0x28
 8005c4c:	990b      	ldr	r1, [sp, #44]	; 0x2c
 8005c4e:	428a      	cmp	r2, r1
 8005c50:	bfac      	ite	ge
 8005c52:	189b      	addge	r3, r3, r2
 8005c54:	185b      	addlt	r3, r3, r1
 8005c56:	9309      	str	r3, [sp, #36]	; 0x24
 8005c58:	9b21      	ldr	r3, [sp, #132]	; 0x84
 8005c5a:	b13b      	cbz	r3, 8005c6c <_svfprintf_r+0x68c>
 8005c5c:	aa1f      	add	r2, sp, #124	; 0x7c
 8005c5e:	4651      	mov	r1, sl
 8005c60:	4658      	mov	r0, fp
 8005c62:	f002 f80d 	bl	8007c80 <__ssprint_r>
 8005c66:	2800      	cmp	r0, #0
 8005c68:	f040 841b 	bne.w	80064a2 <_svfprintf_r+0xec2>
 8005c6c:	2300      	movs	r3, #0
 8005c6e:	9320      	str	r3, [sp, #128]	; 0x80
 8005c70:	9f04      	ldr	r7, [sp, #16]
 8005c72:	ac2c      	add	r4, sp, #176	; 0xb0
 8005c74:	e4ee      	b.n	8005654 <_svfprintf_r+0x74>
 8005c76:	9b02      	ldr	r3, [sp, #8]
 8005c78:	2b65      	cmp	r3, #101	; 0x65
 8005c7a:	f77f af0b 	ble.w	8005a94 <_svfprintf_r+0x4b4>
 8005c7e:	9b02      	ldr	r3, [sp, #8]
 8005c80:	2b66      	cmp	r3, #102	; 0x66
 8005c82:	d124      	bne.n	8005cce <_svfprintf_r+0x6ee>
 8005c84:	9b19      	ldr	r3, [sp, #100]	; 0x64
 8005c86:	2b00      	cmp	r3, #0
 8005c88:	dd19      	ble.n	8005cbe <_svfprintf_r+0x6de>
 8005c8a:	f1b9 0f00 	cmp.w	r9, #0
 8005c8e:	d101      	bne.n	8005c94 <_svfprintf_r+0x6b4>
 8005c90:	07ea      	lsls	r2, r5, #31
 8005c92:	d502      	bpl.n	8005c9a <_svfprintf_r+0x6ba>
 8005c94:	9a08      	ldr	r2, [sp, #32]
 8005c96:	4413      	add	r3, r2
 8005c98:	444b      	add	r3, r9
 8005c9a:	9f19      	ldr	r7, [sp, #100]	; 0x64
 8005c9c:	4699      	mov	r9, r3
 8005c9e:	e735      	b.n	8005b0c <_svfprintf_r+0x52c>
 8005ca0:	460a      	mov	r2, r1
 8005ca2:	e70c      	b.n	8005abe <_svfprintf_r+0x4de>
 8005ca4:	f812 1b01 	ldrb.w	r1, [r2], #1
 8005ca8:	f803 1b01 	strb.w	r1, [r3], #1
 8005cac:	e71c      	b.n	8005ae8 <_svfprintf_r+0x508>
 8005cae:	2230      	movs	r2, #48	; 0x30
 8005cb0:	4413      	add	r3, r2
 8005cb2:	f88d 206e 	strb.w	r2, [sp, #110]	; 0x6e
 8005cb6:	f88d 306f 	strb.w	r3, [sp, #111]	; 0x6f
 8005cba:	a91c      	add	r1, sp, #112	; 0x70
 8005cbc:	e718      	b.n	8005af0 <_svfprintf_r+0x510>
 8005cbe:	f1b9 0f00 	cmp.w	r9, #0
 8005cc2:	d101      	bne.n	8005cc8 <_svfprintf_r+0x6e8>
 8005cc4:	07eb      	lsls	r3, r5, #31
 8005cc6:	d515      	bpl.n	8005cf4 <_svfprintf_r+0x714>
 8005cc8:	9b08      	ldr	r3, [sp, #32]
 8005cca:	3301      	adds	r3, #1
 8005ccc:	e7e4      	b.n	8005c98 <_svfprintf_r+0x6b8>
 8005cce:	9a19      	ldr	r2, [sp, #100]	; 0x64
 8005cd0:	9b03      	ldr	r3, [sp, #12]
 8005cd2:	429a      	cmp	r2, r3
 8005cd4:	db06      	blt.n	8005ce4 <_svfprintf_r+0x704>
 8005cd6:	07ef      	lsls	r7, r5, #31
 8005cd8:	d50e      	bpl.n	8005cf8 <_svfprintf_r+0x718>
 8005cda:	9b08      	ldr	r3, [sp, #32]
 8005cdc:	4413      	add	r3, r2
 8005cde:	2267      	movs	r2, #103	; 0x67
 8005ce0:	9202      	str	r2, [sp, #8]
 8005ce2:	e7da      	b.n	8005c9a <_svfprintf_r+0x6ba>
 8005ce4:	9b03      	ldr	r3, [sp, #12]
 8005ce6:	9908      	ldr	r1, [sp, #32]
 8005ce8:	2a00      	cmp	r2, #0
 8005cea:	440b      	add	r3, r1
 8005cec:	dcf7      	bgt.n	8005cde <_svfprintf_r+0x6fe>
 8005cee:	f1c2 0201 	rsb	r2, r2, #1
 8005cf2:	e7f3      	b.n	8005cdc <_svfprintf_r+0x6fc>
 8005cf4:	2301      	movs	r3, #1
 8005cf6:	e7d0      	b.n	8005c9a <_svfprintf_r+0x6ba>
 8005cf8:	4613      	mov	r3, r2
 8005cfa:	e7f0      	b.n	8005cde <_svfprintf_r+0x6fe>
 8005cfc:	b10b      	cbz	r3, 8005d02 <_svfprintf_r+0x722>
 8005cfe:	f88d 205f 	strb.w	r2, [sp, #95]	; 0x5f
 8005d02:	f015 0f20 	tst.w	r5, #32
 8005d06:	f107 0304 	add.w	r3, r7, #4
 8005d0a:	d008      	beq.n	8005d1e <_svfprintf_r+0x73e>
 8005d0c:	9909      	ldr	r1, [sp, #36]	; 0x24
 8005d0e:	683a      	ldr	r2, [r7, #0]
 8005d10:	17ce      	asrs	r6, r1, #31
 8005d12:	4608      	mov	r0, r1
 8005d14:	4631      	mov	r1, r6
 8005d16:	e9c2 0100 	strd	r0, r1, [r2]
 8005d1a:	461f      	mov	r7, r3
 8005d1c:	e49a      	b.n	8005654 <_svfprintf_r+0x74>
 8005d1e:	06ee      	lsls	r6, r5, #27
 8005d20:	d503      	bpl.n	8005d2a <_svfprintf_r+0x74a>
 8005d22:	683a      	ldr	r2, [r7, #0]
 8005d24:	9909      	ldr	r1, [sp, #36]	; 0x24
 8005d26:	6011      	str	r1, [r2, #0]
 8005d28:	e7f7      	b.n	8005d1a <_svfprintf_r+0x73a>
 8005d2a:	0668      	lsls	r0, r5, #25
 8005d2c:	d5f9      	bpl.n	8005d22 <_svfprintf_r+0x742>
 8005d2e:	683a      	ldr	r2, [r7, #0]
 8005d30:	f8bd 1024 	ldrh.w	r1, [sp, #36]	; 0x24
 8005d34:	8011      	strh	r1, [r2, #0]
 8005d36:	e7f0      	b.n	8005d1a <_svfprintf_r+0x73a>
 8005d38:	f045 0510 	orr.w	r5, r5, #16
 8005d3c:	f015 0320 	ands.w	r3, r5, #32
 8005d40:	d022      	beq.n	8005d88 <_svfprintf_r+0x7a8>
 8005d42:	3707      	adds	r7, #7
 8005d44:	f027 0707 	bic.w	r7, r7, #7
 8005d48:	f107 0308 	add.w	r3, r7, #8
 8005d4c:	e9d7 6700 	ldrd	r6, r7, [r7]
 8005d50:	9304      	str	r3, [sp, #16]
 8005d52:	2300      	movs	r3, #0
 8005d54:	2200      	movs	r2, #0
 8005d56:	f88d 205f 	strb.w	r2, [sp, #95]	; 0x5f
 8005d5a:	f1b9 3fff 	cmp.w	r9, #4294967295
 8005d5e:	f000 83db 	beq.w	8006518 <_svfprintf_r+0xf38>
 8005d62:	f025 0280 	bic.w	r2, r5, #128	; 0x80
 8005d66:	920b      	str	r2, [sp, #44]	; 0x2c
 8005d68:	ea56 0207 	orrs.w	r2, r6, r7
 8005d6c:	f040 83d9 	bne.w	8006522 <_svfprintf_r+0xf42>
 8005d70:	f1b9 0f00 	cmp.w	r9, #0
 8005d74:	f000 80aa 	beq.w	8005ecc <_svfprintf_r+0x8ec>
 8005d78:	2b01      	cmp	r3, #1
 8005d7a:	d076      	beq.n	8005e6a <_svfprintf_r+0x88a>
 8005d7c:	2b02      	cmp	r3, #2
 8005d7e:	f000 8091 	beq.w	8005ea4 <_svfprintf_r+0x8c4>
 8005d82:	2600      	movs	r6, #0
 8005d84:	2700      	movs	r7, #0
 8005d86:	e3d2      	b.n	800652e <_svfprintf_r+0xf4e>
 8005d88:	1d3a      	adds	r2, r7, #4
 8005d8a:	f015 0110 	ands.w	r1, r5, #16
 8005d8e:	9204      	str	r2, [sp, #16]
 8005d90:	d002      	beq.n	8005d98 <_svfprintf_r+0x7b8>
 8005d92:	683e      	ldr	r6, [r7, #0]
 8005d94:	2700      	movs	r7, #0
 8005d96:	e7dd      	b.n	8005d54 <_svfprintf_r+0x774>
 8005d98:	f015 0340 	ands.w	r3, r5, #64	; 0x40
 8005d9c:	d0f9      	beq.n	8005d92 <_svfprintf_r+0x7b2>
 8005d9e:	883e      	ldrh	r6, [r7, #0]
 8005da0:	2700      	movs	r7, #0
 8005da2:	e7d6      	b.n	8005d52 <_svfprintf_r+0x772>
 8005da4:	1d3b      	adds	r3, r7, #4
 8005da6:	9304      	str	r3, [sp, #16]
 8005da8:	2330      	movs	r3, #48	; 0x30
 8005daa:	2278      	movs	r2, #120	; 0x78
 8005dac:	f88d 3060 	strb.w	r3, [sp, #96]	; 0x60
 8005db0:	4b14      	ldr	r3, [pc, #80]	; (8005e04 <_svfprintf_r+0x824>)
 8005db2:	683e      	ldr	r6, [r7, #0]
 8005db4:	9311      	str	r3, [sp, #68]	; 0x44
 8005db6:	2700      	movs	r7, #0
 8005db8:	f045 0502 	orr.w	r5, r5, #2
 8005dbc:	f88d 2061 	strb.w	r2, [sp, #97]	; 0x61
 8005dc0:	2302      	movs	r3, #2
 8005dc2:	9202      	str	r2, [sp, #8]
 8005dc4:	e7c6      	b.n	8005d54 <_svfprintf_r+0x774>
 8005dc6:	1d3b      	adds	r3, r7, #4
 8005dc8:	2600      	movs	r6, #0
 8005dca:	f1b9 3fff 	cmp.w	r9, #4294967295
 8005dce:	9304      	str	r3, [sp, #16]
 8005dd0:	f8d7 8000 	ldr.w	r8, [r7]
 8005dd4:	f88d 605f 	strb.w	r6, [sp, #95]	; 0x5f
 8005dd8:	d00a      	beq.n	8005df0 <_svfprintf_r+0x810>
 8005dda:	464a      	mov	r2, r9
 8005ddc:	4631      	mov	r1, r6
 8005dde:	4640      	mov	r0, r8
 8005de0:	f7fa fa1e 	bl	8000220 <memchr>
 8005de4:	2800      	cmp	r0, #0
 8005de6:	f000 808d 	beq.w	8005f04 <_svfprintf_r+0x924>
 8005dea:	eba0 0908 	sub.w	r9, r0, r8
 8005dee:	e5cb      	b.n	8005988 <_svfprintf_r+0x3a8>
 8005df0:	4640      	mov	r0, r8
 8005df2:	f7fa fa0d 	bl	8000210 <strlen>
 8005df6:	4681      	mov	r9, r0
 8005df8:	e5c6      	b.n	8005988 <_svfprintf_r+0x3a8>
 8005dfa:	bf00      	nop
 8005dfc:	08008698 	.word	0x08008698
 8005e00:	080086a8 	.word	0x080086a8
 8005e04:	08008685 	.word	0x08008685
 8005e08:	f045 0510 	orr.w	r5, r5, #16
 8005e0c:	06a9      	lsls	r1, r5, #26
 8005e0e:	d509      	bpl.n	8005e24 <_svfprintf_r+0x844>
 8005e10:	3707      	adds	r7, #7
 8005e12:	f027 0707 	bic.w	r7, r7, #7
 8005e16:	f107 0308 	add.w	r3, r7, #8
 8005e1a:	e9d7 6700 	ldrd	r6, r7, [r7]
 8005e1e:	9304      	str	r3, [sp, #16]
 8005e20:	2301      	movs	r3, #1
 8005e22:	e797      	b.n	8005d54 <_svfprintf_r+0x774>
 8005e24:	1d3b      	adds	r3, r7, #4
 8005e26:	f015 0f10 	tst.w	r5, #16
 8005e2a:	9304      	str	r3, [sp, #16]
 8005e2c:	d001      	beq.n	8005e32 <_svfprintf_r+0x852>
 8005e2e:	683e      	ldr	r6, [r7, #0]
 8005e30:	e002      	b.n	8005e38 <_svfprintf_r+0x858>
 8005e32:	066a      	lsls	r2, r5, #25
 8005e34:	d5fb      	bpl.n	8005e2e <_svfprintf_r+0x84e>
 8005e36:	883e      	ldrh	r6, [r7, #0]
 8005e38:	2700      	movs	r7, #0
 8005e3a:	e7f1      	b.n	8005e20 <_svfprintf_r+0x840>
 8005e3c:	b10b      	cbz	r3, 8005e42 <_svfprintf_r+0x862>
 8005e3e:	f88d 205f 	strb.w	r2, [sp, #95]	; 0x5f
 8005e42:	4ba3      	ldr	r3, [pc, #652]	; (80060d0 <_svfprintf_r+0xaf0>)
 8005e44:	e4c2      	b.n	80057cc <_svfprintf_r+0x1ec>
 8005e46:	1d3b      	adds	r3, r7, #4
 8005e48:	f015 0f10 	tst.w	r5, #16
 8005e4c:	9304      	str	r3, [sp, #16]
 8005e4e:	d001      	beq.n	8005e54 <_svfprintf_r+0x874>
 8005e50:	683e      	ldr	r6, [r7, #0]
 8005e52:	e002      	b.n	8005e5a <_svfprintf_r+0x87a>
 8005e54:	066e      	lsls	r6, r5, #25
 8005e56:	d5fb      	bpl.n	8005e50 <_svfprintf_r+0x870>
 8005e58:	883e      	ldrh	r6, [r7, #0]
 8005e5a:	2700      	movs	r7, #0
 8005e5c:	e4c2      	b.n	80057e4 <_svfprintf_r+0x204>
 8005e5e:	4643      	mov	r3, r8
 8005e60:	e366      	b.n	8006530 <_svfprintf_r+0xf50>
 8005e62:	2f00      	cmp	r7, #0
 8005e64:	bf08      	it	eq
 8005e66:	2e0a      	cmpeq	r6, #10
 8005e68:	d205      	bcs.n	8005e76 <_svfprintf_r+0x896>
 8005e6a:	f10d 08f0 	add.w	r8, sp, #240	; 0xf0
 8005e6e:	3630      	adds	r6, #48	; 0x30
 8005e70:	f808 6d41 	strb.w	r6, [r8, #-65]!
 8005e74:	e377      	b.n	8006566 <_svfprintf_r+0xf86>
 8005e76:	f10d 08b0 	add.w	r8, sp, #176	; 0xb0
 8005e7a:	4630      	mov	r0, r6
 8005e7c:	4639      	mov	r1, r7
 8005e7e:	220a      	movs	r2, #10
 8005e80:	2300      	movs	r3, #0
 8005e82:	f7fa fead 	bl	8000be0 <__aeabi_uldivmod>
 8005e86:	3230      	adds	r2, #48	; 0x30
 8005e88:	f808 2d01 	strb.w	r2, [r8, #-1]!
 8005e8c:	2300      	movs	r3, #0
 8005e8e:	4630      	mov	r0, r6
 8005e90:	4639      	mov	r1, r7
 8005e92:	220a      	movs	r2, #10
 8005e94:	f7fa fea4 	bl	8000be0 <__aeabi_uldivmod>
 8005e98:	4606      	mov	r6, r0
 8005e9a:	460f      	mov	r7, r1
 8005e9c:	ea56 0307 	orrs.w	r3, r6, r7
 8005ea0:	d1eb      	bne.n	8005e7a <_svfprintf_r+0x89a>
 8005ea2:	e360      	b.n	8006566 <_svfprintf_r+0xf86>
 8005ea4:	2600      	movs	r6, #0
 8005ea6:	2700      	movs	r7, #0
 8005ea8:	f10d 08b0 	add.w	r8, sp, #176	; 0xb0
 8005eac:	f006 030f 	and.w	r3, r6, #15
 8005eb0:	9a11      	ldr	r2, [sp, #68]	; 0x44
 8005eb2:	5cd3      	ldrb	r3, [r2, r3]
 8005eb4:	f808 3d01 	strb.w	r3, [r8, #-1]!
 8005eb8:	0933      	lsrs	r3, r6, #4
 8005eba:	ea43 7307 	orr.w	r3, r3, r7, lsl #28
 8005ebe:	093a      	lsrs	r2, r7, #4
 8005ec0:	461e      	mov	r6, r3
 8005ec2:	4617      	mov	r7, r2
 8005ec4:	ea56 0307 	orrs.w	r3, r6, r7
 8005ec8:	d1f0      	bne.n	8005eac <_svfprintf_r+0x8cc>
 8005eca:	e34c      	b.n	8006566 <_svfprintf_r+0xf86>
 8005ecc:	b93b      	cbnz	r3, 8005ede <_svfprintf_r+0x8fe>
 8005ece:	07ea      	lsls	r2, r5, #31
 8005ed0:	d505      	bpl.n	8005ede <_svfprintf_r+0x8fe>
 8005ed2:	f10d 08f0 	add.w	r8, sp, #240	; 0xf0
 8005ed6:	2330      	movs	r3, #48	; 0x30
 8005ed8:	f808 3d41 	strb.w	r3, [r8, #-65]!
 8005edc:	e343      	b.n	8006566 <_svfprintf_r+0xf86>
 8005ede:	f10d 08b0 	add.w	r8, sp, #176	; 0xb0
 8005ee2:	e340      	b.n	8006566 <_svfprintf_r+0xf86>
 8005ee4:	b10b      	cbz	r3, 8005eea <_svfprintf_r+0x90a>
 8005ee6:	f88d 205f 	strb.w	r2, [sp, #95]	; 0x5f
 8005eea:	9b02      	ldr	r3, [sp, #8]
 8005eec:	2b00      	cmp	r3, #0
 8005eee:	f000 82f7 	beq.w	80064e0 <_svfprintf_r+0xf00>
 8005ef2:	f89d 3008 	ldrb.w	r3, [sp, #8]
 8005ef6:	f88d 3088 	strb.w	r3, [sp, #136]	; 0x88
 8005efa:	2600      	movs	r6, #0
 8005efc:	f88d 605f 	strb.w	r6, [sp, #95]	; 0x5f
 8005f00:	9704      	str	r7, [sp, #16]
 8005f02:	e4e8      	b.n	80058d6 <_svfprintf_r+0x2f6>
 8005f04:	4606      	mov	r6, r0
 8005f06:	e53f      	b.n	8005988 <_svfprintf_r+0x3a8>
 8005f08:	2310      	movs	r3, #16
 8005f0a:	6063      	str	r3, [r4, #4]
 8005f0c:	9b21      	ldr	r3, [sp, #132]	; 0x84
 8005f0e:	3310      	adds	r3, #16
 8005f10:	9321      	str	r3, [sp, #132]	; 0x84
 8005f12:	9b20      	ldr	r3, [sp, #128]	; 0x80
 8005f14:	3301      	adds	r3, #1
 8005f16:	2b07      	cmp	r3, #7
 8005f18:	9320      	str	r3, [sp, #128]	; 0x80
 8005f1a:	dc04      	bgt.n	8005f26 <_svfprintf_r+0x946>
 8005f1c:	3408      	adds	r4, #8
 8005f1e:	9b0c      	ldr	r3, [sp, #48]	; 0x30
 8005f20:	3b10      	subs	r3, #16
 8005f22:	930c      	str	r3, [sp, #48]	; 0x30
 8005f24:	e615      	b.n	8005b52 <_svfprintf_r+0x572>
 8005f26:	aa1f      	add	r2, sp, #124	; 0x7c
 8005f28:	4651      	mov	r1, sl
 8005f2a:	4658      	mov	r0, fp
 8005f2c:	f001 fea8 	bl	8007c80 <__ssprint_r>
 8005f30:	2800      	cmp	r0, #0
 8005f32:	f040 82b6 	bne.w	80064a2 <_svfprintf_r+0xec2>
 8005f36:	ac2c      	add	r4, sp, #176	; 0xb0
 8005f38:	e7f1      	b.n	8005f1e <_svfprintf_r+0x93e>
 8005f3a:	aa1f      	add	r2, sp, #124	; 0x7c
 8005f3c:	4651      	mov	r1, sl
 8005f3e:	4658      	mov	r0, fp
 8005f40:	f001 fe9e 	bl	8007c80 <__ssprint_r>
 8005f44:	2800      	cmp	r0, #0
 8005f46:	f040 82ac 	bne.w	80064a2 <_svfprintf_r+0xec2>
 8005f4a:	ac2c      	add	r4, sp, #176	; 0xb0
 8005f4c:	e614      	b.n	8005b78 <_svfprintf_r+0x598>
 8005f4e:	aa1f      	add	r2, sp, #124	; 0x7c
 8005f50:	4651      	mov	r1, sl
 8005f52:	4658      	mov	r0, fp
 8005f54:	f001 fe94 	bl	8007c80 <__ssprint_r>
 8005f58:	2800      	cmp	r0, #0
 8005f5a:	f040 82a2 	bne.w	80064a2 <_svfprintf_r+0xec2>
 8005f5e:	ac2c      	add	r4, sp, #176	; 0xb0
 8005f60:	e61c      	b.n	8005b9c <_svfprintf_r+0x5bc>
 8005f62:	aa1f      	add	r2, sp, #124	; 0x7c
 8005f64:	4651      	mov	r1, sl
 8005f66:	4658      	mov	r0, fp
 8005f68:	f001 fe8a 	bl	8007c80 <__ssprint_r>
 8005f6c:	2800      	cmp	r0, #0
 8005f6e:	f040 8298 	bne.w	80064a2 <_svfprintf_r+0xec2>
 8005f72:	ac2c      	add	r4, sp, #176	; 0xb0
 8005f74:	e622      	b.n	8005bbc <_svfprintf_r+0x5dc>
 8005f76:	2210      	movs	r2, #16
 8005f78:	6062      	str	r2, [r4, #4]
 8005f7a:	9a21      	ldr	r2, [sp, #132]	; 0x84
 8005f7c:	3210      	adds	r2, #16
 8005f7e:	9221      	str	r2, [sp, #132]	; 0x84
 8005f80:	9a20      	ldr	r2, [sp, #128]	; 0x80
 8005f82:	3201      	adds	r2, #1
 8005f84:	2a07      	cmp	r2, #7
 8005f86:	9220      	str	r2, [sp, #128]	; 0x80
 8005f88:	dc02      	bgt.n	8005f90 <_svfprintf_r+0x9b0>
 8005f8a:	3408      	adds	r4, #8
 8005f8c:	3b10      	subs	r3, #16
 8005f8e:	e61d      	b.n	8005bcc <_svfprintf_r+0x5ec>
 8005f90:	aa1f      	add	r2, sp, #124	; 0x7c
 8005f92:	4651      	mov	r1, sl
 8005f94:	4658      	mov	r0, fp
 8005f96:	930c      	str	r3, [sp, #48]	; 0x30
 8005f98:	f001 fe72 	bl	8007c80 <__ssprint_r>
 8005f9c:	2800      	cmp	r0, #0
 8005f9e:	f040 8280 	bne.w	80064a2 <_svfprintf_r+0xec2>
 8005fa2:	ac2c      	add	r4, sp, #176	; 0xb0
 8005fa4:	9b0c      	ldr	r3, [sp, #48]	; 0x30
 8005fa6:	e7f1      	b.n	8005f8c <_svfprintf_r+0x9ac>
 8005fa8:	aa1f      	add	r2, sp, #124	; 0x7c
 8005faa:	4651      	mov	r1, sl
 8005fac:	4658      	mov	r0, fp
 8005fae:	f001 fe67 	bl	8007c80 <__ssprint_r>
 8005fb2:	2800      	cmp	r0, #0
 8005fb4:	f040 8275 	bne.w	80064a2 <_svfprintf_r+0xec2>
 8005fb8:	ac2c      	add	r4, sp, #176	; 0xb0
 8005fba:	e617      	b.n	8005bec <_svfprintf_r+0x60c>
 8005fbc:	2310      	movs	r3, #16
 8005fbe:	6063      	str	r3, [r4, #4]
 8005fc0:	9b21      	ldr	r3, [sp, #132]	; 0x84
 8005fc2:	3310      	adds	r3, #16
 8005fc4:	9321      	str	r3, [sp, #132]	; 0x84
 8005fc6:	9b20      	ldr	r3, [sp, #128]	; 0x80
 8005fc8:	3301      	adds	r3, #1
 8005fca:	2b07      	cmp	r3, #7
 8005fcc:	9320      	str	r3, [sp, #128]	; 0x80
 8005fce:	dc02      	bgt.n	8005fd6 <_svfprintf_r+0x9f6>
 8005fd0:	3408      	adds	r4, #8
 8005fd2:	3e10      	subs	r6, #16
 8005fd4:	e60e      	b.n	8005bf4 <_svfprintf_r+0x614>
 8005fd6:	aa1f      	add	r2, sp, #124	; 0x7c
 8005fd8:	4651      	mov	r1, sl
 8005fda:	4658      	mov	r0, fp
 8005fdc:	f001 fe50 	bl	8007c80 <__ssprint_r>
 8005fe0:	2800      	cmp	r0, #0
 8005fe2:	f040 825e 	bne.w	80064a2 <_svfprintf_r+0xec2>
 8005fe6:	ac2c      	add	r4, sp, #176	; 0xb0
 8005fe8:	e7f3      	b.n	8005fd2 <_svfprintf_r+0x9f2>
 8005fea:	aa1f      	add	r2, sp, #124	; 0x7c
 8005fec:	4651      	mov	r1, sl
 8005fee:	4658      	mov	r0, fp
 8005ff0:	f001 fe46 	bl	8007c80 <__ssprint_r>
 8005ff4:	2800      	cmp	r0, #0
 8005ff6:	f040 8254 	bne.w	80064a2 <_svfprintf_r+0xec2>
 8005ffa:	ac2c      	add	r4, sp, #176	; 0xb0
 8005ffc:	e60a      	b.n	8005c14 <_svfprintf_r+0x634>
 8005ffe:	9b02      	ldr	r3, [sp, #8]
 8006000:	2b65      	cmp	r3, #101	; 0x65
 8006002:	f340 81a9 	ble.w	8006358 <_svfprintf_r+0xd78>
 8006006:	2200      	movs	r2, #0
 8006008:	2300      	movs	r3, #0
 800600a:	e9dd 0106 	ldrd	r0, r1, [sp, #24]
 800600e:	f7fa fd77 	bl	8000b00 <__aeabi_dcmpeq>
 8006012:	2800      	cmp	r0, #0
 8006014:	d062      	beq.n	80060dc <_svfprintf_r+0xafc>
 8006016:	4b2f      	ldr	r3, [pc, #188]	; (80060d4 <_svfprintf_r+0xaf4>)
 8006018:	6023      	str	r3, [r4, #0]
 800601a:	2301      	movs	r3, #1
 800601c:	6063      	str	r3, [r4, #4]
 800601e:	9b21      	ldr	r3, [sp, #132]	; 0x84
 8006020:	3301      	adds	r3, #1
 8006022:	9321      	str	r3, [sp, #132]	; 0x84
 8006024:	9b20      	ldr	r3, [sp, #128]	; 0x80
 8006026:	3301      	adds	r3, #1
 8006028:	2b07      	cmp	r3, #7
 800602a:	9320      	str	r3, [sp, #128]	; 0x80
 800602c:	dc25      	bgt.n	800607a <_svfprintf_r+0xa9a>
 800602e:	3408      	adds	r4, #8
 8006030:	9b19      	ldr	r3, [sp, #100]	; 0x64
 8006032:	9a03      	ldr	r2, [sp, #12]
 8006034:	4293      	cmp	r3, r2
 8006036:	db02      	blt.n	800603e <_svfprintf_r+0xa5e>
 8006038:	07ee      	lsls	r6, r5, #31
 800603a:	f57f ae02 	bpl.w	8005c42 <_svfprintf_r+0x662>
 800603e:	9b0d      	ldr	r3, [sp, #52]	; 0x34
 8006040:	6023      	str	r3, [r4, #0]
 8006042:	9b08      	ldr	r3, [sp, #32]
 8006044:	6063      	str	r3, [r4, #4]
 8006046:	9a08      	ldr	r2, [sp, #32]
 8006048:	9b21      	ldr	r3, [sp, #132]	; 0x84
 800604a:	4413      	add	r3, r2
 800604c:	9321      	str	r3, [sp, #132]	; 0x84
 800604e:	9b20      	ldr	r3, [sp, #128]	; 0x80
 8006050:	3301      	adds	r3, #1
 8006052:	2b07      	cmp	r3, #7
 8006054:	9320      	str	r3, [sp, #128]	; 0x80
 8006056:	dc1a      	bgt.n	800608e <_svfprintf_r+0xaae>
 8006058:	3408      	adds	r4, #8
 800605a:	9b03      	ldr	r3, [sp, #12]
 800605c:	1e5e      	subs	r6, r3, #1
 800605e:	2e00      	cmp	r6, #0
 8006060:	f77f adef 	ble.w	8005c42 <_svfprintf_r+0x662>
 8006064:	4f1c      	ldr	r7, [pc, #112]	; (80060d8 <_svfprintf_r+0xaf8>)
 8006066:	f04f 0810 	mov.w	r8, #16
 800606a:	2e10      	cmp	r6, #16
 800606c:	6027      	str	r7, [r4, #0]
 800606e:	dc18      	bgt.n	80060a2 <_svfprintf_r+0xac2>
 8006070:	6066      	str	r6, [r4, #4]
 8006072:	9b21      	ldr	r3, [sp, #132]	; 0x84
 8006074:	441e      	add	r6, r3
 8006076:	9621      	str	r6, [sp, #132]	; 0x84
 8006078:	e5d4      	b.n	8005c24 <_svfprintf_r+0x644>
 800607a:	aa1f      	add	r2, sp, #124	; 0x7c
 800607c:	4651      	mov	r1, sl
 800607e:	4658      	mov	r0, fp
 8006080:	f001 fdfe 	bl	8007c80 <__ssprint_r>
 8006084:	2800      	cmp	r0, #0
 8006086:	f040 820c 	bne.w	80064a2 <_svfprintf_r+0xec2>
 800608a:	ac2c      	add	r4, sp, #176	; 0xb0
 800608c:	e7d0      	b.n	8006030 <_svfprintf_r+0xa50>
 800608e:	aa1f      	add	r2, sp, #124	; 0x7c
 8006090:	4651      	mov	r1, sl
 8006092:	4658      	mov	r0, fp
 8006094:	f001 fdf4 	bl	8007c80 <__ssprint_r>
 8006098:	2800      	cmp	r0, #0
 800609a:	f040 8202 	bne.w	80064a2 <_svfprintf_r+0xec2>
 800609e:	ac2c      	add	r4, sp, #176	; 0xb0
 80060a0:	e7db      	b.n	800605a <_svfprintf_r+0xa7a>
 80060a2:	9b21      	ldr	r3, [sp, #132]	; 0x84
 80060a4:	f8c4 8004 	str.w	r8, [r4, #4]
 80060a8:	3310      	adds	r3, #16
 80060aa:	9321      	str	r3, [sp, #132]	; 0x84
 80060ac:	9b20      	ldr	r3, [sp, #128]	; 0x80
 80060ae:	3301      	adds	r3, #1
 80060b0:	2b07      	cmp	r3, #7
 80060b2:	9320      	str	r3, [sp, #128]	; 0x80
 80060b4:	dc02      	bgt.n	80060bc <_svfprintf_r+0xadc>
 80060b6:	3408      	adds	r4, #8
 80060b8:	3e10      	subs	r6, #16
 80060ba:	e7d6      	b.n	800606a <_svfprintf_r+0xa8a>
 80060bc:	aa1f      	add	r2, sp, #124	; 0x7c
 80060be:	4651      	mov	r1, sl
 80060c0:	4658      	mov	r0, fp
 80060c2:	f001 fddd 	bl	8007c80 <__ssprint_r>
 80060c6:	2800      	cmp	r0, #0
 80060c8:	f040 81eb 	bne.w	80064a2 <_svfprintf_r+0xec2>
 80060cc:	ac2c      	add	r4, sp, #176	; 0xb0
 80060ce:	e7f3      	b.n	80060b8 <_svfprintf_r+0xad8>
 80060d0:	08008685 	.word	0x08008685
 80060d4:	08008696 	.word	0x08008696
 80060d8:	080086a8 	.word	0x080086a8
 80060dc:	9b19      	ldr	r3, [sp, #100]	; 0x64
 80060de:	2b00      	cmp	r3, #0
 80060e0:	dc7a      	bgt.n	80061d8 <_svfprintf_r+0xbf8>
 80060e2:	4b9b      	ldr	r3, [pc, #620]	; (8006350 <_svfprintf_r+0xd70>)
 80060e4:	6023      	str	r3, [r4, #0]
 80060e6:	2301      	movs	r3, #1
 80060e8:	6063      	str	r3, [r4, #4]
 80060ea:	9b21      	ldr	r3, [sp, #132]	; 0x84
 80060ec:	3301      	adds	r3, #1
 80060ee:	9321      	str	r3, [sp, #132]	; 0x84
 80060f0:	9b20      	ldr	r3, [sp, #128]	; 0x80
 80060f2:	3301      	adds	r3, #1
 80060f4:	2b07      	cmp	r3, #7
 80060f6:	9320      	str	r3, [sp, #128]	; 0x80
 80060f8:	dc44      	bgt.n	8006184 <_svfprintf_r+0xba4>
 80060fa:	3408      	adds	r4, #8
 80060fc:	9b19      	ldr	r3, [sp, #100]	; 0x64
 80060fe:	b923      	cbnz	r3, 800610a <_svfprintf_r+0xb2a>
 8006100:	9b03      	ldr	r3, [sp, #12]
 8006102:	b913      	cbnz	r3, 800610a <_svfprintf_r+0xb2a>
 8006104:	07e8      	lsls	r0, r5, #31
 8006106:	f57f ad9c 	bpl.w	8005c42 <_svfprintf_r+0x662>
 800610a:	9b0d      	ldr	r3, [sp, #52]	; 0x34
 800610c:	6023      	str	r3, [r4, #0]
 800610e:	9b08      	ldr	r3, [sp, #32]
 8006110:	6063      	str	r3, [r4, #4]
 8006112:	9a08      	ldr	r2, [sp, #32]
 8006114:	9b21      	ldr	r3, [sp, #132]	; 0x84
 8006116:	4413      	add	r3, r2
 8006118:	9321      	str	r3, [sp, #132]	; 0x84
 800611a:	9b20      	ldr	r3, [sp, #128]	; 0x80
 800611c:	3301      	adds	r3, #1
 800611e:	2b07      	cmp	r3, #7
 8006120:	9320      	str	r3, [sp, #128]	; 0x80
 8006122:	dc39      	bgt.n	8006198 <_svfprintf_r+0xbb8>
 8006124:	f104 0308 	add.w	r3, r4, #8
 8006128:	9e19      	ldr	r6, [sp, #100]	; 0x64
 800612a:	2e00      	cmp	r6, #0
 800612c:	da19      	bge.n	8006162 <_svfprintf_r+0xb82>
 800612e:	4f89      	ldr	r7, [pc, #548]	; (8006354 <_svfprintf_r+0xd74>)
 8006130:	4276      	negs	r6, r6
 8006132:	2410      	movs	r4, #16
 8006134:	2e10      	cmp	r6, #16
 8006136:	601f      	str	r7, [r3, #0]
 8006138:	dc38      	bgt.n	80061ac <_svfprintf_r+0xbcc>
 800613a:	9a21      	ldr	r2, [sp, #132]	; 0x84
 800613c:	605e      	str	r6, [r3, #4]
 800613e:	4416      	add	r6, r2
 8006140:	9a20      	ldr	r2, [sp, #128]	; 0x80
 8006142:	9621      	str	r6, [sp, #132]	; 0x84
 8006144:	3201      	adds	r2, #1
 8006146:	2a07      	cmp	r2, #7
 8006148:	f103 0308 	add.w	r3, r3, #8
 800614c:	9220      	str	r2, [sp, #128]	; 0x80
 800614e:	dd08      	ble.n	8006162 <_svfprintf_r+0xb82>
 8006150:	aa1f      	add	r2, sp, #124	; 0x7c
 8006152:	4651      	mov	r1, sl
 8006154:	4658      	mov	r0, fp
 8006156:	f001 fd93 	bl	8007c80 <__ssprint_r>
 800615a:	2800      	cmp	r0, #0
 800615c:	f040 81a1 	bne.w	80064a2 <_svfprintf_r+0xec2>
 8006160:	ab2c      	add	r3, sp, #176	; 0xb0
 8006162:	9a03      	ldr	r2, [sp, #12]
 8006164:	605a      	str	r2, [r3, #4]
 8006166:	9903      	ldr	r1, [sp, #12]
 8006168:	9a21      	ldr	r2, [sp, #132]	; 0x84
 800616a:	f8c3 8000 	str.w	r8, [r3]
 800616e:	440a      	add	r2, r1
 8006170:	9221      	str	r2, [sp, #132]	; 0x84
 8006172:	9a20      	ldr	r2, [sp, #128]	; 0x80
 8006174:	3201      	adds	r2, #1
 8006176:	2a07      	cmp	r2, #7
 8006178:	9220      	str	r2, [sp, #128]	; 0x80
 800617a:	f73f ad59 	bgt.w	8005c30 <_svfprintf_r+0x650>
 800617e:	f103 0408 	add.w	r4, r3, #8
 8006182:	e55e      	b.n	8005c42 <_svfprintf_r+0x662>
 8006184:	aa1f      	add	r2, sp, #124	; 0x7c
 8006186:	4651      	mov	r1, sl
 8006188:	4658      	mov	r0, fp
 800618a:	f001 fd79 	bl	8007c80 <__ssprint_r>
 800618e:	2800      	cmp	r0, #0
 8006190:	f040 8187 	bne.w	80064a2 <_svfprintf_r+0xec2>
 8006194:	ac2c      	add	r4, sp, #176	; 0xb0
 8006196:	e7b1      	b.n	80060fc <_svfprintf_r+0xb1c>
 8006198:	aa1f      	add	r2, sp, #124	; 0x7c
 800619a:	4651      	mov	r1, sl
 800619c:	4658      	mov	r0, fp
 800619e:	f001 fd6f 	bl	8007c80 <__ssprint_r>
 80061a2:	2800      	cmp	r0, #0
 80061a4:	f040 817d 	bne.w	80064a2 <_svfprintf_r+0xec2>
 80061a8:	ab2c      	add	r3, sp, #176	; 0xb0
 80061aa:	e7bd      	b.n	8006128 <_svfprintf_r+0xb48>
 80061ac:	9a21      	ldr	r2, [sp, #132]	; 0x84
 80061ae:	605c      	str	r4, [r3, #4]
 80061b0:	3210      	adds	r2, #16
 80061b2:	9221      	str	r2, [sp, #132]	; 0x84
 80061b4:	9a20      	ldr	r2, [sp, #128]	; 0x80
 80061b6:	3201      	adds	r2, #1
 80061b8:	2a07      	cmp	r2, #7
 80061ba:	9220      	str	r2, [sp, #128]	; 0x80
 80061bc:	dc02      	bgt.n	80061c4 <_svfprintf_r+0xbe4>
 80061be:	3308      	adds	r3, #8
 80061c0:	3e10      	subs	r6, #16
 80061c2:	e7b7      	b.n	8006134 <_svfprintf_r+0xb54>
 80061c4:	aa1f      	add	r2, sp, #124	; 0x7c
 80061c6:	4651      	mov	r1, sl
 80061c8:	4658      	mov	r0, fp
 80061ca:	f001 fd59 	bl	8007c80 <__ssprint_r>
 80061ce:	2800      	cmp	r0, #0
 80061d0:	f040 8167 	bne.w	80064a2 <_svfprintf_r+0xec2>
 80061d4:	ab2c      	add	r3, sp, #176	; 0xb0
 80061d6:	e7f3      	b.n	80061c0 <_svfprintf_r+0xbe0>
 80061d8:	9b03      	ldr	r3, [sp, #12]
 80061da:	42bb      	cmp	r3, r7
 80061dc:	bfa8      	it	ge
 80061de:	463b      	movge	r3, r7
 80061e0:	2b00      	cmp	r3, #0
 80061e2:	461e      	mov	r6, r3
 80061e4:	dd0b      	ble.n	80061fe <_svfprintf_r+0xc1e>
 80061e6:	6063      	str	r3, [r4, #4]
 80061e8:	9b21      	ldr	r3, [sp, #132]	; 0x84
 80061ea:	f8c4 8000 	str.w	r8, [r4]
 80061ee:	4433      	add	r3, r6
 80061f0:	9321      	str	r3, [sp, #132]	; 0x84
 80061f2:	9b20      	ldr	r3, [sp, #128]	; 0x80
 80061f4:	3301      	adds	r3, #1
 80061f6:	2b07      	cmp	r3, #7
 80061f8:	9320      	str	r3, [sp, #128]	; 0x80
 80061fa:	dc5f      	bgt.n	80062bc <_svfprintf_r+0xcdc>
 80061fc:	3408      	adds	r4, #8
 80061fe:	2e00      	cmp	r6, #0
 8006200:	bfac      	ite	ge
 8006202:	1bbe      	subge	r6, r7, r6
 8006204:	463e      	movlt	r6, r7
 8006206:	2e00      	cmp	r6, #0
 8006208:	dd0f      	ble.n	800622a <_svfprintf_r+0xc4a>
 800620a:	f8df 9148 	ldr.w	r9, [pc, #328]	; 8006354 <_svfprintf_r+0xd74>
 800620e:	f8c4 9000 	str.w	r9, [r4]
 8006212:	2e10      	cmp	r6, #16
 8006214:	dc5c      	bgt.n	80062d0 <_svfprintf_r+0xcf0>
 8006216:	9b21      	ldr	r3, [sp, #132]	; 0x84
 8006218:	6066      	str	r6, [r4, #4]
 800621a:	441e      	add	r6, r3
 800621c:	9b20      	ldr	r3, [sp, #128]	; 0x80
 800621e:	9621      	str	r6, [sp, #132]	; 0x84
 8006220:	3301      	adds	r3, #1
 8006222:	2b07      	cmp	r3, #7
 8006224:	9320      	str	r3, [sp, #128]	; 0x80
 8006226:	dc6a      	bgt.n	80062fe <_svfprintf_r+0xd1e>
 8006228:	3408      	adds	r4, #8
 800622a:	9b19      	ldr	r3, [sp, #100]	; 0x64
 800622c:	9a03      	ldr	r2, [sp, #12]
 800622e:	4293      	cmp	r3, r2
 8006230:	db01      	blt.n	8006236 <_svfprintf_r+0xc56>
 8006232:	07e9      	lsls	r1, r5, #31
 8006234:	d50d      	bpl.n	8006252 <_svfprintf_r+0xc72>
 8006236:	9b0d      	ldr	r3, [sp, #52]	; 0x34
 8006238:	6023      	str	r3, [r4, #0]
 800623a:	9b08      	ldr	r3, [sp, #32]
 800623c:	6063      	str	r3, [r4, #4]
 800623e:	9a08      	ldr	r2, [sp, #32]
 8006240:	9b21      	ldr	r3, [sp, #132]	; 0x84
 8006242:	4413      	add	r3, r2
 8006244:	9321      	str	r3, [sp, #132]	; 0x84
 8006246:	9b20      	ldr	r3, [sp, #128]	; 0x80
 8006248:	3301      	adds	r3, #1
 800624a:	2b07      	cmp	r3, #7
 800624c:	9320      	str	r3, [sp, #128]	; 0x80
 800624e:	dc60      	bgt.n	8006312 <_svfprintf_r+0xd32>
 8006250:	3408      	adds	r4, #8
 8006252:	9b03      	ldr	r3, [sp, #12]
 8006254:	9a03      	ldr	r2, [sp, #12]
 8006256:	1bde      	subs	r6, r3, r7
 8006258:	9b19      	ldr	r3, [sp, #100]	; 0x64
 800625a:	1ad3      	subs	r3, r2, r3
 800625c:	429e      	cmp	r6, r3
 800625e:	bfa8      	it	ge
 8006260:	461e      	movge	r6, r3
 8006262:	2e00      	cmp	r6, #0
 8006264:	dd0b      	ble.n	800627e <_svfprintf_r+0xc9e>
 8006266:	9b21      	ldr	r3, [sp, #132]	; 0x84
 8006268:	6066      	str	r6, [r4, #4]
 800626a:	4433      	add	r3, r6
 800626c:	9321      	str	r3, [sp, #132]	; 0x84
 800626e:	9b20      	ldr	r3, [sp, #128]	; 0x80
 8006270:	3301      	adds	r3, #1
 8006272:	4447      	add	r7, r8
 8006274:	2b07      	cmp	r3, #7
 8006276:	6027      	str	r7, [r4, #0]
 8006278:	9320      	str	r3, [sp, #128]	; 0x80
 800627a:	dc54      	bgt.n	8006326 <_svfprintf_r+0xd46>
 800627c:	3408      	adds	r4, #8
 800627e:	9b19      	ldr	r3, [sp, #100]	; 0x64
 8006280:	9a03      	ldr	r2, [sp, #12]
 8006282:	2e00      	cmp	r6, #0
 8006284:	eba2 0303 	sub.w	r3, r2, r3
 8006288:	bfac      	ite	ge
 800628a:	1b9e      	subge	r6, r3, r6
 800628c:	461e      	movlt	r6, r3
 800628e:	2e00      	cmp	r6, #0
 8006290:	f77f acd7 	ble.w	8005c42 <_svfprintf_r+0x662>
 8006294:	4f2f      	ldr	r7, [pc, #188]	; (8006354 <_svfprintf_r+0xd74>)
 8006296:	f04f 0810 	mov.w	r8, #16
 800629a:	2e10      	cmp	r6, #16
 800629c:	6027      	str	r7, [r4, #0]
 800629e:	f77f aee7 	ble.w	8006070 <_svfprintf_r+0xa90>
 80062a2:	9b21      	ldr	r3, [sp, #132]	; 0x84
 80062a4:	f8c4 8004 	str.w	r8, [r4, #4]
 80062a8:	3310      	adds	r3, #16
 80062aa:	9321      	str	r3, [sp, #132]	; 0x84
 80062ac:	9b20      	ldr	r3, [sp, #128]	; 0x80
 80062ae:	3301      	adds	r3, #1
 80062b0:	2b07      	cmp	r3, #7
 80062b2:	9320      	str	r3, [sp, #128]	; 0x80
 80062b4:	dc41      	bgt.n	800633a <_svfprintf_r+0xd5a>
 80062b6:	3408      	adds	r4, #8
 80062b8:	3e10      	subs	r6, #16
 80062ba:	e7ee      	b.n	800629a <_svfprintf_r+0xcba>
 80062bc:	aa1f      	add	r2, sp, #124	; 0x7c
 80062be:	4651      	mov	r1, sl
 80062c0:	4658      	mov	r0, fp
 80062c2:	f001 fcdd 	bl	8007c80 <__ssprint_r>
 80062c6:	2800      	cmp	r0, #0
 80062c8:	f040 80eb 	bne.w	80064a2 <_svfprintf_r+0xec2>
 80062cc:	ac2c      	add	r4, sp, #176	; 0xb0
 80062ce:	e796      	b.n	80061fe <_svfprintf_r+0xc1e>
 80062d0:	2310      	movs	r3, #16
 80062d2:	6063      	str	r3, [r4, #4]
 80062d4:	9b21      	ldr	r3, [sp, #132]	; 0x84
 80062d6:	3310      	adds	r3, #16
 80062d8:	9321      	str	r3, [sp, #132]	; 0x84
 80062da:	9b20      	ldr	r3, [sp, #128]	; 0x80
 80062dc:	3301      	adds	r3, #1
 80062de:	2b07      	cmp	r3, #7
 80062e0:	9320      	str	r3, [sp, #128]	; 0x80
 80062e2:	dc02      	bgt.n	80062ea <_svfprintf_r+0xd0a>
 80062e4:	3408      	adds	r4, #8
 80062e6:	3e10      	subs	r6, #16
 80062e8:	e791      	b.n	800620e <_svfprintf_r+0xc2e>
 80062ea:	aa1f      	add	r2, sp, #124	; 0x7c
 80062ec:	4651      	mov	r1, sl
 80062ee:	4658      	mov	r0, fp
 80062f0:	f001 fcc6 	bl	8007c80 <__ssprint_r>
 80062f4:	2800      	cmp	r0, #0
 80062f6:	f040 80d4 	bne.w	80064a2 <_svfprintf_r+0xec2>
 80062fa:	ac2c      	add	r4, sp, #176	; 0xb0
 80062fc:	e7f3      	b.n	80062e6 <_svfprintf_r+0xd06>
 80062fe:	aa1f      	add	r2, sp, #124	; 0x7c
 8006300:	4651      	mov	r1, sl
 8006302:	4658      	mov	r0, fp
 8006304:	f001 fcbc 	bl	8007c80 <__ssprint_r>
 8006308:	2800      	cmp	r0, #0
 800630a:	f040 80ca 	bne.w	80064a2 <_svfprintf_r+0xec2>
 800630e:	ac2c      	add	r4, sp, #176	; 0xb0
 8006310:	e78b      	b.n	800622a <_svfprintf_r+0xc4a>
 8006312:	aa1f      	add	r2, sp, #124	; 0x7c
 8006314:	4651      	mov	r1, sl
 8006316:	4658      	mov	r0, fp
 8006318:	f001 fcb2 	bl	8007c80 <__ssprint_r>
 800631c:	2800      	cmp	r0, #0
 800631e:	f040 80c0 	bne.w	80064a2 <_svfprintf_r+0xec2>
 8006322:	ac2c      	add	r4, sp, #176	; 0xb0
 8006324:	e795      	b.n	8006252 <_svfprintf_r+0xc72>
 8006326:	aa1f      	add	r2, sp, #124	; 0x7c
 8006328:	4651      	mov	r1, sl
 800632a:	4658      	mov	r0, fp
 800632c:	f001 fca8 	bl	8007c80 <__ssprint_r>
 8006330:	2800      	cmp	r0, #0
 8006332:	f040 80b6 	bne.w	80064a2 <_svfprintf_r+0xec2>
 8006336:	ac2c      	add	r4, sp, #176	; 0xb0
 8006338:	e7a1      	b.n	800627e <_svfprintf_r+0xc9e>
 800633a:	aa1f      	add	r2, sp, #124	; 0x7c
 800633c:	4651      	mov	r1, sl
 800633e:	4658      	mov	r0, fp
 8006340:	f001 fc9e 	bl	8007c80 <__ssprint_r>
 8006344:	2800      	cmp	r0, #0
 8006346:	f040 80ac 	bne.w	80064a2 <_svfprintf_r+0xec2>
 800634a:	ac2c      	add	r4, sp, #176	; 0xb0
 800634c:	e7b4      	b.n	80062b8 <_svfprintf_r+0xcd8>
 800634e:	bf00      	nop
 8006350:	08008696 	.word	0x08008696
 8006354:	080086a8 	.word	0x080086a8
 8006358:	9b03      	ldr	r3, [sp, #12]
 800635a:	2b01      	cmp	r3, #1
 800635c:	dc01      	bgt.n	8006362 <_svfprintf_r+0xd82>
 800635e:	07ea      	lsls	r2, r5, #31
 8006360:	d576      	bpl.n	8006450 <_svfprintf_r+0xe70>
 8006362:	2301      	movs	r3, #1
 8006364:	6063      	str	r3, [r4, #4]
 8006366:	9b21      	ldr	r3, [sp, #132]	; 0x84
 8006368:	f8c4 8000 	str.w	r8, [r4]
 800636c:	3301      	adds	r3, #1
 800636e:	9321      	str	r3, [sp, #132]	; 0x84
 8006370:	9b20      	ldr	r3, [sp, #128]	; 0x80
 8006372:	3301      	adds	r3, #1
 8006374:	2b07      	cmp	r3, #7
 8006376:	9320      	str	r3, [sp, #128]	; 0x80
 8006378:	dc36      	bgt.n	80063e8 <_svfprintf_r+0xe08>
 800637a:	3408      	adds	r4, #8
 800637c:	9b0d      	ldr	r3, [sp, #52]	; 0x34
 800637e:	6023      	str	r3, [r4, #0]
 8006380:	9b08      	ldr	r3, [sp, #32]
 8006382:	6063      	str	r3, [r4, #4]
 8006384:	9a08      	ldr	r2, [sp, #32]
 8006386:	9b21      	ldr	r3, [sp, #132]	; 0x84
 8006388:	4413      	add	r3, r2
 800638a:	9321      	str	r3, [sp, #132]	; 0x84
 800638c:	9b20      	ldr	r3, [sp, #128]	; 0x80
 800638e:	3301      	adds	r3, #1
 8006390:	2b07      	cmp	r3, #7
 8006392:	9320      	str	r3, [sp, #128]	; 0x80
 8006394:	dc31      	bgt.n	80063fa <_svfprintf_r+0xe1a>
 8006396:	3408      	adds	r4, #8
 8006398:	2300      	movs	r3, #0
 800639a:	2200      	movs	r2, #0
 800639c:	e9dd 0106 	ldrd	r0, r1, [sp, #24]
 80063a0:	f7fa fbae 	bl	8000b00 <__aeabi_dcmpeq>
 80063a4:	9b03      	ldr	r3, [sp, #12]
 80063a6:	1e5e      	subs	r6, r3, #1
 80063a8:	2800      	cmp	r0, #0
 80063aa:	d12f      	bne.n	800640c <_svfprintf_r+0xe2c>
 80063ac:	f108 0301 	add.w	r3, r8, #1
 80063b0:	e884 0048 	stmia.w	r4, {r3, r6}
 80063b4:	9b21      	ldr	r3, [sp, #132]	; 0x84
 80063b6:	9a03      	ldr	r2, [sp, #12]
 80063b8:	3b01      	subs	r3, #1
 80063ba:	4413      	add	r3, r2
 80063bc:	9321      	str	r3, [sp, #132]	; 0x84
 80063be:	9b20      	ldr	r3, [sp, #128]	; 0x80
 80063c0:	3301      	adds	r3, #1
 80063c2:	2b07      	cmp	r3, #7
 80063c4:	9320      	str	r3, [sp, #128]	; 0x80
 80063c6:	dd4a      	ble.n	800645e <_svfprintf_r+0xe7e>
 80063c8:	aa1f      	add	r2, sp, #124	; 0x7c
 80063ca:	4651      	mov	r1, sl
 80063cc:	4658      	mov	r0, fp
 80063ce:	f001 fc57 	bl	8007c80 <__ssprint_r>
 80063d2:	2800      	cmp	r0, #0
 80063d4:	d165      	bne.n	80064a2 <_svfprintf_r+0xec2>
 80063d6:	ac2c      	add	r4, sp, #176	; 0xb0
 80063d8:	ab1b      	add	r3, sp, #108	; 0x6c
 80063da:	6023      	str	r3, [r4, #0]
 80063dc:	9b10      	ldr	r3, [sp, #64]	; 0x40
 80063de:	6063      	str	r3, [r4, #4]
 80063e0:	9a10      	ldr	r2, [sp, #64]	; 0x40
 80063e2:	9b21      	ldr	r3, [sp, #132]	; 0x84
 80063e4:	4413      	add	r3, r2
 80063e6:	e41c      	b.n	8005c22 <_svfprintf_r+0x642>
 80063e8:	aa1f      	add	r2, sp, #124	; 0x7c
 80063ea:	4651      	mov	r1, sl
 80063ec:	4658      	mov	r0, fp
 80063ee:	f001 fc47 	bl	8007c80 <__ssprint_r>
 80063f2:	2800      	cmp	r0, #0
 80063f4:	d155      	bne.n	80064a2 <_svfprintf_r+0xec2>
 80063f6:	ac2c      	add	r4, sp, #176	; 0xb0
 80063f8:	e7c0      	b.n	800637c <_svfprintf_r+0xd9c>
 80063fa:	aa1f      	add	r2, sp, #124	; 0x7c
 80063fc:	4651      	mov	r1, sl
 80063fe:	4658      	mov	r0, fp
 8006400:	f001 fc3e 	bl	8007c80 <__ssprint_r>
 8006404:	2800      	cmp	r0, #0
 8006406:	d14c      	bne.n	80064a2 <_svfprintf_r+0xec2>
 8006408:	ac2c      	add	r4, sp, #176	; 0xb0
 800640a:	e7c5      	b.n	8006398 <_svfprintf_r+0xdb8>
 800640c:	2e00      	cmp	r6, #0
 800640e:	dde3      	ble.n	80063d8 <_svfprintf_r+0xdf8>
 8006410:	4f59      	ldr	r7, [pc, #356]	; (8006578 <_svfprintf_r+0xf98>)
 8006412:	f04f 0810 	mov.w	r8, #16
 8006416:	2e10      	cmp	r6, #16
 8006418:	6027      	str	r7, [r4, #0]
 800641a:	dc04      	bgt.n	8006426 <_svfprintf_r+0xe46>
 800641c:	9b21      	ldr	r3, [sp, #132]	; 0x84
 800641e:	6066      	str	r6, [r4, #4]
 8006420:	441e      	add	r6, r3
 8006422:	9621      	str	r6, [sp, #132]	; 0x84
 8006424:	e7cb      	b.n	80063be <_svfprintf_r+0xdde>
 8006426:	9b21      	ldr	r3, [sp, #132]	; 0x84
 8006428:	f8c4 8004 	str.w	r8, [r4, #4]
 800642c:	3310      	adds	r3, #16
 800642e:	9321      	str	r3, [sp, #132]	; 0x84
 8006430:	9b20      	ldr	r3, [sp, #128]	; 0x80
 8006432:	3301      	adds	r3, #1
 8006434:	2b07      	cmp	r3, #7
 8006436:	9320      	str	r3, [sp, #128]	; 0x80
 8006438:	dc02      	bgt.n	8006440 <_svfprintf_r+0xe60>
 800643a:	3408      	adds	r4, #8
 800643c:	3e10      	subs	r6, #16
 800643e:	e7ea      	b.n	8006416 <_svfprintf_r+0xe36>
 8006440:	aa1f      	add	r2, sp, #124	; 0x7c
 8006442:	4651      	mov	r1, sl
 8006444:	4658      	mov	r0, fp
 8006446:	f001 fc1b 	bl	8007c80 <__ssprint_r>
 800644a:	bb50      	cbnz	r0, 80064a2 <_svfprintf_r+0xec2>
 800644c:	ac2c      	add	r4, sp, #176	; 0xb0
 800644e:	e7f5      	b.n	800643c <_svfprintf_r+0xe5c>
 8006450:	2301      	movs	r3, #1
 8006452:	6063      	str	r3, [r4, #4]
 8006454:	9b21      	ldr	r3, [sp, #132]	; 0x84
 8006456:	f8c4 8000 	str.w	r8, [r4]
 800645a:	3301      	adds	r3, #1
 800645c:	e7ae      	b.n	80063bc <_svfprintf_r+0xddc>
 800645e:	3408      	adds	r4, #8
 8006460:	e7ba      	b.n	80063d8 <_svfprintf_r+0xdf8>
 8006462:	3408      	adds	r4, #8
 8006464:	f7ff bbed 	b.w	8005c42 <_svfprintf_r+0x662>
 8006468:	9b0a      	ldr	r3, [sp, #40]	; 0x28
 800646a:	9a0b      	ldr	r2, [sp, #44]	; 0x2c
 800646c:	1a9d      	subs	r5, r3, r2
 800646e:	2d00      	cmp	r5, #0
 8006470:	f77f abea 	ble.w	8005c48 <_svfprintf_r+0x668>
 8006474:	2610      	movs	r6, #16
 8006476:	4b41      	ldr	r3, [pc, #260]	; (800657c <_svfprintf_r+0xf9c>)
 8006478:	6023      	str	r3, [r4, #0]
 800647a:	2d10      	cmp	r5, #16
 800647c:	dc1b      	bgt.n	80064b6 <_svfprintf_r+0xed6>
 800647e:	9b21      	ldr	r3, [sp, #132]	; 0x84
 8006480:	6065      	str	r5, [r4, #4]
 8006482:	441d      	add	r5, r3
 8006484:	9b20      	ldr	r3, [sp, #128]	; 0x80
 8006486:	9521      	str	r5, [sp, #132]	; 0x84
 8006488:	3301      	adds	r3, #1
 800648a:	2b07      	cmp	r3, #7
 800648c:	9320      	str	r3, [sp, #128]	; 0x80
 800648e:	f77f abdb 	ble.w	8005c48 <_svfprintf_r+0x668>
 8006492:	aa1f      	add	r2, sp, #124	; 0x7c
 8006494:	4651      	mov	r1, sl
 8006496:	4658      	mov	r0, fp
 8006498:	f001 fbf2 	bl	8007c80 <__ssprint_r>
 800649c:	2800      	cmp	r0, #0
 800649e:	f43f abd3 	beq.w	8005c48 <_svfprintf_r+0x668>
 80064a2:	f8ba 300c 	ldrh.w	r3, [sl, #12]
 80064a6:	f013 0f40 	tst.w	r3, #64	; 0x40
 80064aa:	9b09      	ldr	r3, [sp, #36]	; 0x24
 80064ac:	bf18      	it	ne
 80064ae:	f04f 33ff 	movne.w	r3, #4294967295
 80064b2:	f7ff b8b9 	b.w	8005628 <_svfprintf_r+0x48>
 80064b6:	9b21      	ldr	r3, [sp, #132]	; 0x84
 80064b8:	6066      	str	r6, [r4, #4]
 80064ba:	3310      	adds	r3, #16
 80064bc:	9321      	str	r3, [sp, #132]	; 0x84
 80064be:	9b20      	ldr	r3, [sp, #128]	; 0x80
 80064c0:	3301      	adds	r3, #1
 80064c2:	2b07      	cmp	r3, #7
 80064c4:	9320      	str	r3, [sp, #128]	; 0x80
 80064c6:	dc02      	bgt.n	80064ce <_svfprintf_r+0xeee>
 80064c8:	3408      	adds	r4, #8
 80064ca:	3d10      	subs	r5, #16
 80064cc:	e7d3      	b.n	8006476 <_svfprintf_r+0xe96>
 80064ce:	aa1f      	add	r2, sp, #124	; 0x7c
 80064d0:	4651      	mov	r1, sl
 80064d2:	4658      	mov	r0, fp
 80064d4:	f001 fbd4 	bl	8007c80 <__ssprint_r>
 80064d8:	2800      	cmp	r0, #0
 80064da:	d1e2      	bne.n	80064a2 <_svfprintf_r+0xec2>
 80064dc:	ac2c      	add	r4, sp, #176	; 0xb0
 80064de:	e7f4      	b.n	80064ca <_svfprintf_r+0xeea>
 80064e0:	9b21      	ldr	r3, [sp, #132]	; 0x84
 80064e2:	2b00      	cmp	r3, #0
 80064e4:	d0dd      	beq.n	80064a2 <_svfprintf_r+0xec2>
 80064e6:	aa1f      	add	r2, sp, #124	; 0x7c
 80064e8:	4651      	mov	r1, sl
 80064ea:	4658      	mov	r0, fp
 80064ec:	f001 fbc8 	bl	8007c80 <__ssprint_r>
 80064f0:	e7d7      	b.n	80064a2 <_svfprintf_r+0xec2>
 80064f2:	e9dd 2306 	ldrd	r2, r3, [sp, #24]
 80064f6:	4610      	mov	r0, r2
 80064f8:	4619      	mov	r1, r3
 80064fa:	f7fa fb33 	bl	8000b64 <__aeabi_dcmpun>
 80064fe:	2800      	cmp	r0, #0
 8006500:	f43f aa44 	beq.w	800598c <_svfprintf_r+0x3ac>
 8006504:	4b1e      	ldr	r3, [pc, #120]	; (8006580 <_svfprintf_r+0xfa0>)
 8006506:	4a1f      	ldr	r2, [pc, #124]	; (8006584 <_svfprintf_r+0xfa4>)
 8006508:	f7ff ba34 	b.w	8005974 <_svfprintf_r+0x394>
 800650c:	9b1d      	ldr	r3, [sp, #116]	; 0x74
 800650e:	eba3 0308 	sub.w	r3, r3, r8
 8006512:	9303      	str	r3, [sp, #12]
 8006514:	f7ff bab5 	b.w	8005a82 <_svfprintf_r+0x4a2>
 8006518:	ea56 0207 	orrs.w	r2, r6, r7
 800651c:	950b      	str	r5, [sp, #44]	; 0x2c
 800651e:	f43f ac2b 	beq.w	8005d78 <_svfprintf_r+0x798>
 8006522:	2b01      	cmp	r3, #1
 8006524:	f43f ac9d 	beq.w	8005e62 <_svfprintf_r+0x882>
 8006528:	2b02      	cmp	r3, #2
 800652a:	f43f acbd 	beq.w	8005ea8 <_svfprintf_r+0x8c8>
 800652e:	ab2c      	add	r3, sp, #176	; 0xb0
 8006530:	08f1      	lsrs	r1, r6, #3
 8006532:	ea41 7147 	orr.w	r1, r1, r7, lsl #29
 8006536:	08f8      	lsrs	r0, r7, #3
 8006538:	f006 0207 	and.w	r2, r6, #7
 800653c:	4607      	mov	r7, r0
 800653e:	460e      	mov	r6, r1
 8006540:	3230      	adds	r2, #48	; 0x30
 8006542:	ea56 0107 	orrs.w	r1, r6, r7
 8006546:	f103 38ff 	add.w	r8, r3, #4294967295
 800654a:	f803 2c01 	strb.w	r2, [r3, #-1]
 800654e:	f47f ac86 	bne.w	8005e5e <_svfprintf_r+0x87e>
 8006552:	990b      	ldr	r1, [sp, #44]	; 0x2c
 8006554:	07c9      	lsls	r1, r1, #31
 8006556:	d506      	bpl.n	8006566 <_svfprintf_r+0xf86>
 8006558:	2a30      	cmp	r2, #48	; 0x30
 800655a:	d004      	beq.n	8006566 <_svfprintf_r+0xf86>
 800655c:	2230      	movs	r2, #48	; 0x30
 800655e:	f808 2c01 	strb.w	r2, [r8, #-1]
 8006562:	f1a3 0802 	sub.w	r8, r3, #2
 8006566:	464e      	mov	r6, r9
 8006568:	f10d 09b0 	add.w	r9, sp, #176	; 0xb0
 800656c:	eba9 0908 	sub.w	r9, r9, r8
 8006570:	9d0b      	ldr	r5, [sp, #44]	; 0x2c
 8006572:	2700      	movs	r7, #0
 8006574:	f7ff bad1 	b.w	8005b1a <_svfprintf_r+0x53a>
 8006578:	080086a8 	.word	0x080086a8
 800657c:	08008698 	.word	0x08008698
 8006580:	0800866c 	.word	0x0800866c
 8006584:	08008670 	.word	0x08008670

08006588 <quorem>:
 8006588:	e92d 4ff7 	stmdb	sp!, {r0, r1, r2, r4, r5, r6, r7, r8, r9, sl, fp, lr}
 800658c:	6903      	ldr	r3, [r0, #16]
 800658e:	690c      	ldr	r4, [r1, #16]
 8006590:	429c      	cmp	r4, r3
 8006592:	4680      	mov	r8, r0
 8006594:	f300 8082 	bgt.w	800669c <quorem+0x114>
 8006598:	3c01      	subs	r4, #1
 800659a:	f101 0714 	add.w	r7, r1, #20
 800659e:	ea4f 0e84 	mov.w	lr, r4, lsl #2
 80065a2:	f100 0614 	add.w	r6, r0, #20
 80065a6:	f857 5024 	ldr.w	r5, [r7, r4, lsl #2]
 80065aa:	f856 0024 	ldr.w	r0, [r6, r4, lsl #2]
 80065ae:	eb06 030e 	add.w	r3, r6, lr
 80065b2:	3501      	adds	r5, #1
 80065b4:	eb07 090e 	add.w	r9, r7, lr
 80065b8:	9301      	str	r3, [sp, #4]
 80065ba:	fbb0 f5f5 	udiv	r5, r0, r5
 80065be:	b395      	cbz	r5, 8006626 <quorem+0x9e>
 80065c0:	f04f 0a00 	mov.w	sl, #0
 80065c4:	4638      	mov	r0, r7
 80065c6:	46b4      	mov	ip, r6
 80065c8:	46d3      	mov	fp, sl
 80065ca:	f850 2b04 	ldr.w	r2, [r0], #4
 80065ce:	b293      	uxth	r3, r2
 80065d0:	fb05 a303 	mla	r3, r5, r3, sl
 80065d4:	ea4f 4a13 	mov.w	sl, r3, lsr #16
 80065d8:	b29b      	uxth	r3, r3
 80065da:	ebab 0303 	sub.w	r3, fp, r3
 80065de:	0c12      	lsrs	r2, r2, #16
 80065e0:	f8bc b000 	ldrh.w	fp, [ip]
 80065e4:	fb05 a202 	mla	r2, r5, r2, sl
 80065e8:	fa13 f38b 	uxtah	r3, r3, fp
 80065ec:	ea4f 4a12 	mov.w	sl, r2, lsr #16
 80065f0:	fa1f fb82 	uxth.w	fp, r2
 80065f4:	f8dc 2000 	ldr.w	r2, [ip]
 80065f8:	ebcb 4212 	rsb	r2, fp, r2, lsr #16
 80065fc:	eb02 4223 	add.w	r2, r2, r3, asr #16
 8006600:	b29b      	uxth	r3, r3
 8006602:	ea43 4302 	orr.w	r3, r3, r2, lsl #16
 8006606:	4581      	cmp	r9, r0
 8006608:	ea4f 4b22 	mov.w	fp, r2, asr #16
 800660c:	f84c 3b04 	str.w	r3, [ip], #4
 8006610:	d2db      	bcs.n	80065ca <quorem+0x42>
 8006612:	f856 300e 	ldr.w	r3, [r6, lr]
 8006616:	b933      	cbnz	r3, 8006626 <quorem+0x9e>
 8006618:	9b01      	ldr	r3, [sp, #4]
 800661a:	3b04      	subs	r3, #4
 800661c:	429e      	cmp	r6, r3
 800661e:	461a      	mov	r2, r3
 8006620:	d330      	bcc.n	8006684 <quorem+0xfc>
 8006622:	f8c8 4010 	str.w	r4, [r8, #16]
 8006626:	4640      	mov	r0, r8
 8006628:	f001 fa53 	bl	8007ad2 <__mcmp>
 800662c:	2800      	cmp	r0, #0
 800662e:	db25      	blt.n	800667c <quorem+0xf4>
 8006630:	3501      	adds	r5, #1
 8006632:	4630      	mov	r0, r6
 8006634:	f04f 0e00 	mov.w	lr, #0
 8006638:	f857 2b04 	ldr.w	r2, [r7], #4
 800663c:	f8d0 c000 	ldr.w	ip, [r0]
 8006640:	b293      	uxth	r3, r2
 8006642:	ebae 0303 	sub.w	r3, lr, r3
 8006646:	0c12      	lsrs	r2, r2, #16
 8006648:	fa13 f38c 	uxtah	r3, r3, ip
 800664c:	ebc2 421c 	rsb	r2, r2, ip, lsr #16
 8006650:	eb02 4223 	add.w	r2, r2, r3, asr #16
 8006654:	b29b      	uxth	r3, r3
 8006656:	ea43 4302 	orr.w	r3, r3, r2, lsl #16
 800665a:	45b9      	cmp	r9, r7
 800665c:	ea4f 4e22 	mov.w	lr, r2, asr #16
 8006660:	f840 3b04 	str.w	r3, [r0], #4
 8006664:	d2e8      	bcs.n	8006638 <quorem+0xb0>
 8006666:	f856 2024 	ldr.w	r2, [r6, r4, lsl #2]
 800666a:	eb06 0384 	add.w	r3, r6, r4, lsl #2
 800666e:	b92a      	cbnz	r2, 800667c <quorem+0xf4>
 8006670:	3b04      	subs	r3, #4
 8006672:	429e      	cmp	r6, r3
 8006674:	461a      	mov	r2, r3
 8006676:	d30b      	bcc.n	8006690 <quorem+0x108>
 8006678:	f8c8 4010 	str.w	r4, [r8, #16]
 800667c:	4628      	mov	r0, r5
 800667e:	b003      	add	sp, #12
 8006680:	e8bd 8ff0 	ldmia.w	sp!, {r4, r5, r6, r7, r8, r9, sl, fp, pc}
 8006684:	6812      	ldr	r2, [r2, #0]
 8006686:	3b04      	subs	r3, #4
 8006688:	2a00      	cmp	r2, #0
 800668a:	d1ca      	bne.n	8006622 <quorem+0x9a>
 800668c:	3c01      	subs	r4, #1
 800668e:	e7c5      	b.n	800661c <quorem+0x94>
 8006690:	6812      	ldr	r2, [r2, #0]
 8006692:	3b04      	subs	r3, #4
 8006694:	2a00      	cmp	r2, #0
 8006696:	d1ef      	bne.n	8006678 <quorem+0xf0>
 8006698:	3c01      	subs	r4, #1
 800669a:	e7ea      	b.n	8006672 <quorem+0xea>
 800669c:	2000      	movs	r0, #0
 800669e:	e7ee      	b.n	800667e <quorem+0xf6>

080066a0 <_dtoa_r>:
 80066a0:	e92d 4ff0 	stmdb	sp!, {r4, r5, r6, r7, r8, r9, sl, fp, lr}
 80066a4:	ec57 6b10 	vmov	r6, r7, d0
 80066a8:	b097      	sub	sp, #92	; 0x5c
 80066aa:	e9cd 6700 	strd	r6, r7, [sp]
 80066ae:	6a46      	ldr	r6, [r0, #36]	; 0x24
 80066b0:	9107      	str	r1, [sp, #28]
 80066b2:	4604      	mov	r4, r0
 80066b4:	920a      	str	r2, [sp, #40]	; 0x28
 80066b6:	930f      	str	r3, [sp, #60]	; 0x3c
 80066b8:	9d20      	ldr	r5, [sp, #128]	; 0x80
 80066ba:	b93e      	cbnz	r6, 80066cc <_dtoa_r+0x2c>
 80066bc:	2010      	movs	r0, #16
 80066be:	f000 fdcb 	bl	8007258 <malloc>
 80066c2:	6260      	str	r0, [r4, #36]	; 0x24
 80066c4:	6046      	str	r6, [r0, #4]
 80066c6:	6086      	str	r6, [r0, #8]
 80066c8:	6006      	str	r6, [r0, #0]
 80066ca:	60c6      	str	r6, [r0, #12]
 80066cc:	6a63      	ldr	r3, [r4, #36]	; 0x24
 80066ce:	6819      	ldr	r1, [r3, #0]
 80066d0:	b151      	cbz	r1, 80066e8 <_dtoa_r+0x48>
 80066d2:	685a      	ldr	r2, [r3, #4]
 80066d4:	604a      	str	r2, [r1, #4]
 80066d6:	2301      	movs	r3, #1
 80066d8:	4093      	lsls	r3, r2
 80066da:	608b      	str	r3, [r1, #8]
 80066dc:	4620      	mov	r0, r4
 80066de:	f001 f823 	bl	8007728 <_Bfree>
 80066e2:	6a63      	ldr	r3, [r4, #36]	; 0x24
 80066e4:	2200      	movs	r2, #0
 80066e6:	601a      	str	r2, [r3, #0]
 80066e8:	9b01      	ldr	r3, [sp, #4]
 80066ea:	2b00      	cmp	r3, #0
 80066ec:	bfbf      	itttt	lt
 80066ee:	2301      	movlt	r3, #1
 80066f0:	602b      	strlt	r3, [r5, #0]
 80066f2:	9b01      	ldrlt	r3, [sp, #4]
 80066f4:	f023 4300 	biclt.w	r3, r3, #2147483648	; 0x80000000
 80066f8:	bfb2      	itee	lt
 80066fa:	9301      	strlt	r3, [sp, #4]
 80066fc:	2300      	movge	r3, #0
 80066fe:	602b      	strge	r3, [r5, #0]
 8006700:	f8dd 8004 	ldr.w	r8, [sp, #4]
 8006704:	4ba8      	ldr	r3, [pc, #672]	; (80069a8 <_dtoa_r+0x308>)
 8006706:	ea33 0308 	bics.w	r3, r3, r8
 800670a:	d11b      	bne.n	8006744 <_dtoa_r+0xa4>
 800670c:	9a0f      	ldr	r2, [sp, #60]	; 0x3c
 800670e:	f242 730f 	movw	r3, #9999	; 0x270f
 8006712:	6013      	str	r3, [r2, #0]
 8006714:	9b00      	ldr	r3, [sp, #0]
 8006716:	b923      	cbnz	r3, 8006722 <_dtoa_r+0x82>
 8006718:	f3c8 0013 	ubfx	r0, r8, #0, #20
 800671c:	2800      	cmp	r0, #0
 800671e:	f000 8578 	beq.w	8007212 <_dtoa_r+0xb72>
 8006722:	9b21      	ldr	r3, [sp, #132]	; 0x84
 8006724:	b953      	cbnz	r3, 800673c <_dtoa_r+0x9c>
 8006726:	4ba1      	ldr	r3, [pc, #644]	; (80069ac <_dtoa_r+0x30c>)
 8006728:	e021      	b.n	800676e <_dtoa_r+0xce>
 800672a:	4ba1      	ldr	r3, [pc, #644]	; (80069b0 <_dtoa_r+0x310>)
 800672c:	9302      	str	r3, [sp, #8]
 800672e:	3308      	adds	r3, #8
 8006730:	9a21      	ldr	r2, [sp, #132]	; 0x84
 8006732:	6013      	str	r3, [r2, #0]
 8006734:	9802      	ldr	r0, [sp, #8]
 8006736:	b017      	add	sp, #92	; 0x5c
 8006738:	e8bd 8ff0 	ldmia.w	sp!, {r4, r5, r6, r7, r8, r9, sl, fp, pc}
 800673c:	4b9b      	ldr	r3, [pc, #620]	; (80069ac <_dtoa_r+0x30c>)
 800673e:	9302      	str	r3, [sp, #8]
 8006740:	3303      	adds	r3, #3
 8006742:	e7f5      	b.n	8006730 <_dtoa_r+0x90>
 8006744:	e9dd 6700 	ldrd	r6, r7, [sp]
 8006748:	2200      	movs	r2, #0
 800674a:	2300      	movs	r3, #0
 800674c:	4630      	mov	r0, r6
 800674e:	4639      	mov	r1, r7
 8006750:	f7fa f9d6 	bl	8000b00 <__aeabi_dcmpeq>
 8006754:	4681      	mov	r9, r0
 8006756:	b160      	cbz	r0, 8006772 <_dtoa_r+0xd2>
 8006758:	9a0f      	ldr	r2, [sp, #60]	; 0x3c
 800675a:	2301      	movs	r3, #1
 800675c:	6013      	str	r3, [r2, #0]
 800675e:	9b21      	ldr	r3, [sp, #132]	; 0x84
 8006760:	2b00      	cmp	r3, #0
 8006762:	f000 8553 	beq.w	800720c <_dtoa_r+0xb6c>
 8006766:	4b93      	ldr	r3, [pc, #588]	; (80069b4 <_dtoa_r+0x314>)
 8006768:	9a21      	ldr	r2, [sp, #132]	; 0x84
 800676a:	6013      	str	r3, [r2, #0]
 800676c:	3b01      	subs	r3, #1
 800676e:	9302      	str	r3, [sp, #8]
 8006770:	e7e0      	b.n	8006734 <_dtoa_r+0x94>
 8006772:	aa14      	add	r2, sp, #80	; 0x50
 8006774:	a915      	add	r1, sp, #84	; 0x54
 8006776:	ec47 6b10 	vmov	d0, r6, r7
 800677a:	4620      	mov	r0, r4
 800677c:	f001 fa21 	bl	8007bc2 <__d2b>
 8006780:	f3c8 550a 	ubfx	r5, r8, #20, #11
 8006784:	4682      	mov	sl, r0
 8006786:	2d00      	cmp	r5, #0
 8006788:	d07e      	beq.n	8006888 <_dtoa_r+0x1e8>
 800678a:	f3c7 0313 	ubfx	r3, r7, #0, #20
 800678e:	f043 517f 	orr.w	r1, r3, #1069547520	; 0x3fc00000
 8006792:	4630      	mov	r0, r6
 8006794:	f441 1140 	orr.w	r1, r1, #3145728	; 0x300000
 8006798:	f2a5 35ff 	subw	r5, r5, #1023	; 0x3ff
 800679c:	f8cd 9048 	str.w	r9, [sp, #72]	; 0x48
 80067a0:	2200      	movs	r2, #0
 80067a2:	4b85      	ldr	r3, [pc, #532]	; (80069b8 <_dtoa_r+0x318>)
 80067a4:	f7f9 fd90 	bl	80002c8 <__aeabi_dsub>
 80067a8:	a379      	add	r3, pc, #484	; (adr r3, 8006990 <_dtoa_r+0x2f0>)
 80067aa:	e9d3 2300 	ldrd	r2, r3, [r3]
 80067ae:	f7f9 ff3f 	bl	8000630 <__aeabi_dmul>
 80067b2:	a379      	add	r3, pc, #484	; (adr r3, 8006998 <_dtoa_r+0x2f8>)
 80067b4:	e9d3 2300 	ldrd	r2, r3, [r3]
 80067b8:	f7f9 fd88 	bl	80002cc <__adddf3>
 80067bc:	4606      	mov	r6, r0
 80067be:	4628      	mov	r0, r5
 80067c0:	460f      	mov	r7, r1
 80067c2:	f7f9 fecf 	bl	8000564 <__aeabi_i2d>
 80067c6:	a376      	add	r3, pc, #472	; (adr r3, 80069a0 <_dtoa_r+0x300>)
 80067c8:	e9d3 2300 	ldrd	r2, r3, [r3]
 80067cc:	f7f9 ff30 	bl	8000630 <__aeabi_dmul>
 80067d0:	4602      	mov	r2, r0
 80067d2:	460b      	mov	r3, r1
 80067d4:	4630      	mov	r0, r6
 80067d6:	4639      	mov	r1, r7
 80067d8:	f7f9 fd78 	bl	80002cc <__adddf3>
 80067dc:	4606      	mov	r6, r0
 80067de:	460f      	mov	r7, r1
 80067e0:	f7fa f9d6 	bl	8000b90 <__aeabi_d2iz>
 80067e4:	2200      	movs	r2, #0
 80067e6:	4683      	mov	fp, r0
 80067e8:	2300      	movs	r3, #0
 80067ea:	4630      	mov	r0, r6
 80067ec:	4639      	mov	r1, r7
 80067ee:	f7fa f991 	bl	8000b14 <__aeabi_dcmplt>
 80067f2:	b158      	cbz	r0, 800680c <_dtoa_r+0x16c>
 80067f4:	4658      	mov	r0, fp
 80067f6:	f7f9 feb5 	bl	8000564 <__aeabi_i2d>
 80067fa:	4602      	mov	r2, r0
 80067fc:	460b      	mov	r3, r1
 80067fe:	4630      	mov	r0, r6
 8006800:	4639      	mov	r1, r7
 8006802:	f7fa f97d 	bl	8000b00 <__aeabi_dcmpeq>
 8006806:	b908      	cbnz	r0, 800680c <_dtoa_r+0x16c>
 8006808:	f10b 3bff 	add.w	fp, fp, #4294967295
 800680c:	f1bb 0f16 	cmp.w	fp, #22
 8006810:	d859      	bhi.n	80068c6 <_dtoa_r+0x226>
 8006812:	496a      	ldr	r1, [pc, #424]	; (80069bc <_dtoa_r+0x31c>)
 8006814:	eb01 01cb 	add.w	r1, r1, fp, lsl #3
 8006818:	e9dd 2300 	ldrd	r2, r3, [sp]
 800681c:	e9d1 0100 	ldrd	r0, r1, [r1]
 8006820:	f7fa f996 	bl	8000b50 <__aeabi_dcmpgt>
 8006824:	2800      	cmp	r0, #0
 8006826:	d050      	beq.n	80068ca <_dtoa_r+0x22a>
 8006828:	f10b 3bff 	add.w	fp, fp, #4294967295
 800682c:	2300      	movs	r3, #0
 800682e:	930e      	str	r3, [sp, #56]	; 0x38
 8006830:	9b14      	ldr	r3, [sp, #80]	; 0x50
 8006832:	1b5d      	subs	r5, r3, r5
 8006834:	1e6b      	subs	r3, r5, #1
 8006836:	9306      	str	r3, [sp, #24]
 8006838:	bf45      	ittet	mi
 800683a:	f1c5 0301 	rsbmi	r3, r5, #1
 800683e:	9305      	strmi	r3, [sp, #20]
 8006840:	2300      	movpl	r3, #0
 8006842:	2300      	movmi	r3, #0
 8006844:	bf4c      	ite	mi
 8006846:	9306      	strmi	r3, [sp, #24]
 8006848:	9305      	strpl	r3, [sp, #20]
 800684a:	f1bb 0f00 	cmp.w	fp, #0
 800684e:	db3e      	blt.n	80068ce <_dtoa_r+0x22e>
 8006850:	9b06      	ldr	r3, [sp, #24]
 8006852:	f8cd b02c 	str.w	fp, [sp, #44]	; 0x2c
 8006856:	445b      	add	r3, fp
 8006858:	9306      	str	r3, [sp, #24]
 800685a:	2300      	movs	r3, #0
 800685c:	9308      	str	r3, [sp, #32]
 800685e:	9b07      	ldr	r3, [sp, #28]
 8006860:	2b09      	cmp	r3, #9
 8006862:	f200 80af 	bhi.w	80069c4 <_dtoa_r+0x324>
 8006866:	2b05      	cmp	r3, #5
 8006868:	bfc4      	itt	gt
 800686a:	3b04      	subgt	r3, #4
 800686c:	9307      	strgt	r3, [sp, #28]
 800686e:	9b07      	ldr	r3, [sp, #28]
 8006870:	f1a3 0302 	sub.w	r3, r3, #2
 8006874:	bfcc      	ite	gt
 8006876:	2600      	movgt	r6, #0
 8006878:	2601      	movle	r6, #1
 800687a:	2b03      	cmp	r3, #3
 800687c:	f200 80ae 	bhi.w	80069dc <_dtoa_r+0x33c>
 8006880:	e8df f003 	tbb	[pc, r3]
 8006884:	772f8482 	.word	0x772f8482
 8006888:	9b15      	ldr	r3, [sp, #84]	; 0x54
 800688a:	9d14      	ldr	r5, [sp, #80]	; 0x50
 800688c:	441d      	add	r5, r3
 800688e:	f205 4332 	addw	r3, r5, #1074	; 0x432
 8006892:	2b20      	cmp	r3, #32
 8006894:	dd11      	ble.n	80068ba <_dtoa_r+0x21a>
 8006896:	9a00      	ldr	r2, [sp, #0]
 8006898:	f205 4012 	addw	r0, r5, #1042	; 0x412
 800689c:	f1c3 0340 	rsb	r3, r3, #64	; 0x40
 80068a0:	fa22 f000 	lsr.w	r0, r2, r0
 80068a4:	fa08 f303 	lsl.w	r3, r8, r3
 80068a8:	4318      	orrs	r0, r3
 80068aa:	f7f9 fe4b 	bl	8000544 <__aeabi_ui2d>
 80068ae:	2301      	movs	r3, #1
 80068b0:	f1a1 71f8 	sub.w	r1, r1, #32505856	; 0x1f00000
 80068b4:	3d01      	subs	r5, #1
 80068b6:	9312      	str	r3, [sp, #72]	; 0x48
 80068b8:	e772      	b.n	80067a0 <_dtoa_r+0x100>
 80068ba:	f1c3 0020 	rsb	r0, r3, #32
 80068be:	9b00      	ldr	r3, [sp, #0]
 80068c0:	fa03 f000 	lsl.w	r0, r3, r0
 80068c4:	e7f1      	b.n	80068aa <_dtoa_r+0x20a>
 80068c6:	2301      	movs	r3, #1
 80068c8:	e7b1      	b.n	800682e <_dtoa_r+0x18e>
 80068ca:	900e      	str	r0, [sp, #56]	; 0x38
 80068cc:	e7b0      	b.n	8006830 <_dtoa_r+0x190>
 80068ce:	9b05      	ldr	r3, [sp, #20]
 80068d0:	eba3 030b 	sub.w	r3, r3, fp
 80068d4:	9305      	str	r3, [sp, #20]
 80068d6:	f1cb 0300 	rsb	r3, fp, #0
 80068da:	9308      	str	r3, [sp, #32]
 80068dc:	2300      	movs	r3, #0
 80068de:	930b      	str	r3, [sp, #44]	; 0x2c
 80068e0:	e7bd      	b.n	800685e <_dtoa_r+0x1be>
 80068e2:	2301      	movs	r3, #1
 80068e4:	9309      	str	r3, [sp, #36]	; 0x24
 80068e6:	9b0a      	ldr	r3, [sp, #40]	; 0x28
 80068e8:	2b00      	cmp	r3, #0
 80068ea:	dd7a      	ble.n	80069e2 <_dtoa_r+0x342>
 80068ec:	9304      	str	r3, [sp, #16]
 80068ee:	9303      	str	r3, [sp, #12]
 80068f0:	6a65      	ldr	r5, [r4, #36]	; 0x24
 80068f2:	2200      	movs	r2, #0
 80068f4:	606a      	str	r2, [r5, #4]
 80068f6:	2104      	movs	r1, #4
 80068f8:	f101 0214 	add.w	r2, r1, #20
 80068fc:	429a      	cmp	r2, r3
 80068fe:	d975      	bls.n	80069ec <_dtoa_r+0x34c>
 8006900:	6869      	ldr	r1, [r5, #4]
 8006902:	4620      	mov	r0, r4
 8006904:	f000 fedc 	bl	80076c0 <_Balloc>
 8006908:	6a63      	ldr	r3, [r4, #36]	; 0x24
 800690a:	6028      	str	r0, [r5, #0]
 800690c:	681b      	ldr	r3, [r3, #0]
 800690e:	9302      	str	r3, [sp, #8]
 8006910:	9b03      	ldr	r3, [sp, #12]
 8006912:	2b0e      	cmp	r3, #14
 8006914:	f200 80e5 	bhi.w	8006ae2 <_dtoa_r+0x442>
 8006918:	2e00      	cmp	r6, #0
 800691a:	f000 80e2 	beq.w	8006ae2 <_dtoa_r+0x442>
 800691e:	ed9d 7b00 	vldr	d7, [sp]
 8006922:	f1bb 0f00 	cmp.w	fp, #0
 8006926:	ed8d 7b0c 	vstr	d7, [sp, #48]	; 0x30
 800692a:	dd74      	ble.n	8006a16 <_dtoa_r+0x376>
 800692c:	4a23      	ldr	r2, [pc, #140]	; (80069bc <_dtoa_r+0x31c>)
 800692e:	f00b 030f 	and.w	r3, fp, #15
 8006932:	ea4f 162b 	mov.w	r6, fp, asr #4
 8006936:	eb02 03c3 	add.w	r3, r2, r3, lsl #3
 800693a:	06f0      	lsls	r0, r6, #27
 800693c:	e9d3 8900 	ldrd	r8, r9, [r3]
 8006940:	d559      	bpl.n	80069f6 <_dtoa_r+0x356>
 8006942:	4b1f      	ldr	r3, [pc, #124]	; (80069c0 <_dtoa_r+0x320>)
 8006944:	ec51 0b17 	vmov	r0, r1, d7
 8006948:	e9d3 2308 	ldrd	r2, r3, [r3, #32]
 800694c:	f7f9 ff9a 	bl	8000884 <__aeabi_ddiv>
 8006950:	e9cd 0100 	strd	r0, r1, [sp]
 8006954:	f006 060f 	and.w	r6, r6, #15
 8006958:	2503      	movs	r5, #3
 800695a:	4f19      	ldr	r7, [pc, #100]	; (80069c0 <_dtoa_r+0x320>)
 800695c:	2e00      	cmp	r6, #0
 800695e:	d14c      	bne.n	80069fa <_dtoa_r+0x35a>
 8006960:	4642      	mov	r2, r8
 8006962:	464b      	mov	r3, r9
 8006964:	e9dd 0100 	ldrd	r0, r1, [sp]
 8006968:	f7f9 ff8c 	bl	8000884 <__aeabi_ddiv>
 800696c:	e9cd 0100 	strd	r0, r1, [sp]
 8006970:	e06a      	b.n	8006a48 <_dtoa_r+0x3a8>
 8006972:	2301      	movs	r3, #1
 8006974:	9309      	str	r3, [sp, #36]	; 0x24
 8006976:	9b0a      	ldr	r3, [sp, #40]	; 0x28
 8006978:	445b      	add	r3, fp
 800697a:	9304      	str	r3, [sp, #16]
 800697c:	3301      	adds	r3, #1
 800697e:	2b01      	cmp	r3, #1
 8006980:	9303      	str	r3, [sp, #12]
 8006982:	bfb8      	it	lt
 8006984:	2301      	movlt	r3, #1
 8006986:	e7b3      	b.n	80068f0 <_dtoa_r+0x250>
 8006988:	2300      	movs	r3, #0
 800698a:	e7ab      	b.n	80068e4 <_dtoa_r+0x244>
 800698c:	2300      	movs	r3, #0
 800698e:	e7f1      	b.n	8006974 <_dtoa_r+0x2d4>
 8006990:	636f4361 	.word	0x636f4361
 8006994:	3fd287a7 	.word	0x3fd287a7
 8006998:	8b60c8b3 	.word	0x8b60c8b3
 800699c:	3fc68a28 	.word	0x3fc68a28
 80069a0:	509f79fb 	.word	0x509f79fb
 80069a4:	3fd34413 	.word	0x3fd34413
 80069a8:	7ff00000 	.word	0x7ff00000
 80069ac:	080086c1 	.word	0x080086c1
 80069b0:	080086b8 	.word	0x080086b8
 80069b4:	08008697 	.word	0x08008697
 80069b8:	3ff80000 	.word	0x3ff80000
 80069bc:	080086f8 	.word	0x080086f8
 80069c0:	080086d0 	.word	0x080086d0
 80069c4:	2601      	movs	r6, #1
 80069c6:	2300      	movs	r3, #0
 80069c8:	9307      	str	r3, [sp, #28]
 80069ca:	9609      	str	r6, [sp, #36]	; 0x24
 80069cc:	f04f 33ff 	mov.w	r3, #4294967295
 80069d0:	9304      	str	r3, [sp, #16]
 80069d2:	9303      	str	r3, [sp, #12]
 80069d4:	2200      	movs	r2, #0
 80069d6:	2312      	movs	r3, #18
 80069d8:	920a      	str	r2, [sp, #40]	; 0x28
 80069da:	e789      	b.n	80068f0 <_dtoa_r+0x250>
 80069dc:	2301      	movs	r3, #1
 80069de:	9309      	str	r3, [sp, #36]	; 0x24
 80069e0:	e7f4      	b.n	80069cc <_dtoa_r+0x32c>
 80069e2:	2301      	movs	r3, #1
 80069e4:	9304      	str	r3, [sp, #16]
 80069e6:	9303      	str	r3, [sp, #12]
 80069e8:	461a      	mov	r2, r3
 80069ea:	e7f5      	b.n	80069d8 <_dtoa_r+0x338>
 80069ec:	686a      	ldr	r2, [r5, #4]
 80069ee:	3201      	adds	r2, #1
 80069f0:	606a      	str	r2, [r5, #4]
 80069f2:	0049      	lsls	r1, r1, #1
 80069f4:	e780      	b.n	80068f8 <_dtoa_r+0x258>
 80069f6:	2502      	movs	r5, #2
 80069f8:	e7af      	b.n	800695a <_dtoa_r+0x2ba>
 80069fa:	07f1      	lsls	r1, r6, #31
 80069fc:	d508      	bpl.n	8006a10 <_dtoa_r+0x370>
 80069fe:	4640      	mov	r0, r8
 8006a00:	4649      	mov	r1, r9
 8006a02:	e9d7 2300 	ldrd	r2, r3, [r7]
 8006a06:	f7f9 fe13 	bl	8000630 <__aeabi_dmul>
 8006a0a:	3501      	adds	r5, #1
 8006a0c:	4680      	mov	r8, r0
 8006a0e:	4689      	mov	r9, r1
 8006a10:	1076      	asrs	r6, r6, #1
 8006a12:	3708      	adds	r7, #8
 8006a14:	e7a2      	b.n	800695c <_dtoa_r+0x2bc>
 8006a16:	f000 809d 	beq.w	8006b54 <_dtoa_r+0x4b4>
 8006a1a:	f1cb 0600 	rsb	r6, fp, #0
 8006a1e:	4b9f      	ldr	r3, [pc, #636]	; (8006c9c <_dtoa_r+0x5fc>)
 8006a20:	4f9f      	ldr	r7, [pc, #636]	; (8006ca0 <_dtoa_r+0x600>)
 8006a22:	f006 020f 	and.w	r2, r6, #15
 8006a26:	eb03 03c2 	add.w	r3, r3, r2, lsl #3
 8006a2a:	e9d3 2300 	ldrd	r2, r3, [r3]
 8006a2e:	e9dd 010c 	ldrd	r0, r1, [sp, #48]	; 0x30
 8006a32:	f7f9 fdfd 	bl	8000630 <__aeabi_dmul>
 8006a36:	e9cd 0100 	strd	r0, r1, [sp]
 8006a3a:	1136      	asrs	r6, r6, #4
 8006a3c:	2300      	movs	r3, #0
 8006a3e:	2502      	movs	r5, #2
 8006a40:	2e00      	cmp	r6, #0
 8006a42:	d17c      	bne.n	8006b3e <_dtoa_r+0x49e>
 8006a44:	2b00      	cmp	r3, #0
 8006a46:	d191      	bne.n	800696c <_dtoa_r+0x2cc>
 8006a48:	9b0e      	ldr	r3, [sp, #56]	; 0x38
 8006a4a:	2b00      	cmp	r3, #0
 8006a4c:	f000 8084 	beq.w	8006b58 <_dtoa_r+0x4b8>
 8006a50:	e9dd 8900 	ldrd	r8, r9, [sp]
 8006a54:	2200      	movs	r2, #0
 8006a56:	4b93      	ldr	r3, [pc, #588]	; (8006ca4 <_dtoa_r+0x604>)
 8006a58:	4640      	mov	r0, r8
 8006a5a:	4649      	mov	r1, r9
 8006a5c:	f7fa f85a 	bl	8000b14 <__aeabi_dcmplt>
 8006a60:	2800      	cmp	r0, #0
 8006a62:	d079      	beq.n	8006b58 <_dtoa_r+0x4b8>
 8006a64:	9b03      	ldr	r3, [sp, #12]
 8006a66:	2b00      	cmp	r3, #0
 8006a68:	d076      	beq.n	8006b58 <_dtoa_r+0x4b8>
 8006a6a:	9b04      	ldr	r3, [sp, #16]
 8006a6c:	2b00      	cmp	r3, #0
 8006a6e:	dd34      	ble.n	8006ada <_dtoa_r+0x43a>
 8006a70:	2200      	movs	r2, #0
 8006a72:	4b8d      	ldr	r3, [pc, #564]	; (8006ca8 <_dtoa_r+0x608>)
 8006a74:	4640      	mov	r0, r8
 8006a76:	4649      	mov	r1, r9
 8006a78:	f7f9 fdda 	bl	8000630 <__aeabi_dmul>
 8006a7c:	e9cd 0100 	strd	r0, r1, [sp]
 8006a80:	9e04      	ldr	r6, [sp, #16]
 8006a82:	f10b 37ff 	add.w	r7, fp, #4294967295
 8006a86:	3501      	adds	r5, #1
 8006a88:	4628      	mov	r0, r5
 8006a8a:	f7f9 fd6b 	bl	8000564 <__aeabi_i2d>
 8006a8e:	e9dd 2300 	ldrd	r2, r3, [sp]
 8006a92:	f7f9 fdcd 	bl	8000630 <__aeabi_dmul>
 8006a96:	2200      	movs	r2, #0
 8006a98:	4b84      	ldr	r3, [pc, #528]	; (8006cac <_dtoa_r+0x60c>)
 8006a9a:	f7f9 fc17 	bl	80002cc <__adddf3>
 8006a9e:	4680      	mov	r8, r0
 8006aa0:	f1a1 7950 	sub.w	r9, r1, #54525952	; 0x3400000
 8006aa4:	2e00      	cmp	r6, #0
 8006aa6:	d15a      	bne.n	8006b5e <_dtoa_r+0x4be>
 8006aa8:	2200      	movs	r2, #0
 8006aaa:	4b81      	ldr	r3, [pc, #516]	; (8006cb0 <_dtoa_r+0x610>)
 8006aac:	e9dd 0100 	ldrd	r0, r1, [sp]
 8006ab0:	f7f9 fc0a 	bl	80002c8 <__aeabi_dsub>
 8006ab4:	4642      	mov	r2, r8
 8006ab6:	464b      	mov	r3, r9
 8006ab8:	e9cd 0100 	strd	r0, r1, [sp]
 8006abc:	f7fa f848 	bl	8000b50 <__aeabi_dcmpgt>
 8006ac0:	2800      	cmp	r0, #0
 8006ac2:	f040 829b 	bne.w	8006ffc <_dtoa_r+0x95c>
 8006ac6:	4642      	mov	r2, r8
 8006ac8:	f109 4300 	add.w	r3, r9, #2147483648	; 0x80000000
 8006acc:	e9dd 0100 	ldrd	r0, r1, [sp]
 8006ad0:	f7fa f820 	bl	8000b14 <__aeabi_dcmplt>
 8006ad4:	2800      	cmp	r0, #0
 8006ad6:	f040 828f 	bne.w	8006ff8 <_dtoa_r+0x958>
 8006ada:	e9dd 230c 	ldrd	r2, r3, [sp, #48]	; 0x30
 8006ade:	e9cd 2300 	strd	r2, r3, [sp]
 8006ae2:	9b15      	ldr	r3, [sp, #84]	; 0x54
 8006ae4:	2b00      	cmp	r3, #0
 8006ae6:	f2c0 8150 	blt.w	8006d8a <_dtoa_r+0x6ea>
 8006aea:	f1bb 0f0e 	cmp.w	fp, #14
 8006aee:	f300 814c 	bgt.w	8006d8a <_dtoa_r+0x6ea>
 8006af2:	4b6a      	ldr	r3, [pc, #424]	; (8006c9c <_dtoa_r+0x5fc>)
 8006af4:	eb03 03cb 	add.w	r3, r3, fp, lsl #3
 8006af8:	e9d3 8900 	ldrd	r8, r9, [r3]
 8006afc:	9b0a      	ldr	r3, [sp, #40]	; 0x28
 8006afe:	2b00      	cmp	r3, #0
 8006b00:	f280 80da 	bge.w	8006cb8 <_dtoa_r+0x618>
 8006b04:	9b03      	ldr	r3, [sp, #12]
 8006b06:	2b00      	cmp	r3, #0
 8006b08:	f300 80d6 	bgt.w	8006cb8 <_dtoa_r+0x618>
 8006b0c:	f040 8273 	bne.w	8006ff6 <_dtoa_r+0x956>
 8006b10:	2200      	movs	r2, #0
 8006b12:	4b67      	ldr	r3, [pc, #412]	; (8006cb0 <_dtoa_r+0x610>)
 8006b14:	4640      	mov	r0, r8
 8006b16:	4649      	mov	r1, r9
 8006b18:	f7f9 fd8a 	bl	8000630 <__aeabi_dmul>
 8006b1c:	e9dd 2300 	ldrd	r2, r3, [sp]
 8006b20:	f7fa f80c 	bl	8000b3c <__aeabi_dcmpge>
 8006b24:	9e03      	ldr	r6, [sp, #12]
 8006b26:	4637      	mov	r7, r6
 8006b28:	2800      	cmp	r0, #0
 8006b2a:	f040 824a 	bne.w	8006fc2 <_dtoa_r+0x922>
 8006b2e:	9b02      	ldr	r3, [sp, #8]
 8006b30:	9a02      	ldr	r2, [sp, #8]
 8006b32:	1c5d      	adds	r5, r3, #1
 8006b34:	2331      	movs	r3, #49	; 0x31
 8006b36:	7013      	strb	r3, [r2, #0]
 8006b38:	f10b 0b01 	add.w	fp, fp, #1
 8006b3c:	e245      	b.n	8006fca <_dtoa_r+0x92a>
 8006b3e:	07f2      	lsls	r2, r6, #31
 8006b40:	d505      	bpl.n	8006b4e <_dtoa_r+0x4ae>
 8006b42:	e9d7 2300 	ldrd	r2, r3, [r7]
 8006b46:	f7f9 fd73 	bl	8000630 <__aeabi_dmul>
 8006b4a:	3501      	adds	r5, #1
 8006b4c:	2301      	movs	r3, #1
 8006b4e:	1076      	asrs	r6, r6, #1
 8006b50:	3708      	adds	r7, #8
 8006b52:	e775      	b.n	8006a40 <_dtoa_r+0x3a0>
 8006b54:	2502      	movs	r5, #2
 8006b56:	e777      	b.n	8006a48 <_dtoa_r+0x3a8>
 8006b58:	465f      	mov	r7, fp
 8006b5a:	9e03      	ldr	r6, [sp, #12]
 8006b5c:	e794      	b.n	8006a88 <_dtoa_r+0x3e8>
 8006b5e:	9a02      	ldr	r2, [sp, #8]
 8006b60:	4b4e      	ldr	r3, [pc, #312]	; (8006c9c <_dtoa_r+0x5fc>)
 8006b62:	4432      	add	r2, r6
 8006b64:	9213      	str	r2, [sp, #76]	; 0x4c
 8006b66:	9a09      	ldr	r2, [sp, #36]	; 0x24
 8006b68:	1e71      	subs	r1, r6, #1
 8006b6a:	2a00      	cmp	r2, #0
 8006b6c:	d048      	beq.n	8006c00 <_dtoa_r+0x560>
 8006b6e:	eb03 03c1 	add.w	r3, r3, r1, lsl #3
 8006b72:	e9d3 2300 	ldrd	r2, r3, [r3]
 8006b76:	2000      	movs	r0, #0
 8006b78:	494e      	ldr	r1, [pc, #312]	; (8006cb4 <_dtoa_r+0x614>)
 8006b7a:	f7f9 fe83 	bl	8000884 <__aeabi_ddiv>
 8006b7e:	4642      	mov	r2, r8
 8006b80:	464b      	mov	r3, r9
 8006b82:	f7f9 fba1 	bl	80002c8 <__aeabi_dsub>
 8006b86:	9d02      	ldr	r5, [sp, #8]
 8006b88:	4680      	mov	r8, r0
 8006b8a:	4689      	mov	r9, r1
 8006b8c:	e9dd 0100 	ldrd	r0, r1, [sp]
 8006b90:	f7f9 fffe 	bl	8000b90 <__aeabi_d2iz>
 8006b94:	4606      	mov	r6, r0
 8006b96:	f7f9 fce5 	bl	8000564 <__aeabi_i2d>
 8006b9a:	4602      	mov	r2, r0
 8006b9c:	460b      	mov	r3, r1
 8006b9e:	e9dd 0100 	ldrd	r0, r1, [sp]
 8006ba2:	f7f9 fb91 	bl	80002c8 <__aeabi_dsub>
 8006ba6:	3630      	adds	r6, #48	; 0x30
 8006ba8:	f805 6b01 	strb.w	r6, [r5], #1
 8006bac:	4642      	mov	r2, r8
 8006bae:	464b      	mov	r3, r9
 8006bb0:	e9cd 0100 	strd	r0, r1, [sp]
 8006bb4:	f7f9 ffae 	bl	8000b14 <__aeabi_dcmplt>
 8006bb8:	2800      	cmp	r0, #0
 8006bba:	d165      	bne.n	8006c88 <_dtoa_r+0x5e8>
 8006bbc:	e9dd 2300 	ldrd	r2, r3, [sp]
 8006bc0:	2000      	movs	r0, #0
 8006bc2:	4938      	ldr	r1, [pc, #224]	; (8006ca4 <_dtoa_r+0x604>)
 8006bc4:	f7f9 fb80 	bl	80002c8 <__aeabi_dsub>
 8006bc8:	4642      	mov	r2, r8
 8006bca:	464b      	mov	r3, r9
 8006bcc:	f7f9 ffa2 	bl	8000b14 <__aeabi_dcmplt>
 8006bd0:	2800      	cmp	r0, #0
 8006bd2:	f040 80ba 	bne.w	8006d4a <_dtoa_r+0x6aa>
 8006bd6:	9b13      	ldr	r3, [sp, #76]	; 0x4c
 8006bd8:	429d      	cmp	r5, r3
 8006bda:	f43f af7e 	beq.w	8006ada <_dtoa_r+0x43a>
 8006bde:	2200      	movs	r2, #0
 8006be0:	4b31      	ldr	r3, [pc, #196]	; (8006ca8 <_dtoa_r+0x608>)
 8006be2:	4640      	mov	r0, r8
 8006be4:	4649      	mov	r1, r9
 8006be6:	f7f9 fd23 	bl	8000630 <__aeabi_dmul>
 8006bea:	2200      	movs	r2, #0
 8006bec:	4680      	mov	r8, r0
 8006bee:	4689      	mov	r9, r1
 8006bf0:	4b2d      	ldr	r3, [pc, #180]	; (8006ca8 <_dtoa_r+0x608>)
 8006bf2:	e9dd 0100 	ldrd	r0, r1, [sp]
 8006bf6:	f7f9 fd1b 	bl	8000630 <__aeabi_dmul>
 8006bfa:	e9cd 0100 	strd	r0, r1, [sp]
 8006bfe:	e7c5      	b.n	8006b8c <_dtoa_r+0x4ec>
 8006c00:	eb03 01c1 	add.w	r1, r3, r1, lsl #3
 8006c04:	4642      	mov	r2, r8
 8006c06:	464b      	mov	r3, r9
 8006c08:	e9d1 0100 	ldrd	r0, r1, [r1]
 8006c0c:	f7f9 fd10 	bl	8000630 <__aeabi_dmul>
 8006c10:	e9cd 0110 	strd	r0, r1, [sp, #64]	; 0x40
 8006c14:	9d02      	ldr	r5, [sp, #8]
 8006c16:	e9dd 0100 	ldrd	r0, r1, [sp]
 8006c1a:	f7f9 ffb9 	bl	8000b90 <__aeabi_d2iz>
 8006c1e:	4606      	mov	r6, r0
 8006c20:	f7f9 fca0 	bl	8000564 <__aeabi_i2d>
 8006c24:	3630      	adds	r6, #48	; 0x30
 8006c26:	4602      	mov	r2, r0
 8006c28:	460b      	mov	r3, r1
 8006c2a:	e9dd 0100 	ldrd	r0, r1, [sp]
 8006c2e:	f7f9 fb4b 	bl	80002c8 <__aeabi_dsub>
 8006c32:	f805 6b01 	strb.w	r6, [r5], #1
 8006c36:	9b13      	ldr	r3, [sp, #76]	; 0x4c
 8006c38:	42ab      	cmp	r3, r5
 8006c3a:	4680      	mov	r8, r0
 8006c3c:	4689      	mov	r9, r1
 8006c3e:	f04f 0200 	mov.w	r2, #0
 8006c42:	d125      	bne.n	8006c90 <_dtoa_r+0x5f0>
 8006c44:	4b1b      	ldr	r3, [pc, #108]	; (8006cb4 <_dtoa_r+0x614>)
 8006c46:	e9dd 0110 	ldrd	r0, r1, [sp, #64]	; 0x40
 8006c4a:	f7f9 fb3f 	bl	80002cc <__adddf3>
 8006c4e:	4602      	mov	r2, r0
 8006c50:	460b      	mov	r3, r1
 8006c52:	4640      	mov	r0, r8
 8006c54:	4649      	mov	r1, r9
 8006c56:	f7f9 ff7b 	bl	8000b50 <__aeabi_dcmpgt>
 8006c5a:	2800      	cmp	r0, #0
 8006c5c:	d175      	bne.n	8006d4a <_dtoa_r+0x6aa>
 8006c5e:	e9dd 2310 	ldrd	r2, r3, [sp, #64]	; 0x40
 8006c62:	2000      	movs	r0, #0
 8006c64:	4913      	ldr	r1, [pc, #76]	; (8006cb4 <_dtoa_r+0x614>)
 8006c66:	f7f9 fb2f 	bl	80002c8 <__aeabi_dsub>
 8006c6a:	4602      	mov	r2, r0
 8006c6c:	460b      	mov	r3, r1
 8006c6e:	4640      	mov	r0, r8
 8006c70:	4649      	mov	r1, r9
 8006c72:	f7f9 ff4f 	bl	8000b14 <__aeabi_dcmplt>
 8006c76:	2800      	cmp	r0, #0
 8006c78:	f43f af2f 	beq.w	8006ada <_dtoa_r+0x43a>
 8006c7c:	f815 3c01 	ldrb.w	r3, [r5, #-1]
 8006c80:	2b30      	cmp	r3, #48	; 0x30
 8006c82:	f105 32ff 	add.w	r2, r5, #4294967295
 8006c86:	d001      	beq.n	8006c8c <_dtoa_r+0x5ec>
 8006c88:	46bb      	mov	fp, r7
 8006c8a:	e04d      	b.n	8006d28 <_dtoa_r+0x688>
 8006c8c:	4615      	mov	r5, r2
 8006c8e:	e7f5      	b.n	8006c7c <_dtoa_r+0x5dc>
 8006c90:	4b05      	ldr	r3, [pc, #20]	; (8006ca8 <_dtoa_r+0x608>)
 8006c92:	f7f9 fccd 	bl	8000630 <__aeabi_dmul>
 8006c96:	e9cd 0100 	strd	r0, r1, [sp]
 8006c9a:	e7bc      	b.n	8006c16 <_dtoa_r+0x576>
 8006c9c:	080086f8 	.word	0x080086f8
 8006ca0:	080086d0 	.word	0x080086d0
 8006ca4:	3ff00000 	.word	0x3ff00000
 8006ca8:	40240000 	.word	0x40240000
 8006cac:	401c0000 	.word	0x401c0000
 8006cb0:	40140000 	.word	0x40140000
 8006cb4:	3fe00000 	.word	0x3fe00000
 8006cb8:	e9dd 6700 	ldrd	r6, r7, [sp]
 8006cbc:	9d02      	ldr	r5, [sp, #8]
 8006cbe:	4642      	mov	r2, r8
 8006cc0:	464b      	mov	r3, r9
 8006cc2:	4630      	mov	r0, r6
 8006cc4:	4639      	mov	r1, r7
 8006cc6:	f7f9 fddd 	bl	8000884 <__aeabi_ddiv>
 8006cca:	f7f9 ff61 	bl	8000b90 <__aeabi_d2iz>
 8006cce:	9000      	str	r0, [sp, #0]
 8006cd0:	f7f9 fc48 	bl	8000564 <__aeabi_i2d>
 8006cd4:	4642      	mov	r2, r8
 8006cd6:	464b      	mov	r3, r9
 8006cd8:	f7f9 fcaa 	bl	8000630 <__aeabi_dmul>
 8006cdc:	4602      	mov	r2, r0
 8006cde:	460b      	mov	r3, r1
 8006ce0:	4630      	mov	r0, r6
 8006ce2:	4639      	mov	r1, r7
 8006ce4:	f7f9 faf0 	bl	80002c8 <__aeabi_dsub>
 8006ce8:	9e00      	ldr	r6, [sp, #0]
 8006cea:	9f03      	ldr	r7, [sp, #12]
 8006cec:	3630      	adds	r6, #48	; 0x30
 8006cee:	f805 6b01 	strb.w	r6, [r5], #1
 8006cf2:	9e02      	ldr	r6, [sp, #8]
 8006cf4:	1bae      	subs	r6, r5, r6
 8006cf6:	42b7      	cmp	r7, r6
 8006cf8:	4602      	mov	r2, r0
 8006cfa:	460b      	mov	r3, r1
 8006cfc:	d138      	bne.n	8006d70 <_dtoa_r+0x6d0>
 8006cfe:	f7f9 fae5 	bl	80002cc <__adddf3>
 8006d02:	4606      	mov	r6, r0
 8006d04:	460f      	mov	r7, r1
 8006d06:	4602      	mov	r2, r0
 8006d08:	460b      	mov	r3, r1
 8006d0a:	4640      	mov	r0, r8
 8006d0c:	4649      	mov	r1, r9
 8006d0e:	f7f9 ff01 	bl	8000b14 <__aeabi_dcmplt>
 8006d12:	b9c8      	cbnz	r0, 8006d48 <_dtoa_r+0x6a8>
 8006d14:	4632      	mov	r2, r6
 8006d16:	463b      	mov	r3, r7
 8006d18:	4640      	mov	r0, r8
 8006d1a:	4649      	mov	r1, r9
 8006d1c:	f7f9 fef0 	bl	8000b00 <__aeabi_dcmpeq>
 8006d20:	b110      	cbz	r0, 8006d28 <_dtoa_r+0x688>
 8006d22:	9b00      	ldr	r3, [sp, #0]
 8006d24:	07db      	lsls	r3, r3, #31
 8006d26:	d40f      	bmi.n	8006d48 <_dtoa_r+0x6a8>
 8006d28:	4651      	mov	r1, sl
 8006d2a:	4620      	mov	r0, r4
 8006d2c:	f000 fcfc 	bl	8007728 <_Bfree>
 8006d30:	2300      	movs	r3, #0
 8006d32:	9a0f      	ldr	r2, [sp, #60]	; 0x3c
 8006d34:	702b      	strb	r3, [r5, #0]
 8006d36:	f10b 0301 	add.w	r3, fp, #1
 8006d3a:	6013      	str	r3, [r2, #0]
 8006d3c:	9b21      	ldr	r3, [sp, #132]	; 0x84
 8006d3e:	2b00      	cmp	r3, #0
 8006d40:	f43f acf8 	beq.w	8006734 <_dtoa_r+0x94>
 8006d44:	601d      	str	r5, [r3, #0]
 8006d46:	e4f5      	b.n	8006734 <_dtoa_r+0x94>
 8006d48:	465f      	mov	r7, fp
 8006d4a:	f815 2c01 	ldrb.w	r2, [r5, #-1]
 8006d4e:	2a39      	cmp	r2, #57	; 0x39
 8006d50:	f105 33ff 	add.w	r3, r5, #4294967295
 8006d54:	d106      	bne.n	8006d64 <_dtoa_r+0x6c4>
 8006d56:	9a02      	ldr	r2, [sp, #8]
 8006d58:	429a      	cmp	r2, r3
 8006d5a:	d107      	bne.n	8006d6c <_dtoa_r+0x6cc>
 8006d5c:	2330      	movs	r3, #48	; 0x30
 8006d5e:	7013      	strb	r3, [r2, #0]
 8006d60:	3701      	adds	r7, #1
 8006d62:	4613      	mov	r3, r2
 8006d64:	781a      	ldrb	r2, [r3, #0]
 8006d66:	3201      	adds	r2, #1
 8006d68:	701a      	strb	r2, [r3, #0]
 8006d6a:	e78d      	b.n	8006c88 <_dtoa_r+0x5e8>
 8006d6c:	461d      	mov	r5, r3
 8006d6e:	e7ec      	b.n	8006d4a <_dtoa_r+0x6aa>
 8006d70:	2200      	movs	r2, #0
 8006d72:	4ba4      	ldr	r3, [pc, #656]	; (8007004 <_dtoa_r+0x964>)
 8006d74:	f7f9 fc5c 	bl	8000630 <__aeabi_dmul>
 8006d78:	2200      	movs	r2, #0
 8006d7a:	2300      	movs	r3, #0
 8006d7c:	4606      	mov	r6, r0
 8006d7e:	460f      	mov	r7, r1
 8006d80:	f7f9 febe 	bl	8000b00 <__aeabi_dcmpeq>
 8006d84:	2800      	cmp	r0, #0
 8006d86:	d09a      	beq.n	8006cbe <_dtoa_r+0x61e>
 8006d88:	e7ce      	b.n	8006d28 <_dtoa_r+0x688>
 8006d8a:	9a09      	ldr	r2, [sp, #36]	; 0x24
 8006d8c:	2a00      	cmp	r2, #0
 8006d8e:	f000 80cd 	beq.w	8006f2c <_dtoa_r+0x88c>
 8006d92:	9a07      	ldr	r2, [sp, #28]
 8006d94:	2a01      	cmp	r2, #1
 8006d96:	f300 80af 	bgt.w	8006ef8 <_dtoa_r+0x858>
 8006d9a:	9a12      	ldr	r2, [sp, #72]	; 0x48
 8006d9c:	2a00      	cmp	r2, #0
 8006d9e:	f000 80a7 	beq.w	8006ef0 <_dtoa_r+0x850>
 8006da2:	f203 4333 	addw	r3, r3, #1075	; 0x433
 8006da6:	9e08      	ldr	r6, [sp, #32]
 8006da8:	9d05      	ldr	r5, [sp, #20]
 8006daa:	9a05      	ldr	r2, [sp, #20]
 8006dac:	441a      	add	r2, r3
 8006dae:	9205      	str	r2, [sp, #20]
 8006db0:	9a06      	ldr	r2, [sp, #24]
 8006db2:	2101      	movs	r1, #1
 8006db4:	441a      	add	r2, r3
 8006db6:	4620      	mov	r0, r4
 8006db8:	9206      	str	r2, [sp, #24]
 8006dba:	f000 fd55 	bl	8007868 <__i2b>
 8006dbe:	4607      	mov	r7, r0
 8006dc0:	2d00      	cmp	r5, #0
 8006dc2:	dd0c      	ble.n	8006dde <_dtoa_r+0x73e>
 8006dc4:	9b06      	ldr	r3, [sp, #24]
 8006dc6:	2b00      	cmp	r3, #0
 8006dc8:	dd09      	ble.n	8006dde <_dtoa_r+0x73e>
 8006dca:	42ab      	cmp	r3, r5
 8006dcc:	9a05      	ldr	r2, [sp, #20]
 8006dce:	bfa8      	it	ge
 8006dd0:	462b      	movge	r3, r5
 8006dd2:	1ad2      	subs	r2, r2, r3
 8006dd4:	9205      	str	r2, [sp, #20]
 8006dd6:	9a06      	ldr	r2, [sp, #24]
 8006dd8:	1aed      	subs	r5, r5, r3
 8006dda:	1ad3      	subs	r3, r2, r3
 8006ddc:	9306      	str	r3, [sp, #24]
 8006dde:	9b08      	ldr	r3, [sp, #32]
 8006de0:	b1f3      	cbz	r3, 8006e20 <_dtoa_r+0x780>
 8006de2:	9b09      	ldr	r3, [sp, #36]	; 0x24
 8006de4:	2b00      	cmp	r3, #0
 8006de6:	f000 80a5 	beq.w	8006f34 <_dtoa_r+0x894>
 8006dea:	2e00      	cmp	r6, #0
 8006dec:	dd10      	ble.n	8006e10 <_dtoa_r+0x770>
 8006dee:	4639      	mov	r1, r7
 8006df0:	4632      	mov	r2, r6
 8006df2:	4620      	mov	r0, r4
 8006df4:	f000 fdce 	bl	8007994 <__pow5mult>
 8006df8:	4652      	mov	r2, sl
 8006dfa:	4601      	mov	r1, r0
 8006dfc:	4607      	mov	r7, r0
 8006dfe:	4620      	mov	r0, r4
 8006e00:	f000 fd3b 	bl	800787a <__multiply>
 8006e04:	4651      	mov	r1, sl
 8006e06:	4680      	mov	r8, r0
 8006e08:	4620      	mov	r0, r4
 8006e0a:	f000 fc8d 	bl	8007728 <_Bfree>
 8006e0e:	46c2      	mov	sl, r8
 8006e10:	9b08      	ldr	r3, [sp, #32]
 8006e12:	1b9a      	subs	r2, r3, r6
 8006e14:	d004      	beq.n	8006e20 <_dtoa_r+0x780>
 8006e16:	4651      	mov	r1, sl
 8006e18:	4620      	mov	r0, r4
 8006e1a:	f000 fdbb 	bl	8007994 <__pow5mult>
 8006e1e:	4682      	mov	sl, r0
 8006e20:	2101      	movs	r1, #1
 8006e22:	4620      	mov	r0, r4
 8006e24:	f000 fd20 	bl	8007868 <__i2b>
 8006e28:	9b0b      	ldr	r3, [sp, #44]	; 0x2c
 8006e2a:	2b00      	cmp	r3, #0
 8006e2c:	4606      	mov	r6, r0
 8006e2e:	f340 8083 	ble.w	8006f38 <_dtoa_r+0x898>
 8006e32:	461a      	mov	r2, r3
 8006e34:	4601      	mov	r1, r0
 8006e36:	4620      	mov	r0, r4
 8006e38:	f000 fdac 	bl	8007994 <__pow5mult>
 8006e3c:	9b07      	ldr	r3, [sp, #28]
 8006e3e:	2b01      	cmp	r3, #1
 8006e40:	4606      	mov	r6, r0
 8006e42:	dd7c      	ble.n	8006f3e <_dtoa_r+0x89e>
 8006e44:	f04f 0800 	mov.w	r8, #0
 8006e48:	6933      	ldr	r3, [r6, #16]
 8006e4a:	eb06 0383 	add.w	r3, r6, r3, lsl #2
 8006e4e:	6918      	ldr	r0, [r3, #16]
 8006e50:	f000 fcbc 	bl	80077cc <__hi0bits>
 8006e54:	f1c0 0020 	rsb	r0, r0, #32
 8006e58:	9b06      	ldr	r3, [sp, #24]
 8006e5a:	4418      	add	r0, r3
 8006e5c:	f010 001f 	ands.w	r0, r0, #31
 8006e60:	f000 8096 	beq.w	8006f90 <_dtoa_r+0x8f0>
 8006e64:	f1c0 0320 	rsb	r3, r0, #32
 8006e68:	2b04      	cmp	r3, #4
 8006e6a:	f340 8087 	ble.w	8006f7c <_dtoa_r+0x8dc>
 8006e6e:	9b05      	ldr	r3, [sp, #20]
 8006e70:	f1c0 001c 	rsb	r0, r0, #28
 8006e74:	4403      	add	r3, r0
 8006e76:	9305      	str	r3, [sp, #20]
 8006e78:	9b06      	ldr	r3, [sp, #24]
 8006e7a:	4405      	add	r5, r0
 8006e7c:	4403      	add	r3, r0
 8006e7e:	9306      	str	r3, [sp, #24]
 8006e80:	9b05      	ldr	r3, [sp, #20]
 8006e82:	2b00      	cmp	r3, #0
 8006e84:	dd05      	ble.n	8006e92 <_dtoa_r+0x7f2>
 8006e86:	4651      	mov	r1, sl
 8006e88:	461a      	mov	r2, r3
 8006e8a:	4620      	mov	r0, r4
 8006e8c:	f000 fdd0 	bl	8007a30 <__lshift>
 8006e90:	4682      	mov	sl, r0
 8006e92:	9b06      	ldr	r3, [sp, #24]
 8006e94:	2b00      	cmp	r3, #0
 8006e96:	dd05      	ble.n	8006ea4 <_dtoa_r+0x804>
 8006e98:	4631      	mov	r1, r6
 8006e9a:	461a      	mov	r2, r3
 8006e9c:	4620      	mov	r0, r4
 8006e9e:	f000 fdc7 	bl	8007a30 <__lshift>
 8006ea2:	4606      	mov	r6, r0
 8006ea4:	9b0e      	ldr	r3, [sp, #56]	; 0x38
 8006ea6:	2b00      	cmp	r3, #0
 8006ea8:	d074      	beq.n	8006f94 <_dtoa_r+0x8f4>
 8006eaa:	4631      	mov	r1, r6
 8006eac:	4650      	mov	r0, sl
 8006eae:	f000 fe10 	bl	8007ad2 <__mcmp>
 8006eb2:	2800      	cmp	r0, #0
 8006eb4:	da6e      	bge.n	8006f94 <_dtoa_r+0x8f4>
 8006eb6:	2300      	movs	r3, #0
 8006eb8:	4651      	mov	r1, sl
 8006eba:	220a      	movs	r2, #10
 8006ebc:	4620      	mov	r0, r4
 8006ebe:	f000 fc4a 	bl	8007756 <__multadd>
 8006ec2:	9b09      	ldr	r3, [sp, #36]	; 0x24
 8006ec4:	f10b 3bff 	add.w	fp, fp, #4294967295
 8006ec8:	4682      	mov	sl, r0
 8006eca:	2b00      	cmp	r3, #0
 8006ecc:	f000 81a8 	beq.w	8007220 <_dtoa_r+0xb80>
 8006ed0:	2300      	movs	r3, #0
 8006ed2:	4639      	mov	r1, r7
 8006ed4:	220a      	movs	r2, #10
 8006ed6:	4620      	mov	r0, r4
 8006ed8:	f000 fc3d 	bl	8007756 <__multadd>
 8006edc:	9b04      	ldr	r3, [sp, #16]
 8006ede:	2b00      	cmp	r3, #0
 8006ee0:	4607      	mov	r7, r0
 8006ee2:	f300 80c8 	bgt.w	8007076 <_dtoa_r+0x9d6>
 8006ee6:	9b07      	ldr	r3, [sp, #28]
 8006ee8:	2b02      	cmp	r3, #2
 8006eea:	f340 80c4 	ble.w	8007076 <_dtoa_r+0x9d6>
 8006eee:	e059      	b.n	8006fa4 <_dtoa_r+0x904>
 8006ef0:	9b14      	ldr	r3, [sp, #80]	; 0x50
 8006ef2:	f1c3 0336 	rsb	r3, r3, #54	; 0x36
 8006ef6:	e756      	b.n	8006da6 <_dtoa_r+0x706>
 8006ef8:	9b03      	ldr	r3, [sp, #12]
 8006efa:	1e5e      	subs	r6, r3, #1
 8006efc:	9b08      	ldr	r3, [sp, #32]
 8006efe:	42b3      	cmp	r3, r6
 8006f00:	bfbf      	itttt	lt
 8006f02:	9b08      	ldrlt	r3, [sp, #32]
 8006f04:	9608      	strlt	r6, [sp, #32]
 8006f06:	1af2      	sublt	r2, r6, r3
 8006f08:	9b0b      	ldrlt	r3, [sp, #44]	; 0x2c
 8006f0a:	bfb6      	itet	lt
 8006f0c:	189b      	addlt	r3, r3, r2
 8006f0e:	1b9e      	subge	r6, r3, r6
 8006f10:	930b      	strlt	r3, [sp, #44]	; 0x2c
 8006f12:	9b03      	ldr	r3, [sp, #12]
 8006f14:	bfb8      	it	lt
 8006f16:	2600      	movlt	r6, #0
 8006f18:	2b00      	cmp	r3, #0
 8006f1a:	bfb9      	ittee	lt
 8006f1c:	9b05      	ldrlt	r3, [sp, #20]
 8006f1e:	9a03      	ldrlt	r2, [sp, #12]
 8006f20:	9d05      	ldrge	r5, [sp, #20]
 8006f22:	9b03      	ldrge	r3, [sp, #12]
 8006f24:	bfbc      	itt	lt
 8006f26:	1a9d      	sublt	r5, r3, r2
 8006f28:	2300      	movlt	r3, #0
 8006f2a:	e73e      	b.n	8006daa <_dtoa_r+0x70a>
 8006f2c:	9e08      	ldr	r6, [sp, #32]
 8006f2e:	9d05      	ldr	r5, [sp, #20]
 8006f30:	9f09      	ldr	r7, [sp, #36]	; 0x24
 8006f32:	e745      	b.n	8006dc0 <_dtoa_r+0x720>
 8006f34:	9a08      	ldr	r2, [sp, #32]
 8006f36:	e76e      	b.n	8006e16 <_dtoa_r+0x776>
 8006f38:	9b07      	ldr	r3, [sp, #28]
 8006f3a:	2b01      	cmp	r3, #1
 8006f3c:	dc19      	bgt.n	8006f72 <_dtoa_r+0x8d2>
 8006f3e:	9b00      	ldr	r3, [sp, #0]
 8006f40:	b9bb      	cbnz	r3, 8006f72 <_dtoa_r+0x8d2>
 8006f42:	9b01      	ldr	r3, [sp, #4]
 8006f44:	f3c3 0313 	ubfx	r3, r3, #0, #20
 8006f48:	b99b      	cbnz	r3, 8006f72 <_dtoa_r+0x8d2>
 8006f4a:	9b01      	ldr	r3, [sp, #4]
 8006f4c:	f023 4300 	bic.w	r3, r3, #2147483648	; 0x80000000
 8006f50:	0d1b      	lsrs	r3, r3, #20
 8006f52:	051b      	lsls	r3, r3, #20
 8006f54:	b183      	cbz	r3, 8006f78 <_dtoa_r+0x8d8>
 8006f56:	9b05      	ldr	r3, [sp, #20]
 8006f58:	3301      	adds	r3, #1
 8006f5a:	9305      	str	r3, [sp, #20]
 8006f5c:	9b06      	ldr	r3, [sp, #24]
 8006f5e:	3301      	adds	r3, #1
 8006f60:	9306      	str	r3, [sp, #24]
 8006f62:	f04f 0801 	mov.w	r8, #1
 8006f66:	9b0b      	ldr	r3, [sp, #44]	; 0x2c
 8006f68:	2b00      	cmp	r3, #0
 8006f6a:	f47f af6d 	bne.w	8006e48 <_dtoa_r+0x7a8>
 8006f6e:	2001      	movs	r0, #1
 8006f70:	e772      	b.n	8006e58 <_dtoa_r+0x7b8>
 8006f72:	f04f 0800 	mov.w	r8, #0
 8006f76:	e7f6      	b.n	8006f66 <_dtoa_r+0x8c6>
 8006f78:	4698      	mov	r8, r3
 8006f7a:	e7f4      	b.n	8006f66 <_dtoa_r+0x8c6>
 8006f7c:	d080      	beq.n	8006e80 <_dtoa_r+0x7e0>
 8006f7e:	9a05      	ldr	r2, [sp, #20]
 8006f80:	331c      	adds	r3, #28
 8006f82:	441a      	add	r2, r3
 8006f84:	9205      	str	r2, [sp, #20]
 8006f86:	9a06      	ldr	r2, [sp, #24]
 8006f88:	441a      	add	r2, r3
 8006f8a:	441d      	add	r5, r3
 8006f8c:	4613      	mov	r3, r2
 8006f8e:	e776      	b.n	8006e7e <_dtoa_r+0x7de>
 8006f90:	4603      	mov	r3, r0
 8006f92:	e7f4      	b.n	8006f7e <_dtoa_r+0x8de>
 8006f94:	9b03      	ldr	r3, [sp, #12]
 8006f96:	2b00      	cmp	r3, #0
 8006f98:	dc36      	bgt.n	8007008 <_dtoa_r+0x968>
 8006f9a:	9b07      	ldr	r3, [sp, #28]
 8006f9c:	2b02      	cmp	r3, #2
 8006f9e:	dd33      	ble.n	8007008 <_dtoa_r+0x968>
 8006fa0:	9b03      	ldr	r3, [sp, #12]
 8006fa2:	9304      	str	r3, [sp, #16]
 8006fa4:	9b04      	ldr	r3, [sp, #16]
 8006fa6:	b963      	cbnz	r3, 8006fc2 <_dtoa_r+0x922>
 8006fa8:	4631      	mov	r1, r6
 8006faa:	2205      	movs	r2, #5
 8006fac:	4620      	mov	r0, r4
 8006fae:	f000 fbd2 	bl	8007756 <__multadd>
 8006fb2:	4601      	mov	r1, r0
 8006fb4:	4606      	mov	r6, r0
 8006fb6:	4650      	mov	r0, sl
 8006fb8:	f000 fd8b 	bl	8007ad2 <__mcmp>
 8006fbc:	2800      	cmp	r0, #0
 8006fbe:	f73f adb6 	bgt.w	8006b2e <_dtoa_r+0x48e>
 8006fc2:	9b0a      	ldr	r3, [sp, #40]	; 0x28
 8006fc4:	9d02      	ldr	r5, [sp, #8]
 8006fc6:	ea6f 0b03 	mvn.w	fp, r3
 8006fca:	2300      	movs	r3, #0
 8006fcc:	9303      	str	r3, [sp, #12]
 8006fce:	4631      	mov	r1, r6
 8006fd0:	4620      	mov	r0, r4
 8006fd2:	f000 fba9 	bl	8007728 <_Bfree>
 8006fd6:	2f00      	cmp	r7, #0
 8006fd8:	f43f aea6 	beq.w	8006d28 <_dtoa_r+0x688>
 8006fdc:	9b03      	ldr	r3, [sp, #12]
 8006fde:	b12b      	cbz	r3, 8006fec <_dtoa_r+0x94c>
 8006fe0:	42bb      	cmp	r3, r7
 8006fe2:	d003      	beq.n	8006fec <_dtoa_r+0x94c>
 8006fe4:	4619      	mov	r1, r3
 8006fe6:	4620      	mov	r0, r4
 8006fe8:	f000 fb9e 	bl	8007728 <_Bfree>
 8006fec:	4639      	mov	r1, r7
 8006fee:	4620      	mov	r0, r4
 8006ff0:	f000 fb9a 	bl	8007728 <_Bfree>
 8006ff4:	e698      	b.n	8006d28 <_dtoa_r+0x688>
 8006ff6:	2600      	movs	r6, #0
 8006ff8:	4637      	mov	r7, r6
 8006ffa:	e7e2      	b.n	8006fc2 <_dtoa_r+0x922>
 8006ffc:	46bb      	mov	fp, r7
 8006ffe:	4637      	mov	r7, r6
 8007000:	e595      	b.n	8006b2e <_dtoa_r+0x48e>
 8007002:	bf00      	nop
 8007004:	40240000 	.word	0x40240000
 8007008:	9b09      	ldr	r3, [sp, #36]	; 0x24
 800700a:	bb93      	cbnz	r3, 8007072 <_dtoa_r+0x9d2>
 800700c:	9b03      	ldr	r3, [sp, #12]
 800700e:	9304      	str	r3, [sp, #16]
 8007010:	9d02      	ldr	r5, [sp, #8]
 8007012:	4631      	mov	r1, r6
 8007014:	4650      	mov	r0, sl
 8007016:	f7ff fab7 	bl	8006588 <quorem>
 800701a:	f100 0930 	add.w	r9, r0, #48	; 0x30
 800701e:	f805 9b01 	strb.w	r9, [r5], #1
 8007022:	9b02      	ldr	r3, [sp, #8]
 8007024:	9a04      	ldr	r2, [sp, #16]
 8007026:	1aeb      	subs	r3, r5, r3
 8007028:	429a      	cmp	r2, r3
 800702a:	f300 80dc 	bgt.w	80071e6 <_dtoa_r+0xb46>
 800702e:	9b02      	ldr	r3, [sp, #8]
 8007030:	2a01      	cmp	r2, #1
 8007032:	bfac      	ite	ge
 8007034:	189b      	addge	r3, r3, r2
 8007036:	3301      	addlt	r3, #1
 8007038:	4698      	mov	r8, r3
 800703a:	2300      	movs	r3, #0
 800703c:	9303      	str	r3, [sp, #12]
 800703e:	4651      	mov	r1, sl
 8007040:	2201      	movs	r2, #1
 8007042:	4620      	mov	r0, r4
 8007044:	f000 fcf4 	bl	8007a30 <__lshift>
 8007048:	4631      	mov	r1, r6
 800704a:	4682      	mov	sl, r0
 800704c:	f000 fd41 	bl	8007ad2 <__mcmp>
 8007050:	2800      	cmp	r0, #0
 8007052:	f300 808d 	bgt.w	8007170 <_dtoa_r+0xad0>
 8007056:	d103      	bne.n	8007060 <_dtoa_r+0x9c0>
 8007058:	f019 0f01 	tst.w	r9, #1
 800705c:	f040 8088 	bne.w	8007170 <_dtoa_r+0xad0>
 8007060:	4645      	mov	r5, r8
 8007062:	f815 3c01 	ldrb.w	r3, [r5, #-1]
 8007066:	2b30      	cmp	r3, #48	; 0x30
 8007068:	f105 32ff 	add.w	r2, r5, #4294967295
 800706c:	d1af      	bne.n	8006fce <_dtoa_r+0x92e>
 800706e:	4615      	mov	r5, r2
 8007070:	e7f7      	b.n	8007062 <_dtoa_r+0x9c2>
 8007072:	9b03      	ldr	r3, [sp, #12]
 8007074:	9304      	str	r3, [sp, #16]
 8007076:	2d00      	cmp	r5, #0
 8007078:	dd05      	ble.n	8007086 <_dtoa_r+0x9e6>
 800707a:	4639      	mov	r1, r7
 800707c:	462a      	mov	r2, r5
 800707e:	4620      	mov	r0, r4
 8007080:	f000 fcd6 	bl	8007a30 <__lshift>
 8007084:	4607      	mov	r7, r0
 8007086:	f1b8 0f00 	cmp.w	r8, #0
 800708a:	d04c      	beq.n	8007126 <_dtoa_r+0xa86>
 800708c:	6879      	ldr	r1, [r7, #4]
 800708e:	4620      	mov	r0, r4
 8007090:	f000 fb16 	bl	80076c0 <_Balloc>
 8007094:	693a      	ldr	r2, [r7, #16]
 8007096:	3202      	adds	r2, #2
 8007098:	4605      	mov	r5, r0
 800709a:	0092      	lsls	r2, r2, #2
 800709c:	f107 010c 	add.w	r1, r7, #12
 80070a0:	300c      	adds	r0, #12
 80070a2:	f7fe fa65 	bl	8005570 <memcpy>
 80070a6:	2201      	movs	r2, #1
 80070a8:	4629      	mov	r1, r5
 80070aa:	4620      	mov	r0, r4
 80070ac:	f000 fcc0 	bl	8007a30 <__lshift>
 80070b0:	9b00      	ldr	r3, [sp, #0]
 80070b2:	f8dd 8008 	ldr.w	r8, [sp, #8]
 80070b6:	9703      	str	r7, [sp, #12]
 80070b8:	f003 0301 	and.w	r3, r3, #1
 80070bc:	4607      	mov	r7, r0
 80070be:	9305      	str	r3, [sp, #20]
 80070c0:	4631      	mov	r1, r6
 80070c2:	4650      	mov	r0, sl
 80070c4:	f7ff fa60 	bl	8006588 <quorem>
 80070c8:	9903      	ldr	r1, [sp, #12]
 80070ca:	4605      	mov	r5, r0
 80070cc:	f100 0930 	add.w	r9, r0, #48	; 0x30
 80070d0:	4650      	mov	r0, sl
 80070d2:	f000 fcfe 	bl	8007ad2 <__mcmp>
 80070d6:	463a      	mov	r2, r7
 80070d8:	9000      	str	r0, [sp, #0]
 80070da:	4631      	mov	r1, r6
 80070dc:	4620      	mov	r0, r4
 80070de:	f000 fd12 	bl	8007b06 <__mdiff>
 80070e2:	68c3      	ldr	r3, [r0, #12]
 80070e4:	4602      	mov	r2, r0
 80070e6:	bb03      	cbnz	r3, 800712a <_dtoa_r+0xa8a>
 80070e8:	4601      	mov	r1, r0
 80070ea:	9006      	str	r0, [sp, #24]
 80070ec:	4650      	mov	r0, sl
 80070ee:	f000 fcf0 	bl	8007ad2 <__mcmp>
 80070f2:	9a06      	ldr	r2, [sp, #24]
 80070f4:	4603      	mov	r3, r0
 80070f6:	4611      	mov	r1, r2
 80070f8:	4620      	mov	r0, r4
 80070fa:	9306      	str	r3, [sp, #24]
 80070fc:	f000 fb14 	bl	8007728 <_Bfree>
 8007100:	9b06      	ldr	r3, [sp, #24]
 8007102:	b9a3      	cbnz	r3, 800712e <_dtoa_r+0xa8e>
 8007104:	9a07      	ldr	r2, [sp, #28]
 8007106:	b992      	cbnz	r2, 800712e <_dtoa_r+0xa8e>
 8007108:	9a05      	ldr	r2, [sp, #20]
 800710a:	b982      	cbnz	r2, 800712e <_dtoa_r+0xa8e>
 800710c:	f1b9 0f39 	cmp.w	r9, #57	; 0x39
 8007110:	d029      	beq.n	8007166 <_dtoa_r+0xac6>
 8007112:	9b00      	ldr	r3, [sp, #0]
 8007114:	2b00      	cmp	r3, #0
 8007116:	dd01      	ble.n	800711c <_dtoa_r+0xa7c>
 8007118:	f105 0931 	add.w	r9, r5, #49	; 0x31
 800711c:	f108 0501 	add.w	r5, r8, #1
 8007120:	f888 9000 	strb.w	r9, [r8]
 8007124:	e753      	b.n	8006fce <_dtoa_r+0x92e>
 8007126:	4638      	mov	r0, r7
 8007128:	e7c2      	b.n	80070b0 <_dtoa_r+0xa10>
 800712a:	2301      	movs	r3, #1
 800712c:	e7e3      	b.n	80070f6 <_dtoa_r+0xa56>
 800712e:	9a00      	ldr	r2, [sp, #0]
 8007130:	2a00      	cmp	r2, #0
 8007132:	db04      	blt.n	800713e <_dtoa_r+0xa9e>
 8007134:	d125      	bne.n	8007182 <_dtoa_r+0xae2>
 8007136:	9a07      	ldr	r2, [sp, #28]
 8007138:	bb1a      	cbnz	r2, 8007182 <_dtoa_r+0xae2>
 800713a:	9a05      	ldr	r2, [sp, #20]
 800713c:	bb0a      	cbnz	r2, 8007182 <_dtoa_r+0xae2>
 800713e:	2b00      	cmp	r3, #0
 8007140:	ddec      	ble.n	800711c <_dtoa_r+0xa7c>
 8007142:	4651      	mov	r1, sl
 8007144:	2201      	movs	r2, #1
 8007146:	4620      	mov	r0, r4
 8007148:	f000 fc72 	bl	8007a30 <__lshift>
 800714c:	4631      	mov	r1, r6
 800714e:	4682      	mov	sl, r0
 8007150:	f000 fcbf 	bl	8007ad2 <__mcmp>
 8007154:	2800      	cmp	r0, #0
 8007156:	dc03      	bgt.n	8007160 <_dtoa_r+0xac0>
 8007158:	d1e0      	bne.n	800711c <_dtoa_r+0xa7c>
 800715a:	f019 0f01 	tst.w	r9, #1
 800715e:	d0dd      	beq.n	800711c <_dtoa_r+0xa7c>
 8007160:	f1b9 0f39 	cmp.w	r9, #57	; 0x39
 8007164:	d1d8      	bne.n	8007118 <_dtoa_r+0xa78>
 8007166:	2339      	movs	r3, #57	; 0x39
 8007168:	f888 3000 	strb.w	r3, [r8]
 800716c:	f108 0801 	add.w	r8, r8, #1
 8007170:	4645      	mov	r5, r8
 8007172:	f815 3c01 	ldrb.w	r3, [r5, #-1]
 8007176:	2b39      	cmp	r3, #57	; 0x39
 8007178:	f105 32ff 	add.w	r2, r5, #4294967295
 800717c:	d03b      	beq.n	80071f6 <_dtoa_r+0xb56>
 800717e:	3301      	adds	r3, #1
 8007180:	e040      	b.n	8007204 <_dtoa_r+0xb64>
 8007182:	2b00      	cmp	r3, #0
 8007184:	f108 0501 	add.w	r5, r8, #1
 8007188:	dd05      	ble.n	8007196 <_dtoa_r+0xaf6>
 800718a:	f1b9 0f39 	cmp.w	r9, #57	; 0x39
 800718e:	d0ea      	beq.n	8007166 <_dtoa_r+0xac6>
 8007190:	f109 0901 	add.w	r9, r9, #1
 8007194:	e7c4      	b.n	8007120 <_dtoa_r+0xa80>
 8007196:	9b02      	ldr	r3, [sp, #8]
 8007198:	9a04      	ldr	r2, [sp, #16]
 800719a:	f805 9c01 	strb.w	r9, [r5, #-1]
 800719e:	1aeb      	subs	r3, r5, r3
 80071a0:	4293      	cmp	r3, r2
 80071a2:	46a8      	mov	r8, r5
 80071a4:	f43f af4b 	beq.w	800703e <_dtoa_r+0x99e>
 80071a8:	4651      	mov	r1, sl
 80071aa:	2300      	movs	r3, #0
 80071ac:	220a      	movs	r2, #10
 80071ae:	4620      	mov	r0, r4
 80071b0:	f000 fad1 	bl	8007756 <__multadd>
 80071b4:	9b03      	ldr	r3, [sp, #12]
 80071b6:	9903      	ldr	r1, [sp, #12]
 80071b8:	42bb      	cmp	r3, r7
 80071ba:	4682      	mov	sl, r0
 80071bc:	f04f 0300 	mov.w	r3, #0
 80071c0:	f04f 020a 	mov.w	r2, #10
 80071c4:	4620      	mov	r0, r4
 80071c6:	d104      	bne.n	80071d2 <_dtoa_r+0xb32>
 80071c8:	f000 fac5 	bl	8007756 <__multadd>
 80071cc:	9003      	str	r0, [sp, #12]
 80071ce:	4607      	mov	r7, r0
 80071d0:	e776      	b.n	80070c0 <_dtoa_r+0xa20>
 80071d2:	f000 fac0 	bl	8007756 <__multadd>
 80071d6:	2300      	movs	r3, #0
 80071d8:	9003      	str	r0, [sp, #12]
 80071da:	220a      	movs	r2, #10
 80071dc:	4639      	mov	r1, r7
 80071de:	4620      	mov	r0, r4
 80071e0:	f000 fab9 	bl	8007756 <__multadd>
 80071e4:	e7f3      	b.n	80071ce <_dtoa_r+0xb2e>
 80071e6:	4651      	mov	r1, sl
 80071e8:	2300      	movs	r3, #0
 80071ea:	220a      	movs	r2, #10
 80071ec:	4620      	mov	r0, r4
 80071ee:	f000 fab2 	bl	8007756 <__multadd>
 80071f2:	4682      	mov	sl, r0
 80071f4:	e70d      	b.n	8007012 <_dtoa_r+0x972>
 80071f6:	9b02      	ldr	r3, [sp, #8]
 80071f8:	4293      	cmp	r3, r2
 80071fa:	d105      	bne.n	8007208 <_dtoa_r+0xb68>
 80071fc:	9a02      	ldr	r2, [sp, #8]
 80071fe:	f10b 0b01 	add.w	fp, fp, #1
 8007202:	2331      	movs	r3, #49	; 0x31
 8007204:	7013      	strb	r3, [r2, #0]
 8007206:	e6e2      	b.n	8006fce <_dtoa_r+0x92e>
 8007208:	4615      	mov	r5, r2
 800720a:	e7b2      	b.n	8007172 <_dtoa_r+0xad2>
 800720c:	4b09      	ldr	r3, [pc, #36]	; (8007234 <_dtoa_r+0xb94>)
 800720e:	f7ff baae 	b.w	800676e <_dtoa_r+0xce>
 8007212:	9b21      	ldr	r3, [sp, #132]	; 0x84
 8007214:	2b00      	cmp	r3, #0
 8007216:	f47f aa88 	bne.w	800672a <_dtoa_r+0x8a>
 800721a:	4b07      	ldr	r3, [pc, #28]	; (8007238 <_dtoa_r+0xb98>)
 800721c:	f7ff baa7 	b.w	800676e <_dtoa_r+0xce>
 8007220:	9b04      	ldr	r3, [sp, #16]
 8007222:	2b00      	cmp	r3, #0
 8007224:	f73f aef4 	bgt.w	8007010 <_dtoa_r+0x970>
 8007228:	9b07      	ldr	r3, [sp, #28]
 800722a:	2b02      	cmp	r3, #2
 800722c:	f77f aef0 	ble.w	8007010 <_dtoa_r+0x970>
 8007230:	e6b8      	b.n	8006fa4 <_dtoa_r+0x904>
 8007232:	bf00      	nop
 8007234:	08008696 	.word	0x08008696
 8007238:	080086b8 	.word	0x080086b8

0800723c <_localeconv_r>:
 800723c:	4b04      	ldr	r3, [pc, #16]	; (8007250 <_localeconv_r+0x14>)
 800723e:	681b      	ldr	r3, [r3, #0]
 8007240:	6a18      	ldr	r0, [r3, #32]
 8007242:	4b04      	ldr	r3, [pc, #16]	; (8007254 <_localeconv_r+0x18>)
 8007244:	2800      	cmp	r0, #0
 8007246:	bf08      	it	eq
 8007248:	4618      	moveq	r0, r3
 800724a:	30f0      	adds	r0, #240	; 0xf0
 800724c:	4770      	bx	lr
 800724e:	bf00      	nop
 8007250:	2000000c 	.word	0x2000000c
 8007254:	20000100 	.word	0x20000100

08007258 <malloc>:
 8007258:	4b02      	ldr	r3, [pc, #8]	; (8007264 <malloc+0xc>)
 800725a:	4601      	mov	r1, r0
 800725c:	6818      	ldr	r0, [r3, #0]
 800725e:	f000 b803 	b.w	8007268 <_malloc_r>
 8007262:	bf00      	nop
 8007264:	2000000c 	.word	0x2000000c

08007268 <_malloc_r>:
 8007268:	e92d 4ff7 	stmdb	sp!, {r0, r1, r2, r4, r5, r6, r7, r8, r9, sl, fp, lr}
 800726c:	f101 040b 	add.w	r4, r1, #11
 8007270:	2c16      	cmp	r4, #22
 8007272:	4681      	mov	r9, r0
 8007274:	d907      	bls.n	8007286 <_malloc_r+0x1e>
 8007276:	f034 0407 	bics.w	r4, r4, #7
 800727a:	d505      	bpl.n	8007288 <_malloc_r+0x20>
 800727c:	230c      	movs	r3, #12
 800727e:	f8c9 3000 	str.w	r3, [r9]
 8007282:	2600      	movs	r6, #0
 8007284:	e131      	b.n	80074ea <_malloc_r+0x282>
 8007286:	2410      	movs	r4, #16
 8007288:	428c      	cmp	r4, r1
 800728a:	d3f7      	bcc.n	800727c <_malloc_r+0x14>
 800728c:	4648      	mov	r0, r9
 800728e:	f000 fa0b 	bl	80076a8 <__malloc_lock>
 8007292:	f5b4 7ffc 	cmp.w	r4, #504	; 0x1f8
 8007296:	4d9c      	ldr	r5, [pc, #624]	; (8007508 <_malloc_r+0x2a0>)
 8007298:	d236      	bcs.n	8007308 <_malloc_r+0xa0>
 800729a:	f104 0208 	add.w	r2, r4, #8
 800729e:	442a      	add	r2, r5
 80072a0:	f1a2 0108 	sub.w	r1, r2, #8
 80072a4:	6856      	ldr	r6, [r2, #4]
 80072a6:	428e      	cmp	r6, r1
 80072a8:	ea4f 03d4 	mov.w	r3, r4, lsr #3
 80072ac:	d102      	bne.n	80072b4 <_malloc_r+0x4c>
 80072ae:	68d6      	ldr	r6, [r2, #12]
 80072b0:	42b2      	cmp	r2, r6
 80072b2:	d010      	beq.n	80072d6 <_malloc_r+0x6e>
 80072b4:	6873      	ldr	r3, [r6, #4]
 80072b6:	68f2      	ldr	r2, [r6, #12]
 80072b8:	68b1      	ldr	r1, [r6, #8]
 80072ba:	f023 0303 	bic.w	r3, r3, #3
 80072be:	60ca      	str	r2, [r1, #12]
 80072c0:	4433      	add	r3, r6
 80072c2:	6091      	str	r1, [r2, #8]
 80072c4:	685a      	ldr	r2, [r3, #4]
 80072c6:	f042 0201 	orr.w	r2, r2, #1
 80072ca:	605a      	str	r2, [r3, #4]
 80072cc:	4648      	mov	r0, r9
 80072ce:	f000 f9f1 	bl	80076b4 <__malloc_unlock>
 80072d2:	3608      	adds	r6, #8
 80072d4:	e109      	b.n	80074ea <_malloc_r+0x282>
 80072d6:	3302      	adds	r3, #2
 80072d8:	4a8c      	ldr	r2, [pc, #560]	; (800750c <_malloc_r+0x2a4>)
 80072da:	692e      	ldr	r6, [r5, #16]
 80072dc:	4296      	cmp	r6, r2
 80072de:	4611      	mov	r1, r2
 80072e0:	d06d      	beq.n	80073be <_malloc_r+0x156>
 80072e2:	6870      	ldr	r0, [r6, #4]
 80072e4:	f020 0003 	bic.w	r0, r0, #3
 80072e8:	1b07      	subs	r7, r0, r4
 80072ea:	2f0f      	cmp	r7, #15
 80072ec:	dd47      	ble.n	800737e <_malloc_r+0x116>
 80072ee:	1933      	adds	r3, r6, r4
 80072f0:	f044 0401 	orr.w	r4, r4, #1
 80072f4:	6074      	str	r4, [r6, #4]
 80072f6:	616b      	str	r3, [r5, #20]
 80072f8:	612b      	str	r3, [r5, #16]
 80072fa:	60da      	str	r2, [r3, #12]
 80072fc:	609a      	str	r2, [r3, #8]
 80072fe:	f047 0201 	orr.w	r2, r7, #1
 8007302:	605a      	str	r2, [r3, #4]
 8007304:	5037      	str	r7, [r6, r0]
 8007306:	e7e1      	b.n	80072cc <_malloc_r+0x64>
 8007308:	0a63      	lsrs	r3, r4, #9
 800730a:	d02a      	beq.n	8007362 <_malloc_r+0xfa>
 800730c:	2b04      	cmp	r3, #4
 800730e:	d812      	bhi.n	8007336 <_malloc_r+0xce>
 8007310:	09a3      	lsrs	r3, r4, #6
 8007312:	3338      	adds	r3, #56	; 0x38
 8007314:	1c5a      	adds	r2, r3, #1
 8007316:	eb05 02c2 	add.w	r2, r5, r2, lsl #3
 800731a:	f1a2 0008 	sub.w	r0, r2, #8
 800731e:	6856      	ldr	r6, [r2, #4]
 8007320:	4286      	cmp	r6, r0
 8007322:	d006      	beq.n	8007332 <_malloc_r+0xca>
 8007324:	6872      	ldr	r2, [r6, #4]
 8007326:	f022 0203 	bic.w	r2, r2, #3
 800732a:	1b11      	subs	r1, r2, r4
 800732c:	290f      	cmp	r1, #15
 800732e:	dd1c      	ble.n	800736a <_malloc_r+0x102>
 8007330:	3b01      	subs	r3, #1
 8007332:	3301      	adds	r3, #1
 8007334:	e7d0      	b.n	80072d8 <_malloc_r+0x70>
 8007336:	2b14      	cmp	r3, #20
 8007338:	d801      	bhi.n	800733e <_malloc_r+0xd6>
 800733a:	335b      	adds	r3, #91	; 0x5b
 800733c:	e7ea      	b.n	8007314 <_malloc_r+0xac>
 800733e:	2b54      	cmp	r3, #84	; 0x54
 8007340:	d802      	bhi.n	8007348 <_malloc_r+0xe0>
 8007342:	0b23      	lsrs	r3, r4, #12
 8007344:	336e      	adds	r3, #110	; 0x6e
 8007346:	e7e5      	b.n	8007314 <_malloc_r+0xac>
 8007348:	f5b3 7faa 	cmp.w	r3, #340	; 0x154
 800734c:	d802      	bhi.n	8007354 <_malloc_r+0xec>
 800734e:	0be3      	lsrs	r3, r4, #15
 8007350:	3377      	adds	r3, #119	; 0x77
 8007352:	e7df      	b.n	8007314 <_malloc_r+0xac>
 8007354:	f240 5254 	movw	r2, #1364	; 0x554
 8007358:	4293      	cmp	r3, r2
 800735a:	d804      	bhi.n	8007366 <_malloc_r+0xfe>
 800735c:	0ca3      	lsrs	r3, r4, #18
 800735e:	337c      	adds	r3, #124	; 0x7c
 8007360:	e7d8      	b.n	8007314 <_malloc_r+0xac>
 8007362:	233f      	movs	r3, #63	; 0x3f
 8007364:	e7d6      	b.n	8007314 <_malloc_r+0xac>
 8007366:	237e      	movs	r3, #126	; 0x7e
 8007368:	e7d4      	b.n	8007314 <_malloc_r+0xac>
 800736a:	2900      	cmp	r1, #0
 800736c:	68f1      	ldr	r1, [r6, #12]
 800736e:	db04      	blt.n	800737a <_malloc_r+0x112>
 8007370:	68b3      	ldr	r3, [r6, #8]
 8007372:	60d9      	str	r1, [r3, #12]
 8007374:	608b      	str	r3, [r1, #8]
 8007376:	18b3      	adds	r3, r6, r2
 8007378:	e7a4      	b.n	80072c4 <_malloc_r+0x5c>
 800737a:	460e      	mov	r6, r1
 800737c:	e7d0      	b.n	8007320 <_malloc_r+0xb8>
 800737e:	2f00      	cmp	r7, #0
 8007380:	616a      	str	r2, [r5, #20]
 8007382:	612a      	str	r2, [r5, #16]
 8007384:	db05      	blt.n	8007392 <_malloc_r+0x12a>
 8007386:	4430      	add	r0, r6
 8007388:	6843      	ldr	r3, [r0, #4]
 800738a:	f043 0301 	orr.w	r3, r3, #1
 800738e:	6043      	str	r3, [r0, #4]
 8007390:	e79c      	b.n	80072cc <_malloc_r+0x64>
 8007392:	f5b0 7f00 	cmp.w	r0, #512	; 0x200
 8007396:	d244      	bcs.n	8007422 <_malloc_r+0x1ba>
 8007398:	08c0      	lsrs	r0, r0, #3
 800739a:	1087      	asrs	r7, r0, #2
 800739c:	2201      	movs	r2, #1
 800739e:	fa02 f707 	lsl.w	r7, r2, r7
 80073a2:	686a      	ldr	r2, [r5, #4]
 80073a4:	3001      	adds	r0, #1
 80073a6:	433a      	orrs	r2, r7
 80073a8:	606a      	str	r2, [r5, #4]
 80073aa:	eb05 02c0 	add.w	r2, r5, r0, lsl #3
 80073ae:	f855 7030 	ldr.w	r7, [r5, r0, lsl #3]
 80073b2:	60b7      	str	r7, [r6, #8]
 80073b4:	3a08      	subs	r2, #8
 80073b6:	60f2      	str	r2, [r6, #12]
 80073b8:	f845 6030 	str.w	r6, [r5, r0, lsl #3]
 80073bc:	60fe      	str	r6, [r7, #12]
 80073be:	2001      	movs	r0, #1
 80073c0:	109a      	asrs	r2, r3, #2
 80073c2:	fa00 f202 	lsl.w	r2, r0, r2
 80073c6:	6868      	ldr	r0, [r5, #4]
 80073c8:	4282      	cmp	r2, r0
 80073ca:	f200 80a1 	bhi.w	8007510 <_malloc_r+0x2a8>
 80073ce:	4202      	tst	r2, r0
 80073d0:	d106      	bne.n	80073e0 <_malloc_r+0x178>
 80073d2:	f023 0303 	bic.w	r3, r3, #3
 80073d6:	0052      	lsls	r2, r2, #1
 80073d8:	4202      	tst	r2, r0
 80073da:	f103 0304 	add.w	r3, r3, #4
 80073de:	d0fa      	beq.n	80073d6 <_malloc_r+0x16e>
 80073e0:	eb05 0cc3 	add.w	ip, r5, r3, lsl #3
 80073e4:	46e0      	mov	r8, ip
 80073e6:	469e      	mov	lr, r3
 80073e8:	f8d8 600c 	ldr.w	r6, [r8, #12]
 80073ec:	4546      	cmp	r6, r8
 80073ee:	d153      	bne.n	8007498 <_malloc_r+0x230>
 80073f0:	f10e 0e01 	add.w	lr, lr, #1
 80073f4:	f01e 0f03 	tst.w	lr, #3
 80073f8:	f108 0808 	add.w	r8, r8, #8
 80073fc:	d1f4      	bne.n	80073e8 <_malloc_r+0x180>
 80073fe:	0798      	lsls	r0, r3, #30
 8007400:	d179      	bne.n	80074f6 <_malloc_r+0x28e>
 8007402:	686b      	ldr	r3, [r5, #4]
 8007404:	ea23 0302 	bic.w	r3, r3, r2
 8007408:	606b      	str	r3, [r5, #4]
 800740a:	6868      	ldr	r0, [r5, #4]
 800740c:	0052      	lsls	r2, r2, #1
 800740e:	4282      	cmp	r2, r0
 8007410:	d87e      	bhi.n	8007510 <_malloc_r+0x2a8>
 8007412:	2a00      	cmp	r2, #0
 8007414:	d07c      	beq.n	8007510 <_malloc_r+0x2a8>
 8007416:	4673      	mov	r3, lr
 8007418:	4202      	tst	r2, r0
 800741a:	d1e1      	bne.n	80073e0 <_malloc_r+0x178>
 800741c:	3304      	adds	r3, #4
 800741e:	0052      	lsls	r2, r2, #1
 8007420:	e7fa      	b.n	8007418 <_malloc_r+0x1b0>
 8007422:	0a42      	lsrs	r2, r0, #9
 8007424:	2a04      	cmp	r2, #4
 8007426:	d815      	bhi.n	8007454 <_malloc_r+0x1ec>
 8007428:	0982      	lsrs	r2, r0, #6
 800742a:	3238      	adds	r2, #56	; 0x38
 800742c:	1c57      	adds	r7, r2, #1
 800742e:	eb05 0ec2 	add.w	lr, r5, r2, lsl #3
 8007432:	f855 7037 	ldr.w	r7, [r5, r7, lsl #3]
 8007436:	45be      	cmp	lr, r7
 8007438:	d126      	bne.n	8007488 <_malloc_r+0x220>
 800743a:	2001      	movs	r0, #1
 800743c:	1092      	asrs	r2, r2, #2
 800743e:	fa00 f202 	lsl.w	r2, r0, r2
 8007442:	6868      	ldr	r0, [r5, #4]
 8007444:	4310      	orrs	r0, r2
 8007446:	6068      	str	r0, [r5, #4]
 8007448:	f8c6 e00c 	str.w	lr, [r6, #12]
 800744c:	60b7      	str	r7, [r6, #8]
 800744e:	f8ce 6008 	str.w	r6, [lr, #8]
 8007452:	e7b3      	b.n	80073bc <_malloc_r+0x154>
 8007454:	2a14      	cmp	r2, #20
 8007456:	d801      	bhi.n	800745c <_malloc_r+0x1f4>
 8007458:	325b      	adds	r2, #91	; 0x5b
 800745a:	e7e7      	b.n	800742c <_malloc_r+0x1c4>
 800745c:	2a54      	cmp	r2, #84	; 0x54
 800745e:	d802      	bhi.n	8007466 <_malloc_r+0x1fe>
 8007460:	0b02      	lsrs	r2, r0, #12
 8007462:	326e      	adds	r2, #110	; 0x6e
 8007464:	e7e2      	b.n	800742c <_malloc_r+0x1c4>
 8007466:	f5b2 7faa 	cmp.w	r2, #340	; 0x154
 800746a:	d802      	bhi.n	8007472 <_malloc_r+0x20a>
 800746c:	0bc2      	lsrs	r2, r0, #15
 800746e:	3277      	adds	r2, #119	; 0x77
 8007470:	e7dc      	b.n	800742c <_malloc_r+0x1c4>
 8007472:	f240 5754 	movw	r7, #1364	; 0x554
 8007476:	42ba      	cmp	r2, r7
 8007478:	bf9a      	itte	ls
 800747a:	0c82      	lsrls	r2, r0, #18
 800747c:	327c      	addls	r2, #124	; 0x7c
 800747e:	227e      	movhi	r2, #126	; 0x7e
 8007480:	e7d4      	b.n	800742c <_malloc_r+0x1c4>
 8007482:	68bf      	ldr	r7, [r7, #8]
 8007484:	45be      	cmp	lr, r7
 8007486:	d004      	beq.n	8007492 <_malloc_r+0x22a>
 8007488:	687a      	ldr	r2, [r7, #4]
 800748a:	f022 0203 	bic.w	r2, r2, #3
 800748e:	4290      	cmp	r0, r2
 8007490:	d3f7      	bcc.n	8007482 <_malloc_r+0x21a>
 8007492:	f8d7 e00c 	ldr.w	lr, [r7, #12]
 8007496:	e7d7      	b.n	8007448 <_malloc_r+0x1e0>
 8007498:	6870      	ldr	r0, [r6, #4]
 800749a:	68f7      	ldr	r7, [r6, #12]
 800749c:	f020 0003 	bic.w	r0, r0, #3
 80074a0:	eba0 0a04 	sub.w	sl, r0, r4
 80074a4:	f1ba 0f0f 	cmp.w	sl, #15
 80074a8:	dd10      	ble.n	80074cc <_malloc_r+0x264>
 80074aa:	68b2      	ldr	r2, [r6, #8]
 80074ac:	1933      	adds	r3, r6, r4
 80074ae:	f044 0401 	orr.w	r4, r4, #1
 80074b2:	6074      	str	r4, [r6, #4]
 80074b4:	60d7      	str	r7, [r2, #12]
 80074b6:	60ba      	str	r2, [r7, #8]
 80074b8:	f04a 0201 	orr.w	r2, sl, #1
 80074bc:	616b      	str	r3, [r5, #20]
 80074be:	612b      	str	r3, [r5, #16]
 80074c0:	60d9      	str	r1, [r3, #12]
 80074c2:	6099      	str	r1, [r3, #8]
 80074c4:	605a      	str	r2, [r3, #4]
 80074c6:	f846 a000 	str.w	sl, [r6, r0]
 80074ca:	e6ff      	b.n	80072cc <_malloc_r+0x64>
 80074cc:	f1ba 0f00 	cmp.w	sl, #0
 80074d0:	db0f      	blt.n	80074f2 <_malloc_r+0x28a>
 80074d2:	4430      	add	r0, r6
 80074d4:	6843      	ldr	r3, [r0, #4]
 80074d6:	f043 0301 	orr.w	r3, r3, #1
 80074da:	6043      	str	r3, [r0, #4]
 80074dc:	f856 3f08 	ldr.w	r3, [r6, #8]!
 80074e0:	4648      	mov	r0, r9
 80074e2:	60df      	str	r7, [r3, #12]
 80074e4:	60bb      	str	r3, [r7, #8]
 80074e6:	f000 f8e5 	bl	80076b4 <__malloc_unlock>
 80074ea:	4630      	mov	r0, r6
 80074ec:	b003      	add	sp, #12
 80074ee:	e8bd 8ff0 	ldmia.w	sp!, {r4, r5, r6, r7, r8, r9, sl, fp, pc}
 80074f2:	463e      	mov	r6, r7
 80074f4:	e77a      	b.n	80073ec <_malloc_r+0x184>
 80074f6:	f85c 0908 	ldr.w	r0, [ip], #-8
 80074fa:	4584      	cmp	ip, r0
 80074fc:	f103 33ff 	add.w	r3, r3, #4294967295
 8007500:	f43f af7d 	beq.w	80073fe <_malloc_r+0x196>
 8007504:	e781      	b.n	800740a <_malloc_r+0x1a2>
 8007506:	bf00      	nop
 8007508:	2000026c 	.word	0x2000026c
 800750c:	20000274 	.word	0x20000274
 8007510:	f8d5 b008 	ldr.w	fp, [r5, #8]
 8007514:	f8db 6004 	ldr.w	r6, [fp, #4]
 8007518:	f026 0603 	bic.w	r6, r6, #3
 800751c:	42b4      	cmp	r4, r6
 800751e:	d803      	bhi.n	8007528 <_malloc_r+0x2c0>
 8007520:	1b33      	subs	r3, r6, r4
 8007522:	2b0f      	cmp	r3, #15
 8007524:	f300 8096 	bgt.w	8007654 <_malloc_r+0x3ec>
 8007528:	4a4f      	ldr	r2, [pc, #316]	; (8007668 <_malloc_r+0x400>)
 800752a:	6817      	ldr	r7, [r2, #0]
 800752c:	4a4f      	ldr	r2, [pc, #316]	; (800766c <_malloc_r+0x404>)
 800752e:	6811      	ldr	r1, [r2, #0]
 8007530:	3710      	adds	r7, #16
 8007532:	3101      	adds	r1, #1
 8007534:	eb0b 0306 	add.w	r3, fp, r6
 8007538:	4427      	add	r7, r4
 800753a:	d005      	beq.n	8007548 <_malloc_r+0x2e0>
 800753c:	494c      	ldr	r1, [pc, #304]	; (8007670 <_malloc_r+0x408>)
 800753e:	3901      	subs	r1, #1
 8007540:	440f      	add	r7, r1
 8007542:	3101      	adds	r1, #1
 8007544:	4249      	negs	r1, r1
 8007546:	400f      	ands	r7, r1
 8007548:	4639      	mov	r1, r7
 800754a:	4648      	mov	r0, r9
 800754c:	9201      	str	r2, [sp, #4]
 800754e:	9300      	str	r3, [sp, #0]
 8007550:	f000 fb86 	bl	8007c60 <_sbrk_r>
 8007554:	f1b0 3fff 	cmp.w	r0, #4294967295
 8007558:	4680      	mov	r8, r0
 800755a:	d056      	beq.n	800760a <_malloc_r+0x3a2>
 800755c:	9b00      	ldr	r3, [sp, #0]
 800755e:	9a01      	ldr	r2, [sp, #4]
 8007560:	4283      	cmp	r3, r0
 8007562:	d901      	bls.n	8007568 <_malloc_r+0x300>
 8007564:	45ab      	cmp	fp, r5
 8007566:	d150      	bne.n	800760a <_malloc_r+0x3a2>
 8007568:	4842      	ldr	r0, [pc, #264]	; (8007674 <_malloc_r+0x40c>)
 800756a:	6801      	ldr	r1, [r0, #0]
 800756c:	4543      	cmp	r3, r8
 800756e:	eb07 0e01 	add.w	lr, r7, r1
 8007572:	f8c0 e000 	str.w	lr, [r0]
 8007576:	4940      	ldr	r1, [pc, #256]	; (8007678 <_malloc_r+0x410>)
 8007578:	4682      	mov	sl, r0
 800757a:	d113      	bne.n	80075a4 <_malloc_r+0x33c>
 800757c:	420b      	tst	r3, r1
 800757e:	d111      	bne.n	80075a4 <_malloc_r+0x33c>
 8007580:	68ab      	ldr	r3, [r5, #8]
 8007582:	443e      	add	r6, r7
 8007584:	f046 0601 	orr.w	r6, r6, #1
 8007588:	605e      	str	r6, [r3, #4]
 800758a:	4a3c      	ldr	r2, [pc, #240]	; (800767c <_malloc_r+0x414>)
 800758c:	f8da 3000 	ldr.w	r3, [sl]
 8007590:	6811      	ldr	r1, [r2, #0]
 8007592:	428b      	cmp	r3, r1
 8007594:	bf88      	it	hi
 8007596:	6013      	strhi	r3, [r2, #0]
 8007598:	4a39      	ldr	r2, [pc, #228]	; (8007680 <_malloc_r+0x418>)
 800759a:	6811      	ldr	r1, [r2, #0]
 800759c:	428b      	cmp	r3, r1
 800759e:	bf88      	it	hi
 80075a0:	6013      	strhi	r3, [r2, #0]
 80075a2:	e032      	b.n	800760a <_malloc_r+0x3a2>
 80075a4:	6810      	ldr	r0, [r2, #0]
 80075a6:	3001      	adds	r0, #1
 80075a8:	bf1b      	ittet	ne
 80075aa:	eba8 0303 	subne.w	r3, r8, r3
 80075ae:	4473      	addne	r3, lr
 80075b0:	f8c2 8000 	streq.w	r8, [r2]
 80075b4:	f8ca 3000 	strne.w	r3, [sl]
 80075b8:	f018 0007 	ands.w	r0, r8, #7
 80075bc:	bf1c      	itt	ne
 80075be:	f1c0 0008 	rsbne	r0, r0, #8
 80075c2:	4480      	addne	r8, r0
 80075c4:	4b2a      	ldr	r3, [pc, #168]	; (8007670 <_malloc_r+0x408>)
 80075c6:	4447      	add	r7, r8
 80075c8:	4418      	add	r0, r3
 80075ca:	400f      	ands	r7, r1
 80075cc:	1bc7      	subs	r7, r0, r7
 80075ce:	4639      	mov	r1, r7
 80075d0:	4648      	mov	r0, r9
 80075d2:	f000 fb45 	bl	8007c60 <_sbrk_r>
 80075d6:	1c43      	adds	r3, r0, #1
 80075d8:	bf08      	it	eq
 80075da:	4640      	moveq	r0, r8
 80075dc:	f8da 3000 	ldr.w	r3, [sl]
 80075e0:	f8c5 8008 	str.w	r8, [r5, #8]
 80075e4:	bf08      	it	eq
 80075e6:	2700      	moveq	r7, #0
 80075e8:	eba0 0008 	sub.w	r0, r0, r8
 80075ec:	443b      	add	r3, r7
 80075ee:	4407      	add	r7, r0
 80075f0:	f047 0701 	orr.w	r7, r7, #1
 80075f4:	45ab      	cmp	fp, r5
 80075f6:	f8ca 3000 	str.w	r3, [sl]
 80075fa:	f8c8 7004 	str.w	r7, [r8, #4]
 80075fe:	d0c4      	beq.n	800758a <_malloc_r+0x322>
 8007600:	2e0f      	cmp	r6, #15
 8007602:	d810      	bhi.n	8007626 <_malloc_r+0x3be>
 8007604:	2301      	movs	r3, #1
 8007606:	f8c8 3004 	str.w	r3, [r8, #4]
 800760a:	68ab      	ldr	r3, [r5, #8]
 800760c:	685a      	ldr	r2, [r3, #4]
 800760e:	f022 0203 	bic.w	r2, r2, #3
 8007612:	4294      	cmp	r4, r2
 8007614:	eba2 0304 	sub.w	r3, r2, r4
 8007618:	d801      	bhi.n	800761e <_malloc_r+0x3b6>
 800761a:	2b0f      	cmp	r3, #15
 800761c:	dc1a      	bgt.n	8007654 <_malloc_r+0x3ec>
 800761e:	4648      	mov	r0, r9
 8007620:	f000 f848 	bl	80076b4 <__malloc_unlock>
 8007624:	e62d      	b.n	8007282 <_malloc_r+0x1a>
 8007626:	f8db 3004 	ldr.w	r3, [fp, #4]
 800762a:	3e0c      	subs	r6, #12
 800762c:	f026 0607 	bic.w	r6, r6, #7
 8007630:	f003 0301 	and.w	r3, r3, #1
 8007634:	4333      	orrs	r3, r6
 8007636:	f8cb 3004 	str.w	r3, [fp, #4]
 800763a:	eb0b 0306 	add.w	r3, fp, r6
 800763e:	2205      	movs	r2, #5
 8007640:	2e0f      	cmp	r6, #15
 8007642:	605a      	str	r2, [r3, #4]
 8007644:	609a      	str	r2, [r3, #8]
 8007646:	d9a0      	bls.n	800758a <_malloc_r+0x322>
 8007648:	f10b 0108 	add.w	r1, fp, #8
 800764c:	4648      	mov	r0, r9
 800764e:	f000 fc21 	bl	8007e94 <_free_r>
 8007652:	e79a      	b.n	800758a <_malloc_r+0x322>
 8007654:	68ae      	ldr	r6, [r5, #8]
 8007656:	f044 0201 	orr.w	r2, r4, #1
 800765a:	4434      	add	r4, r6
 800765c:	f043 0301 	orr.w	r3, r3, #1
 8007660:	6072      	str	r2, [r6, #4]
 8007662:	60ac      	str	r4, [r5, #8]
 8007664:	6063      	str	r3, [r4, #4]
 8007666:	e631      	b.n	80072cc <_malloc_r+0x64>
 8007668:	200006d0 	.word	0x200006d0
 800766c:	20000674 	.word	0x20000674
 8007670:	00000080 	.word	0x00000080
 8007674:	200006a0 	.word	0x200006a0
 8007678:	0000007f 	.word	0x0000007f
 800767c:	200006c8 	.word	0x200006c8
 8007680:	200006cc 	.word	0x200006cc

08007684 <__ascii_mbtowc>:
 8007684:	b082      	sub	sp, #8
 8007686:	b901      	cbnz	r1, 800768a <__ascii_mbtowc+0x6>
 8007688:	a901      	add	r1, sp, #4
 800768a:	b142      	cbz	r2, 800769e <__ascii_mbtowc+0x1a>
 800768c:	b14b      	cbz	r3, 80076a2 <__ascii_mbtowc+0x1e>
 800768e:	7813      	ldrb	r3, [r2, #0]
 8007690:	600b      	str	r3, [r1, #0]
 8007692:	7812      	ldrb	r2, [r2, #0]
 8007694:	1c10      	adds	r0, r2, #0
 8007696:	bf18      	it	ne
 8007698:	2001      	movne	r0, #1
 800769a:	b002      	add	sp, #8
 800769c:	4770      	bx	lr
 800769e:	4610      	mov	r0, r2
 80076a0:	e7fb      	b.n	800769a <__ascii_mbtowc+0x16>
 80076a2:	f06f 0001 	mvn.w	r0, #1
 80076a6:	e7f8      	b.n	800769a <__ascii_mbtowc+0x16>

080076a8 <__malloc_lock>:
 80076a8:	4801      	ldr	r0, [pc, #4]	; (80076b0 <__malloc_lock+0x8>)
 80076aa:	f000 bcaf 	b.w	800800c <__retarget_lock_acquire_recursive>
 80076ae:	bf00      	nop
 80076b0:	20000e20 	.word	0x20000e20

080076b4 <__malloc_unlock>:
 80076b4:	4801      	ldr	r0, [pc, #4]	; (80076bc <__malloc_unlock+0x8>)
 80076b6:	f000 bcaa 	b.w	800800e <__retarget_lock_release_recursive>
 80076ba:	bf00      	nop
 80076bc:	20000e20 	.word	0x20000e20

080076c0 <_Balloc>:
 80076c0:	b570      	push	{r4, r5, r6, lr}
 80076c2:	6a45      	ldr	r5, [r0, #36]	; 0x24
 80076c4:	4604      	mov	r4, r0
 80076c6:	460e      	mov	r6, r1
 80076c8:	b93d      	cbnz	r5, 80076da <_Balloc+0x1a>
 80076ca:	2010      	movs	r0, #16
 80076cc:	f7ff fdc4 	bl	8007258 <malloc>
 80076d0:	6260      	str	r0, [r4, #36]	; 0x24
 80076d2:	6045      	str	r5, [r0, #4]
 80076d4:	6085      	str	r5, [r0, #8]
 80076d6:	6005      	str	r5, [r0, #0]
 80076d8:	60c5      	str	r5, [r0, #12]
 80076da:	6a65      	ldr	r5, [r4, #36]	; 0x24
 80076dc:	68eb      	ldr	r3, [r5, #12]
 80076de:	b183      	cbz	r3, 8007702 <_Balloc+0x42>
 80076e0:	6a63      	ldr	r3, [r4, #36]	; 0x24
 80076e2:	68db      	ldr	r3, [r3, #12]
 80076e4:	f853 0026 	ldr.w	r0, [r3, r6, lsl #2]
 80076e8:	b9b8      	cbnz	r0, 800771a <_Balloc+0x5a>
 80076ea:	2101      	movs	r1, #1
 80076ec:	fa01 f506 	lsl.w	r5, r1, r6
 80076f0:	1d6a      	adds	r2, r5, #5
 80076f2:	0092      	lsls	r2, r2, #2
 80076f4:	4620      	mov	r0, r4
 80076f6:	f000 fb4a 	bl	8007d8e <_calloc_r>
 80076fa:	b160      	cbz	r0, 8007716 <_Balloc+0x56>
 80076fc:	6046      	str	r6, [r0, #4]
 80076fe:	6085      	str	r5, [r0, #8]
 8007700:	e00e      	b.n	8007720 <_Balloc+0x60>
 8007702:	2221      	movs	r2, #33	; 0x21
 8007704:	2104      	movs	r1, #4
 8007706:	4620      	mov	r0, r4
 8007708:	f000 fb41 	bl	8007d8e <_calloc_r>
 800770c:	6a63      	ldr	r3, [r4, #36]	; 0x24
 800770e:	60e8      	str	r0, [r5, #12]
 8007710:	68db      	ldr	r3, [r3, #12]
 8007712:	2b00      	cmp	r3, #0
 8007714:	d1e4      	bne.n	80076e0 <_Balloc+0x20>
 8007716:	2000      	movs	r0, #0
 8007718:	bd70      	pop	{r4, r5, r6, pc}
 800771a:	6802      	ldr	r2, [r0, #0]
 800771c:	f843 2026 	str.w	r2, [r3, r6, lsl #2]
 8007720:	2300      	movs	r3, #0
 8007722:	6103      	str	r3, [r0, #16]
 8007724:	60c3      	str	r3, [r0, #12]
 8007726:	bd70      	pop	{r4, r5, r6, pc}

08007728 <_Bfree>:
 8007728:	b570      	push	{r4, r5, r6, lr}
 800772a:	6a44      	ldr	r4, [r0, #36]	; 0x24
 800772c:	4606      	mov	r6, r0
 800772e:	460d      	mov	r5, r1
 8007730:	b93c      	cbnz	r4, 8007742 <_Bfree+0x1a>
 8007732:	2010      	movs	r0, #16
 8007734:	f7ff fd90 	bl	8007258 <malloc>
 8007738:	6270      	str	r0, [r6, #36]	; 0x24
 800773a:	6044      	str	r4, [r0, #4]
 800773c:	6084      	str	r4, [r0, #8]
 800773e:	6004      	str	r4, [r0, #0]
 8007740:	60c4      	str	r4, [r0, #12]
 8007742:	b13d      	cbz	r5, 8007754 <_Bfree+0x2c>
 8007744:	6a73      	ldr	r3, [r6, #36]	; 0x24
 8007746:	686a      	ldr	r2, [r5, #4]
 8007748:	68db      	ldr	r3, [r3, #12]
 800774a:	f853 1022 	ldr.w	r1, [r3, r2, lsl #2]
 800774e:	6029      	str	r1, [r5, #0]
 8007750:	f843 5022 	str.w	r5, [r3, r2, lsl #2]
 8007754:	bd70      	pop	{r4, r5, r6, pc}

08007756 <__multadd>:
 8007756:	e92d 41f0 	stmdb	sp!, {r4, r5, r6, r7, r8, lr}
 800775a:	690d      	ldr	r5, [r1, #16]
 800775c:	461f      	mov	r7, r3
 800775e:	4606      	mov	r6, r0
 8007760:	460c      	mov	r4, r1
 8007762:	f101 0e14 	add.w	lr, r1, #20
 8007766:	2300      	movs	r3, #0
 8007768:	f8de 0000 	ldr.w	r0, [lr]
 800776c:	b281      	uxth	r1, r0
 800776e:	fb02 7101 	mla	r1, r2, r1, r7
 8007772:	0c0f      	lsrs	r7, r1, #16
 8007774:	0c00      	lsrs	r0, r0, #16
 8007776:	fb02 7000 	mla	r0, r2, r0, r7
 800777a:	b289      	uxth	r1, r1
 800777c:	3301      	adds	r3, #1
 800777e:	eb01 4100 	add.w	r1, r1, r0, lsl #16
 8007782:	429d      	cmp	r5, r3
 8007784:	ea4f 4710 	mov.w	r7, r0, lsr #16
 8007788:	f84e 1b04 	str.w	r1, [lr], #4
 800778c:	dcec      	bgt.n	8007768 <__multadd+0x12>
 800778e:	b1d7      	cbz	r7, 80077c6 <__multadd+0x70>
 8007790:	68a3      	ldr	r3, [r4, #8]
 8007792:	429d      	cmp	r5, r3
 8007794:	db12      	blt.n	80077bc <__multadd+0x66>
 8007796:	6861      	ldr	r1, [r4, #4]
 8007798:	4630      	mov	r0, r6
 800779a:	3101      	adds	r1, #1
 800779c:	f7ff ff90 	bl	80076c0 <_Balloc>
 80077a0:	6922      	ldr	r2, [r4, #16]
 80077a2:	3202      	adds	r2, #2
 80077a4:	f104 010c 	add.w	r1, r4, #12
 80077a8:	4680      	mov	r8, r0
 80077aa:	0092      	lsls	r2, r2, #2
 80077ac:	300c      	adds	r0, #12
 80077ae:	f7fd fedf 	bl	8005570 <memcpy>
 80077b2:	4621      	mov	r1, r4
 80077b4:	4630      	mov	r0, r6
 80077b6:	f7ff ffb7 	bl	8007728 <_Bfree>
 80077ba:	4644      	mov	r4, r8
 80077bc:	eb04 0385 	add.w	r3, r4, r5, lsl #2
 80077c0:	3501      	adds	r5, #1
 80077c2:	615f      	str	r7, [r3, #20]
 80077c4:	6125      	str	r5, [r4, #16]
 80077c6:	4620      	mov	r0, r4
 80077c8:	e8bd 81f0 	ldmia.w	sp!, {r4, r5, r6, r7, r8, pc}

080077cc <__hi0bits>:
 80077cc:	0c02      	lsrs	r2, r0, #16
 80077ce:	0412      	lsls	r2, r2, #16
 80077d0:	4603      	mov	r3, r0
 80077d2:	b9b2      	cbnz	r2, 8007802 <__hi0bits+0x36>
 80077d4:	0403      	lsls	r3, r0, #16
 80077d6:	2010      	movs	r0, #16
 80077d8:	f013 4f7f 	tst.w	r3, #4278190080	; 0xff000000
 80077dc:	bf04      	itt	eq
 80077de:	021b      	lsleq	r3, r3, #8
 80077e0:	3008      	addeq	r0, #8
 80077e2:	f013 4f70 	tst.w	r3, #4026531840	; 0xf0000000
 80077e6:	bf04      	itt	eq
 80077e8:	011b      	lsleq	r3, r3, #4
 80077ea:	3004      	addeq	r0, #4
 80077ec:	f013 4f40 	tst.w	r3, #3221225472	; 0xc0000000
 80077f0:	bf04      	itt	eq
 80077f2:	009b      	lsleq	r3, r3, #2
 80077f4:	3002      	addeq	r0, #2
 80077f6:	2b00      	cmp	r3, #0
 80077f8:	db06      	blt.n	8007808 <__hi0bits+0x3c>
 80077fa:	005b      	lsls	r3, r3, #1
 80077fc:	d503      	bpl.n	8007806 <__hi0bits+0x3a>
 80077fe:	3001      	adds	r0, #1
 8007800:	4770      	bx	lr
 8007802:	2000      	movs	r0, #0
 8007804:	e7e8      	b.n	80077d8 <__hi0bits+0xc>
 8007806:	2020      	movs	r0, #32
 8007808:	4770      	bx	lr

0800780a <__lo0bits>:
 800780a:	6803      	ldr	r3, [r0, #0]
 800780c:	f013 0207 	ands.w	r2, r3, #7
 8007810:	4601      	mov	r1, r0
 8007812:	d00b      	beq.n	800782c <__lo0bits+0x22>
 8007814:	07da      	lsls	r2, r3, #31
 8007816:	d423      	bmi.n	8007860 <__lo0bits+0x56>
 8007818:	0798      	lsls	r0, r3, #30
 800781a:	bf49      	itett	mi
 800781c:	085b      	lsrmi	r3, r3, #1
 800781e:	089b      	lsrpl	r3, r3, #2
 8007820:	2001      	movmi	r0, #1
 8007822:	600b      	strmi	r3, [r1, #0]
 8007824:	bf5c      	itt	pl
 8007826:	600b      	strpl	r3, [r1, #0]
 8007828:	2002      	movpl	r0, #2
 800782a:	4770      	bx	lr
 800782c:	b298      	uxth	r0, r3
 800782e:	b9a8      	cbnz	r0, 800785c <__lo0bits+0x52>
 8007830:	0c1b      	lsrs	r3, r3, #16
 8007832:	2010      	movs	r0, #16
 8007834:	f013 0fff 	tst.w	r3, #255	; 0xff
 8007838:	bf04      	itt	eq
 800783a:	0a1b      	lsreq	r3, r3, #8
 800783c:	3008      	addeq	r0, #8
 800783e:	071a      	lsls	r2, r3, #28
 8007840:	bf04      	itt	eq
 8007842:	091b      	lsreq	r3, r3, #4
 8007844:	3004      	addeq	r0, #4
 8007846:	079a      	lsls	r2, r3, #30
 8007848:	bf04      	itt	eq
 800784a:	089b      	lsreq	r3, r3, #2
 800784c:	3002      	addeq	r0, #2
 800784e:	07da      	lsls	r2, r3, #31
 8007850:	d402      	bmi.n	8007858 <__lo0bits+0x4e>
 8007852:	085b      	lsrs	r3, r3, #1
 8007854:	d006      	beq.n	8007864 <__lo0bits+0x5a>
 8007856:	3001      	adds	r0, #1
 8007858:	600b      	str	r3, [r1, #0]
 800785a:	4770      	bx	lr
 800785c:	4610      	mov	r0, r2
 800785e:	e7e9      	b.n	8007834 <__lo0bits+0x2a>
 8007860:	2000      	movs	r0, #0
 8007862:	4770      	bx	lr
 8007864:	2020      	movs	r0, #32
 8007866:	4770      	bx	lr

08007868 <__i2b>:
 8007868:	b510      	push	{r4, lr}
 800786a:	460c      	mov	r4, r1
 800786c:	2101      	movs	r1, #1
 800786e:	f7ff ff27 	bl	80076c0 <_Balloc>
 8007872:	2201      	movs	r2, #1
 8007874:	6144      	str	r4, [r0, #20]
 8007876:	6102      	str	r2, [r0, #16]
 8007878:	bd10      	pop	{r4, pc}

0800787a <__multiply>:
 800787a:	e92d 4ff7 	stmdb	sp!, {r0, r1, r2, r4, r5, r6, r7, r8, r9, sl, fp, lr}
 800787e:	4614      	mov	r4, r2
 8007880:	690a      	ldr	r2, [r1, #16]
 8007882:	6923      	ldr	r3, [r4, #16]
 8007884:	429a      	cmp	r2, r3
 8007886:	bfb8      	it	lt
 8007888:	460b      	movlt	r3, r1
 800788a:	4689      	mov	r9, r1
 800788c:	bfbc      	itt	lt
 800788e:	46a1      	movlt	r9, r4
 8007890:	461c      	movlt	r4, r3
 8007892:	f8d9 7010 	ldr.w	r7, [r9, #16]
 8007896:	f8d4 a010 	ldr.w	sl, [r4, #16]
 800789a:	f8d9 3008 	ldr.w	r3, [r9, #8]
 800789e:	f8d9 1004 	ldr.w	r1, [r9, #4]
 80078a2:	eb07 060a 	add.w	r6, r7, sl
 80078a6:	429e      	cmp	r6, r3
 80078a8:	bfc8      	it	gt
 80078aa:	3101      	addgt	r1, #1
 80078ac:	f7ff ff08 	bl	80076c0 <_Balloc>
 80078b0:	f100 0514 	add.w	r5, r0, #20
 80078b4:	eb05 0886 	add.w	r8, r5, r6, lsl #2
 80078b8:	462b      	mov	r3, r5
 80078ba:	2200      	movs	r2, #0
 80078bc:	4543      	cmp	r3, r8
 80078be:	d316      	bcc.n	80078ee <__multiply+0x74>
 80078c0:	f104 0214 	add.w	r2, r4, #20
 80078c4:	f109 0114 	add.w	r1, r9, #20
 80078c8:	eb02 038a 	add.w	r3, r2, sl, lsl #2
 80078cc:	eb01 0787 	add.w	r7, r1, r7, lsl #2
 80078d0:	9301      	str	r3, [sp, #4]
 80078d2:	9c01      	ldr	r4, [sp, #4]
 80078d4:	4294      	cmp	r4, r2
 80078d6:	4613      	mov	r3, r2
 80078d8:	d80c      	bhi.n	80078f4 <__multiply+0x7a>
 80078da:	2e00      	cmp	r6, #0
 80078dc:	dd03      	ble.n	80078e6 <__multiply+0x6c>
 80078de:	f858 3d04 	ldr.w	r3, [r8, #-4]!
 80078e2:	2b00      	cmp	r3, #0
 80078e4:	d054      	beq.n	8007990 <__multiply+0x116>
 80078e6:	6106      	str	r6, [r0, #16]
 80078e8:	b003      	add	sp, #12
 80078ea:	e8bd 8ff0 	ldmia.w	sp!, {r4, r5, r6, r7, r8, r9, sl, fp, pc}
 80078ee:	f843 2b04 	str.w	r2, [r3], #4
 80078f2:	e7e3      	b.n	80078bc <__multiply+0x42>
 80078f4:	f8b3 a000 	ldrh.w	sl, [r3]
 80078f8:	3204      	adds	r2, #4
 80078fa:	f1ba 0f00 	cmp.w	sl, #0
 80078fe:	d020      	beq.n	8007942 <__multiply+0xc8>
 8007900:	46ae      	mov	lr, r5
 8007902:	4689      	mov	r9, r1
 8007904:	f04f 0c00 	mov.w	ip, #0
 8007908:	f859 4b04 	ldr.w	r4, [r9], #4
 800790c:	f8be b000 	ldrh.w	fp, [lr]
 8007910:	b2a3      	uxth	r3, r4
 8007912:	fb0a b303 	mla	r3, sl, r3, fp
 8007916:	ea4f 4b14 	mov.w	fp, r4, lsr #16
 800791a:	f8de 4000 	ldr.w	r4, [lr]
 800791e:	4463      	add	r3, ip
 8007920:	ea4f 4c14 	mov.w	ip, r4, lsr #16
 8007924:	fb0a c40b 	mla	r4, sl, fp, ip
 8007928:	eb04 4413 	add.w	r4, r4, r3, lsr #16
 800792c:	b29b      	uxth	r3, r3
 800792e:	ea43 4304 	orr.w	r3, r3, r4, lsl #16
 8007932:	454f      	cmp	r7, r9
 8007934:	ea4f 4c14 	mov.w	ip, r4, lsr #16
 8007938:	f84e 3b04 	str.w	r3, [lr], #4
 800793c:	d8e4      	bhi.n	8007908 <__multiply+0x8e>
 800793e:	f8ce c000 	str.w	ip, [lr]
 8007942:	f832 9c02 	ldrh.w	r9, [r2, #-2]
 8007946:	f1b9 0f00 	cmp.w	r9, #0
 800794a:	d01f      	beq.n	800798c <__multiply+0x112>
 800794c:	682b      	ldr	r3, [r5, #0]
 800794e:	46ae      	mov	lr, r5
 8007950:	468c      	mov	ip, r1
 8007952:	f04f 0a00 	mov.w	sl, #0
 8007956:	f8bc 4000 	ldrh.w	r4, [ip]
 800795a:	f8be b002 	ldrh.w	fp, [lr, #2]
 800795e:	fb09 b404 	mla	r4, r9, r4, fp
 8007962:	44a2      	add	sl, r4
 8007964:	b29b      	uxth	r3, r3
 8007966:	ea43 430a 	orr.w	r3, r3, sl, lsl #16
 800796a:	f84e 3b04 	str.w	r3, [lr], #4
 800796e:	f85c 3b04 	ldr.w	r3, [ip], #4
 8007972:	f8be 4000 	ldrh.w	r4, [lr]
 8007976:	0c1b      	lsrs	r3, r3, #16
 8007978:	fb09 4303 	mla	r3, r9, r3, r4
 800797c:	eb03 431a 	add.w	r3, r3, sl, lsr #16
 8007980:	4567      	cmp	r7, ip
 8007982:	ea4f 4a13 	mov.w	sl, r3, lsr #16
 8007986:	d8e6      	bhi.n	8007956 <__multiply+0xdc>
 8007988:	f8ce 3000 	str.w	r3, [lr]
 800798c:	3504      	adds	r5, #4
 800798e:	e7a0      	b.n	80078d2 <__multiply+0x58>
 8007990:	3e01      	subs	r6, #1
 8007992:	e7a2      	b.n	80078da <__multiply+0x60>

08007994 <__pow5mult>:
 8007994:	e92d 43f8 	stmdb	sp!, {r3, r4, r5, r6, r7, r8, r9, lr}
 8007998:	4615      	mov	r5, r2
 800799a:	f012 0203 	ands.w	r2, r2, #3
 800799e:	4606      	mov	r6, r0
 80079a0:	460f      	mov	r7, r1
 80079a2:	d007      	beq.n	80079b4 <__pow5mult+0x20>
 80079a4:	3a01      	subs	r2, #1
 80079a6:	4c21      	ldr	r4, [pc, #132]	; (8007a2c <__pow5mult+0x98>)
 80079a8:	2300      	movs	r3, #0
 80079aa:	f854 2022 	ldr.w	r2, [r4, r2, lsl #2]
 80079ae:	f7ff fed2 	bl	8007756 <__multadd>
 80079b2:	4607      	mov	r7, r0
 80079b4:	10ad      	asrs	r5, r5, #2
 80079b6:	d035      	beq.n	8007a24 <__pow5mult+0x90>
 80079b8:	6a74      	ldr	r4, [r6, #36]	; 0x24
 80079ba:	b93c      	cbnz	r4, 80079cc <__pow5mult+0x38>
 80079bc:	2010      	movs	r0, #16
 80079be:	f7ff fc4b 	bl	8007258 <malloc>
 80079c2:	6270      	str	r0, [r6, #36]	; 0x24
 80079c4:	6044      	str	r4, [r0, #4]
 80079c6:	6084      	str	r4, [r0, #8]
 80079c8:	6004      	str	r4, [r0, #0]
 80079ca:	60c4      	str	r4, [r0, #12]
 80079cc:	f8d6 8024 	ldr.w	r8, [r6, #36]	; 0x24
 80079d0:	f8d8 4008 	ldr.w	r4, [r8, #8]
 80079d4:	b94c      	cbnz	r4, 80079ea <__pow5mult+0x56>
 80079d6:	f240 2171 	movw	r1, #625	; 0x271
 80079da:	4630      	mov	r0, r6
 80079dc:	f7ff ff44 	bl	8007868 <__i2b>
 80079e0:	2300      	movs	r3, #0
 80079e2:	f8c8 0008 	str.w	r0, [r8, #8]
 80079e6:	4604      	mov	r4, r0
 80079e8:	6003      	str	r3, [r0, #0]
 80079ea:	f04f 0800 	mov.w	r8, #0
 80079ee:	07eb      	lsls	r3, r5, #31
 80079f0:	d50a      	bpl.n	8007a08 <__pow5mult+0x74>
 80079f2:	4639      	mov	r1, r7
 80079f4:	4622      	mov	r2, r4
 80079f6:	4630      	mov	r0, r6
 80079f8:	f7ff ff3f 	bl	800787a <__multiply>
 80079fc:	4639      	mov	r1, r7
 80079fe:	4681      	mov	r9, r0
 8007a00:	4630      	mov	r0, r6
 8007a02:	f7ff fe91 	bl	8007728 <_Bfree>
 8007a06:	464f      	mov	r7, r9
 8007a08:	106d      	asrs	r5, r5, #1
 8007a0a:	d00b      	beq.n	8007a24 <__pow5mult+0x90>
 8007a0c:	6820      	ldr	r0, [r4, #0]
 8007a0e:	b938      	cbnz	r0, 8007a20 <__pow5mult+0x8c>
 8007a10:	4622      	mov	r2, r4
 8007a12:	4621      	mov	r1, r4
 8007a14:	4630      	mov	r0, r6
 8007a16:	f7ff ff30 	bl	800787a <__multiply>
 8007a1a:	6020      	str	r0, [r4, #0]
 8007a1c:	f8c0 8000 	str.w	r8, [r0]
 8007a20:	4604      	mov	r4, r0
 8007a22:	e7e4      	b.n	80079ee <__pow5mult+0x5a>
 8007a24:	4638      	mov	r0, r7
 8007a26:	e8bd 83f8 	ldmia.w	sp!, {r3, r4, r5, r6, r7, r8, r9, pc}
 8007a2a:	bf00      	nop
 8007a2c:	080087c0 	.word	0x080087c0

08007a30 <__lshift>:
 8007a30:	e92d 47f0 	stmdb	sp!, {r4, r5, r6, r7, r8, r9, sl, lr}
 8007a34:	460c      	mov	r4, r1
 8007a36:	ea4f 1a62 	mov.w	sl, r2, asr #5
 8007a3a:	6923      	ldr	r3, [r4, #16]
 8007a3c:	6849      	ldr	r1, [r1, #4]
 8007a3e:	eb0a 0903 	add.w	r9, sl, r3
 8007a42:	68a3      	ldr	r3, [r4, #8]
 8007a44:	4607      	mov	r7, r0
 8007a46:	4616      	mov	r6, r2
 8007a48:	f109 0501 	add.w	r5, r9, #1
 8007a4c:	42ab      	cmp	r3, r5
 8007a4e:	db31      	blt.n	8007ab4 <__lshift+0x84>
 8007a50:	4638      	mov	r0, r7
 8007a52:	f7ff fe35 	bl	80076c0 <_Balloc>
 8007a56:	2200      	movs	r2, #0
 8007a58:	4680      	mov	r8, r0
 8007a5a:	f100 0314 	add.w	r3, r0, #20
 8007a5e:	4611      	mov	r1, r2
 8007a60:	4552      	cmp	r2, sl
 8007a62:	db2a      	blt.n	8007aba <__lshift+0x8a>
 8007a64:	6920      	ldr	r0, [r4, #16]
 8007a66:	ea2a 7aea 	bic.w	sl, sl, sl, asr #31
 8007a6a:	f104 0114 	add.w	r1, r4, #20
 8007a6e:	f016 021f 	ands.w	r2, r6, #31
 8007a72:	eb03 038a 	add.w	r3, r3, sl, lsl #2
 8007a76:	eb01 0e80 	add.w	lr, r1, r0, lsl #2
 8007a7a:	d022      	beq.n	8007ac2 <__lshift+0x92>
 8007a7c:	f1c2 0c20 	rsb	ip, r2, #32
 8007a80:	2000      	movs	r0, #0
 8007a82:	680e      	ldr	r6, [r1, #0]
 8007a84:	4096      	lsls	r6, r2
 8007a86:	4330      	orrs	r0, r6
 8007a88:	f843 0b04 	str.w	r0, [r3], #4
 8007a8c:	f851 0b04 	ldr.w	r0, [r1], #4
 8007a90:	458e      	cmp	lr, r1
 8007a92:	fa20 f00c 	lsr.w	r0, r0, ip
 8007a96:	d8f4      	bhi.n	8007a82 <__lshift+0x52>
 8007a98:	6018      	str	r0, [r3, #0]
 8007a9a:	b108      	cbz	r0, 8007aa0 <__lshift+0x70>
 8007a9c:	f109 0502 	add.w	r5, r9, #2
 8007aa0:	3d01      	subs	r5, #1
 8007aa2:	4638      	mov	r0, r7
 8007aa4:	f8c8 5010 	str.w	r5, [r8, #16]
 8007aa8:	4621      	mov	r1, r4
 8007aaa:	f7ff fe3d 	bl	8007728 <_Bfree>
 8007aae:	4640      	mov	r0, r8
 8007ab0:	e8bd 87f0 	ldmia.w	sp!, {r4, r5, r6, r7, r8, r9, sl, pc}
 8007ab4:	3101      	adds	r1, #1
 8007ab6:	005b      	lsls	r3, r3, #1
 8007ab8:	e7c8      	b.n	8007a4c <__lshift+0x1c>
 8007aba:	f843 1022 	str.w	r1, [r3, r2, lsl #2]
 8007abe:	3201      	adds	r2, #1
 8007ac0:	e7ce      	b.n	8007a60 <__lshift+0x30>
 8007ac2:	3b04      	subs	r3, #4
 8007ac4:	f851 2b04 	ldr.w	r2, [r1], #4
 8007ac8:	f843 2f04 	str.w	r2, [r3, #4]!
 8007acc:	458e      	cmp	lr, r1
 8007ace:	d8f9      	bhi.n	8007ac4 <__lshift+0x94>
 8007ad0:	e7e6      	b.n	8007aa0 <__lshift+0x70>

08007ad2 <__mcmp>:
 8007ad2:	6903      	ldr	r3, [r0, #16]
 8007ad4:	690a      	ldr	r2, [r1, #16]
 8007ad6:	1a9b      	subs	r3, r3, r2
 8007ad8:	b530      	push	{r4, r5, lr}
 8007ada:	d10c      	bne.n	8007af6 <__mcmp+0x24>
 8007adc:	0092      	lsls	r2, r2, #2
 8007ade:	3014      	adds	r0, #20
 8007ae0:	3114      	adds	r1, #20
 8007ae2:	1884      	adds	r4, r0, r2
 8007ae4:	4411      	add	r1, r2
 8007ae6:	f854 5d04 	ldr.w	r5, [r4, #-4]!
 8007aea:	f851 2d04 	ldr.w	r2, [r1, #-4]!
 8007aee:	4295      	cmp	r5, r2
 8007af0:	d003      	beq.n	8007afa <__mcmp+0x28>
 8007af2:	d305      	bcc.n	8007b00 <__mcmp+0x2e>
 8007af4:	2301      	movs	r3, #1
 8007af6:	4618      	mov	r0, r3
 8007af8:	bd30      	pop	{r4, r5, pc}
 8007afa:	42a0      	cmp	r0, r4
 8007afc:	d3f3      	bcc.n	8007ae6 <__mcmp+0x14>
 8007afe:	e7fa      	b.n	8007af6 <__mcmp+0x24>
 8007b00:	f04f 33ff 	mov.w	r3, #4294967295
 8007b04:	e7f7      	b.n	8007af6 <__mcmp+0x24>

08007b06 <__mdiff>:
 8007b06:	e92d 47f0 	stmdb	sp!, {r4, r5, r6, r7, r8, r9, sl, lr}
 8007b0a:	460d      	mov	r5, r1
 8007b0c:	4607      	mov	r7, r0
 8007b0e:	4611      	mov	r1, r2
 8007b10:	4628      	mov	r0, r5
 8007b12:	4614      	mov	r4, r2
 8007b14:	f7ff ffdd 	bl	8007ad2 <__mcmp>
 8007b18:	1e06      	subs	r6, r0, #0
 8007b1a:	d108      	bne.n	8007b2e <__mdiff+0x28>
 8007b1c:	4631      	mov	r1, r6
 8007b1e:	4638      	mov	r0, r7
 8007b20:	f7ff fdce 	bl	80076c0 <_Balloc>
 8007b24:	2301      	movs	r3, #1
 8007b26:	6103      	str	r3, [r0, #16]
 8007b28:	6146      	str	r6, [r0, #20]
 8007b2a:	e8bd 87f0 	ldmia.w	sp!, {r4, r5, r6, r7, r8, r9, sl, pc}
 8007b2e:	bfa4      	itt	ge
 8007b30:	4623      	movge	r3, r4
 8007b32:	462c      	movge	r4, r5
 8007b34:	4638      	mov	r0, r7
 8007b36:	6861      	ldr	r1, [r4, #4]
 8007b38:	bfa6      	itte	ge
 8007b3a:	461d      	movge	r5, r3
 8007b3c:	2600      	movge	r6, #0
 8007b3e:	2601      	movlt	r6, #1
 8007b40:	f7ff fdbe 	bl	80076c0 <_Balloc>
 8007b44:	692b      	ldr	r3, [r5, #16]
 8007b46:	60c6      	str	r6, [r0, #12]
 8007b48:	6926      	ldr	r6, [r4, #16]
 8007b4a:	f105 0914 	add.w	r9, r5, #20
 8007b4e:	f104 0214 	add.w	r2, r4, #20
 8007b52:	eb02 0786 	add.w	r7, r2, r6, lsl #2
 8007b56:	eb09 0883 	add.w	r8, r9, r3, lsl #2
 8007b5a:	f100 0514 	add.w	r5, r0, #20
 8007b5e:	f04f 0c00 	mov.w	ip, #0
 8007b62:	f852 ab04 	ldr.w	sl, [r2], #4
 8007b66:	f859 4b04 	ldr.w	r4, [r9], #4
 8007b6a:	fa1c f18a 	uxtah	r1, ip, sl
 8007b6e:	b2a3      	uxth	r3, r4
 8007b70:	1ac9      	subs	r1, r1, r3
 8007b72:	0c23      	lsrs	r3, r4, #16
 8007b74:	ebc3 431a 	rsb	r3, r3, sl, lsr #16
 8007b78:	eb03 4321 	add.w	r3, r3, r1, asr #16
 8007b7c:	b289      	uxth	r1, r1
 8007b7e:	ea4f 4c23 	mov.w	ip, r3, asr #16
 8007b82:	45c8      	cmp	r8, r9
 8007b84:	ea41 4303 	orr.w	r3, r1, r3, lsl #16
 8007b88:	4696      	mov	lr, r2
 8007b8a:	f845 3b04 	str.w	r3, [r5], #4
 8007b8e:	d8e8      	bhi.n	8007b62 <__mdiff+0x5c>
 8007b90:	45be      	cmp	lr, r7
 8007b92:	d305      	bcc.n	8007ba0 <__mdiff+0x9a>
 8007b94:	f855 3d04 	ldr.w	r3, [r5, #-4]!
 8007b98:	b18b      	cbz	r3, 8007bbe <__mdiff+0xb8>
 8007b9a:	6106      	str	r6, [r0, #16]
 8007b9c:	e8bd 87f0 	ldmia.w	sp!, {r4, r5, r6, r7, r8, r9, sl, pc}
 8007ba0:	f85e 1b04 	ldr.w	r1, [lr], #4
 8007ba4:	fa1c f381 	uxtah	r3, ip, r1
 8007ba8:	141a      	asrs	r2, r3, #16
 8007baa:	eb02 4211 	add.w	r2, r2, r1, lsr #16
 8007bae:	b29b      	uxth	r3, r3
 8007bb0:	ea43 4302 	orr.w	r3, r3, r2, lsl #16
 8007bb4:	ea4f 4c22 	mov.w	ip, r2, asr #16
 8007bb8:	f845 3b04 	str.w	r3, [r5], #4
 8007bbc:	e7e8      	b.n	8007b90 <__mdiff+0x8a>
 8007bbe:	3e01      	subs	r6, #1
 8007bc0:	e7e8      	b.n	8007b94 <__mdiff+0x8e>

08007bc2 <__d2b>:
 8007bc2:	e92d 43f7 	stmdb	sp!, {r0, r1, r2, r4, r5, r6, r7, r8, r9, lr}
 8007bc6:	460e      	mov	r6, r1
 8007bc8:	2101      	movs	r1, #1
 8007bca:	ec59 8b10 	vmov	r8, r9, d0
 8007bce:	4615      	mov	r5, r2
 8007bd0:	f7ff fd76 	bl	80076c0 <_Balloc>
 8007bd4:	f3c9 540a 	ubfx	r4, r9, #20, #11
 8007bd8:	4607      	mov	r7, r0
 8007bda:	f3c9 0313 	ubfx	r3, r9, #0, #20
 8007bde:	bb34      	cbnz	r4, 8007c2e <__d2b+0x6c>
 8007be0:	9301      	str	r3, [sp, #4]
 8007be2:	f1b8 0f00 	cmp.w	r8, #0
 8007be6:	d027      	beq.n	8007c38 <__d2b+0x76>
 8007be8:	a802      	add	r0, sp, #8
 8007bea:	f840 8d08 	str.w	r8, [r0, #-8]!
 8007bee:	f7ff fe0c 	bl	800780a <__lo0bits>
 8007bf2:	9900      	ldr	r1, [sp, #0]
 8007bf4:	b1f0      	cbz	r0, 8007c34 <__d2b+0x72>
 8007bf6:	9a01      	ldr	r2, [sp, #4]
 8007bf8:	f1c0 0320 	rsb	r3, r0, #32
 8007bfc:	fa02 f303 	lsl.w	r3, r2, r3
 8007c00:	430b      	orrs	r3, r1
 8007c02:	40c2      	lsrs	r2, r0
 8007c04:	617b      	str	r3, [r7, #20]
 8007c06:	9201      	str	r2, [sp, #4]
 8007c08:	9b01      	ldr	r3, [sp, #4]
 8007c0a:	61bb      	str	r3, [r7, #24]
 8007c0c:	2b00      	cmp	r3, #0
 8007c0e:	bf14      	ite	ne
 8007c10:	2102      	movne	r1, #2
 8007c12:	2101      	moveq	r1, #1
 8007c14:	6139      	str	r1, [r7, #16]
 8007c16:	b1c4      	cbz	r4, 8007c4a <__d2b+0x88>
 8007c18:	f2a4 4433 	subw	r4, r4, #1075	; 0x433
 8007c1c:	4404      	add	r4, r0
 8007c1e:	6034      	str	r4, [r6, #0]
 8007c20:	f1c0 0035 	rsb	r0, r0, #53	; 0x35
 8007c24:	6028      	str	r0, [r5, #0]
 8007c26:	4638      	mov	r0, r7
 8007c28:	b003      	add	sp, #12
 8007c2a:	e8bd 83f0 	ldmia.w	sp!, {r4, r5, r6, r7, r8, r9, pc}
 8007c2e:	f443 1380 	orr.w	r3, r3, #1048576	; 0x100000
 8007c32:	e7d5      	b.n	8007be0 <__d2b+0x1e>
 8007c34:	6179      	str	r1, [r7, #20]
 8007c36:	e7e7      	b.n	8007c08 <__d2b+0x46>
 8007c38:	a801      	add	r0, sp, #4
 8007c3a:	f7ff fde6 	bl	800780a <__lo0bits>
 8007c3e:	9b01      	ldr	r3, [sp, #4]
 8007c40:	617b      	str	r3, [r7, #20]
 8007c42:	2101      	movs	r1, #1
 8007c44:	6139      	str	r1, [r7, #16]
 8007c46:	3020      	adds	r0, #32
 8007c48:	e7e5      	b.n	8007c16 <__d2b+0x54>
 8007c4a:	eb07 0381 	add.w	r3, r7, r1, lsl #2
 8007c4e:	f2a0 4032 	subw	r0, r0, #1074	; 0x432
 8007c52:	6030      	str	r0, [r6, #0]
 8007c54:	6918      	ldr	r0, [r3, #16]
 8007c56:	f7ff fdb9 	bl	80077cc <__hi0bits>
 8007c5a:	ebc0 1041 	rsb	r0, r0, r1, lsl #5
 8007c5e:	e7e1      	b.n	8007c24 <__d2b+0x62>

08007c60 <_sbrk_r>:
 8007c60:	b538      	push	{r3, r4, r5, lr}
 8007c62:	4c06      	ldr	r4, [pc, #24]	; (8007c7c <_sbrk_r+0x1c>)
 8007c64:	2300      	movs	r3, #0
 8007c66:	4605      	mov	r5, r0
 8007c68:	4608      	mov	r0, r1
 8007c6a:	6023      	str	r3, [r4, #0]
 8007c6c:	f000 fb6a 	bl	8008344 <_sbrk>
 8007c70:	1c43      	adds	r3, r0, #1
 8007c72:	d102      	bne.n	8007c7a <_sbrk_r+0x1a>
 8007c74:	6823      	ldr	r3, [r4, #0]
 8007c76:	b103      	cbz	r3, 8007c7a <_sbrk_r+0x1a>
 8007c78:	602b      	str	r3, [r5, #0]
 8007c7a:	bd38      	pop	{r3, r4, r5, pc}
 8007c7c:	20000e18 	.word	0x20000e18

08007c80 <__ssprint_r>:
 8007c80:	6893      	ldr	r3, [r2, #8]
 8007c82:	e92d 4ff7 	stmdb	sp!, {r0, r1, r2, r4, r5, r6, r7, r8, r9, sl, fp, lr}
 8007c86:	4681      	mov	r9, r0
 8007c88:	460c      	mov	r4, r1
 8007c8a:	4617      	mov	r7, r2
 8007c8c:	2b00      	cmp	r3, #0
 8007c8e:	d060      	beq.n	8007d52 <__ssprint_r+0xd2>
 8007c90:	f04f 0b00 	mov.w	fp, #0
 8007c94:	f8d2 a000 	ldr.w	sl, [r2]
 8007c98:	465e      	mov	r6, fp
 8007c9a:	b356      	cbz	r6, 8007cf2 <__ssprint_r+0x72>
 8007c9c:	68a3      	ldr	r3, [r4, #8]
 8007c9e:	429e      	cmp	r6, r3
 8007ca0:	d344      	bcc.n	8007d2c <__ssprint_r+0xac>
 8007ca2:	89a2      	ldrh	r2, [r4, #12]
 8007ca4:	f412 6f90 	tst.w	r2, #1152	; 0x480
 8007ca8:	d03e      	beq.n	8007d28 <__ssprint_r+0xa8>
 8007caa:	6825      	ldr	r5, [r4, #0]
 8007cac:	6921      	ldr	r1, [r4, #16]
 8007cae:	eba5 0801 	sub.w	r8, r5, r1
 8007cb2:	6965      	ldr	r5, [r4, #20]
 8007cb4:	2302      	movs	r3, #2
 8007cb6:	eb05 0545 	add.w	r5, r5, r5, lsl #1
 8007cba:	fb95 f5f3 	sdiv	r5, r5, r3
 8007cbe:	f108 0301 	add.w	r3, r8, #1
 8007cc2:	4433      	add	r3, r6
 8007cc4:	429d      	cmp	r5, r3
 8007cc6:	bf38      	it	cc
 8007cc8:	461d      	movcc	r5, r3
 8007cca:	0553      	lsls	r3, r2, #21
 8007ccc:	d546      	bpl.n	8007d5c <__ssprint_r+0xdc>
 8007cce:	4629      	mov	r1, r5
 8007cd0:	4648      	mov	r0, r9
 8007cd2:	f7ff fac9 	bl	8007268 <_malloc_r>
 8007cd6:	b998      	cbnz	r0, 8007d00 <__ssprint_r+0x80>
 8007cd8:	230c      	movs	r3, #12
 8007cda:	f8c9 3000 	str.w	r3, [r9]
 8007cde:	89a3      	ldrh	r3, [r4, #12]
 8007ce0:	f043 0340 	orr.w	r3, r3, #64	; 0x40
 8007ce4:	81a3      	strh	r3, [r4, #12]
 8007ce6:	2300      	movs	r3, #0
 8007ce8:	60bb      	str	r3, [r7, #8]
 8007cea:	607b      	str	r3, [r7, #4]
 8007cec:	f04f 30ff 	mov.w	r0, #4294967295
 8007cf0:	e031      	b.n	8007d56 <__ssprint_r+0xd6>
 8007cf2:	f8da b000 	ldr.w	fp, [sl]
 8007cf6:	f8da 6004 	ldr.w	r6, [sl, #4]
 8007cfa:	f10a 0a08 	add.w	sl, sl, #8
 8007cfe:	e7cc      	b.n	8007c9a <__ssprint_r+0x1a>
 8007d00:	4642      	mov	r2, r8
 8007d02:	6921      	ldr	r1, [r4, #16]
 8007d04:	9001      	str	r0, [sp, #4]
 8007d06:	f7fd fc33 	bl	8005570 <memcpy>
 8007d0a:	89a2      	ldrh	r2, [r4, #12]
 8007d0c:	9b01      	ldr	r3, [sp, #4]
 8007d0e:	f422 6290 	bic.w	r2, r2, #1152	; 0x480
 8007d12:	f042 0280 	orr.w	r2, r2, #128	; 0x80
 8007d16:	81a2      	strh	r2, [r4, #12]
 8007d18:	6123      	str	r3, [r4, #16]
 8007d1a:	6165      	str	r5, [r4, #20]
 8007d1c:	4443      	add	r3, r8
 8007d1e:	eba5 0508 	sub.w	r5, r5, r8
 8007d22:	6023      	str	r3, [r4, #0]
 8007d24:	60a5      	str	r5, [r4, #8]
 8007d26:	4633      	mov	r3, r6
 8007d28:	429e      	cmp	r6, r3
 8007d2a:	d200      	bcs.n	8007d2e <__ssprint_r+0xae>
 8007d2c:	4633      	mov	r3, r6
 8007d2e:	461a      	mov	r2, r3
 8007d30:	4659      	mov	r1, fp
 8007d32:	6820      	ldr	r0, [r4, #0]
 8007d34:	9301      	str	r3, [sp, #4]
 8007d36:	f000 f96b 	bl	8008010 <memmove>
 8007d3a:	68a2      	ldr	r2, [r4, #8]
 8007d3c:	9b01      	ldr	r3, [sp, #4]
 8007d3e:	1ad2      	subs	r2, r2, r3
 8007d40:	60a2      	str	r2, [r4, #8]
 8007d42:	6822      	ldr	r2, [r4, #0]
 8007d44:	4413      	add	r3, r2
 8007d46:	6023      	str	r3, [r4, #0]
 8007d48:	68bb      	ldr	r3, [r7, #8]
 8007d4a:	1b9e      	subs	r6, r3, r6
 8007d4c:	60be      	str	r6, [r7, #8]
 8007d4e:	2e00      	cmp	r6, #0
 8007d50:	d1cf      	bne.n	8007cf2 <__ssprint_r+0x72>
 8007d52:	2000      	movs	r0, #0
 8007d54:	6078      	str	r0, [r7, #4]
 8007d56:	b003      	add	sp, #12
 8007d58:	e8bd 8ff0 	ldmia.w	sp!, {r4, r5, r6, r7, r8, r9, sl, fp, pc}
 8007d5c:	462a      	mov	r2, r5
 8007d5e:	4648      	mov	r0, r9
 8007d60:	f000 f970 	bl	8008044 <_realloc_r>
 8007d64:	4603      	mov	r3, r0
 8007d66:	2800      	cmp	r0, #0
 8007d68:	d1d6      	bne.n	8007d18 <__ssprint_r+0x98>
 8007d6a:	6921      	ldr	r1, [r4, #16]
 8007d6c:	4648      	mov	r0, r9
 8007d6e:	f000 f891 	bl	8007e94 <_free_r>
 8007d72:	e7b1      	b.n	8007cd8 <__ssprint_r+0x58>

08007d74 <__ascii_wctomb>:
 8007d74:	b149      	cbz	r1, 8007d8a <__ascii_wctomb+0x16>
 8007d76:	2aff      	cmp	r2, #255	; 0xff
 8007d78:	bf85      	ittet	hi
 8007d7a:	238a      	movhi	r3, #138	; 0x8a
 8007d7c:	6003      	strhi	r3, [r0, #0]
 8007d7e:	700a      	strbls	r2, [r1, #0]
 8007d80:	f04f 30ff 	movhi.w	r0, #4294967295
 8007d84:	bf98      	it	ls
 8007d86:	2001      	movls	r0, #1
 8007d88:	4770      	bx	lr
 8007d8a:	4608      	mov	r0, r1
 8007d8c:	4770      	bx	lr

08007d8e <_calloc_r>:
 8007d8e:	b510      	push	{r4, lr}
 8007d90:	4351      	muls	r1, r2
 8007d92:	f7ff fa69 	bl	8007268 <_malloc_r>
 8007d96:	4604      	mov	r4, r0
 8007d98:	b198      	cbz	r0, 8007dc2 <_calloc_r+0x34>
 8007d9a:	f850 2c04 	ldr.w	r2, [r0, #-4]
 8007d9e:	f022 0203 	bic.w	r2, r2, #3
 8007da2:	3a04      	subs	r2, #4
 8007da4:	2a24      	cmp	r2, #36	; 0x24
 8007da6:	d81b      	bhi.n	8007de0 <_calloc_r+0x52>
 8007da8:	2a13      	cmp	r2, #19
 8007daa:	d917      	bls.n	8007ddc <_calloc_r+0x4e>
 8007dac:	2100      	movs	r1, #0
 8007dae:	2a1b      	cmp	r2, #27
 8007db0:	6001      	str	r1, [r0, #0]
 8007db2:	6041      	str	r1, [r0, #4]
 8007db4:	d807      	bhi.n	8007dc6 <_calloc_r+0x38>
 8007db6:	f100 0308 	add.w	r3, r0, #8
 8007dba:	2200      	movs	r2, #0
 8007dbc:	601a      	str	r2, [r3, #0]
 8007dbe:	605a      	str	r2, [r3, #4]
 8007dc0:	609a      	str	r2, [r3, #8]
 8007dc2:	4620      	mov	r0, r4
 8007dc4:	bd10      	pop	{r4, pc}
 8007dc6:	2a24      	cmp	r2, #36	; 0x24
 8007dc8:	6081      	str	r1, [r0, #8]
 8007dca:	60c1      	str	r1, [r0, #12]
 8007dcc:	bf11      	iteee	ne
 8007dce:	f100 0310 	addne.w	r3, r0, #16
 8007dd2:	6101      	streq	r1, [r0, #16]
 8007dd4:	f100 0318 	addeq.w	r3, r0, #24
 8007dd8:	6141      	streq	r1, [r0, #20]
 8007dda:	e7ee      	b.n	8007dba <_calloc_r+0x2c>
 8007ddc:	4603      	mov	r3, r0
 8007dde:	e7ec      	b.n	8007dba <_calloc_r+0x2c>
 8007de0:	2100      	movs	r1, #0
 8007de2:	f7fd fbd0 	bl	8005586 <memset>
 8007de6:	e7ec      	b.n	8007dc2 <_calloc_r+0x34>

08007de8 <_malloc_trim_r>:
 8007de8:	e92d 43f8 	stmdb	sp!, {r3, r4, r5, r6, r7, r8, r9, lr}
 8007dec:	4f25      	ldr	r7, [pc, #148]	; (8007e84 <_malloc_trim_r+0x9c>)
 8007dee:	f8df 80a0 	ldr.w	r8, [pc, #160]	; 8007e90 <_malloc_trim_r+0xa8>
 8007df2:	4689      	mov	r9, r1
 8007df4:	4606      	mov	r6, r0
 8007df6:	f7ff fc57 	bl	80076a8 <__malloc_lock>
 8007dfa:	68bb      	ldr	r3, [r7, #8]
 8007dfc:	685d      	ldr	r5, [r3, #4]
 8007dfe:	f1a8 0411 	sub.w	r4, r8, #17
 8007e02:	f025 0503 	bic.w	r5, r5, #3
 8007e06:	eba4 0409 	sub.w	r4, r4, r9
 8007e0a:	442c      	add	r4, r5
 8007e0c:	fbb4 f4f8 	udiv	r4, r4, r8
 8007e10:	3c01      	subs	r4, #1
 8007e12:	fb08 f404 	mul.w	r4, r8, r4
 8007e16:	4544      	cmp	r4, r8
 8007e18:	da05      	bge.n	8007e26 <_malloc_trim_r+0x3e>
 8007e1a:	4630      	mov	r0, r6
 8007e1c:	f7ff fc4a 	bl	80076b4 <__malloc_unlock>
 8007e20:	2000      	movs	r0, #0
 8007e22:	e8bd 83f8 	ldmia.w	sp!, {r3, r4, r5, r6, r7, r8, r9, pc}
 8007e26:	2100      	movs	r1, #0
 8007e28:	4630      	mov	r0, r6
 8007e2a:	f7ff ff19 	bl	8007c60 <_sbrk_r>
 8007e2e:	68bb      	ldr	r3, [r7, #8]
 8007e30:	442b      	add	r3, r5
 8007e32:	4298      	cmp	r0, r3
 8007e34:	d1f1      	bne.n	8007e1a <_malloc_trim_r+0x32>
 8007e36:	4261      	negs	r1, r4
 8007e38:	4630      	mov	r0, r6
 8007e3a:	f7ff ff11 	bl	8007c60 <_sbrk_r>
 8007e3e:	3001      	adds	r0, #1
 8007e40:	d110      	bne.n	8007e64 <_malloc_trim_r+0x7c>
 8007e42:	2100      	movs	r1, #0
 8007e44:	4630      	mov	r0, r6
 8007e46:	f7ff ff0b 	bl	8007c60 <_sbrk_r>
 8007e4a:	68ba      	ldr	r2, [r7, #8]
 8007e4c:	1a83      	subs	r3, r0, r2
 8007e4e:	2b0f      	cmp	r3, #15
 8007e50:	dde3      	ble.n	8007e1a <_malloc_trim_r+0x32>
 8007e52:	490d      	ldr	r1, [pc, #52]	; (8007e88 <_malloc_trim_r+0xa0>)
 8007e54:	6809      	ldr	r1, [r1, #0]
 8007e56:	1a40      	subs	r0, r0, r1
 8007e58:	490c      	ldr	r1, [pc, #48]	; (8007e8c <_malloc_trim_r+0xa4>)
 8007e5a:	f043 0301 	orr.w	r3, r3, #1
 8007e5e:	6008      	str	r0, [r1, #0]
 8007e60:	6053      	str	r3, [r2, #4]
 8007e62:	e7da      	b.n	8007e1a <_malloc_trim_r+0x32>
 8007e64:	68bb      	ldr	r3, [r7, #8]
 8007e66:	4a09      	ldr	r2, [pc, #36]	; (8007e8c <_malloc_trim_r+0xa4>)
 8007e68:	1b2d      	subs	r5, r5, r4
 8007e6a:	f045 0501 	orr.w	r5, r5, #1
 8007e6e:	605d      	str	r5, [r3, #4]
 8007e70:	6813      	ldr	r3, [r2, #0]
 8007e72:	4630      	mov	r0, r6
 8007e74:	1b1c      	subs	r4, r3, r4
 8007e76:	6014      	str	r4, [r2, #0]
 8007e78:	f7ff fc1c 	bl	80076b4 <__malloc_unlock>
 8007e7c:	2001      	movs	r0, #1
 8007e7e:	e8bd 83f8 	ldmia.w	sp!, {r3, r4, r5, r6, r7, r8, r9, pc}
 8007e82:	bf00      	nop
 8007e84:	2000026c 	.word	0x2000026c
 8007e88:	20000674 	.word	0x20000674
 8007e8c:	200006a0 	.word	0x200006a0
 8007e90:	00000080 	.word	0x00000080

08007e94 <_free_r>:
 8007e94:	e92d 41f0 	stmdb	sp!, {r4, r5, r6, r7, r8, lr}
 8007e98:	4604      	mov	r4, r0
 8007e9a:	4688      	mov	r8, r1
 8007e9c:	2900      	cmp	r1, #0
 8007e9e:	f000 80ab 	beq.w	8007ff8 <_free_r+0x164>
 8007ea2:	f7ff fc01 	bl	80076a8 <__malloc_lock>
 8007ea6:	f858 2c04 	ldr.w	r2, [r8, #-4]
 8007eaa:	4d54      	ldr	r5, [pc, #336]	; (8007ffc <_free_r+0x168>)
 8007eac:	f022 0001 	bic.w	r0, r2, #1
 8007eb0:	f1a8 0308 	sub.w	r3, r8, #8
 8007eb4:	181f      	adds	r7, r3, r0
 8007eb6:	68a9      	ldr	r1, [r5, #8]
 8007eb8:	687e      	ldr	r6, [r7, #4]
 8007eba:	428f      	cmp	r7, r1
 8007ebc:	f026 0603 	bic.w	r6, r6, #3
 8007ec0:	f002 0201 	and.w	r2, r2, #1
 8007ec4:	d11b      	bne.n	8007efe <_free_r+0x6a>
 8007ec6:	4430      	add	r0, r6
 8007ec8:	b93a      	cbnz	r2, 8007eda <_free_r+0x46>
 8007eca:	f858 2c08 	ldr.w	r2, [r8, #-8]
 8007ece:	1a9b      	subs	r3, r3, r2
 8007ed0:	4410      	add	r0, r2
 8007ed2:	6899      	ldr	r1, [r3, #8]
 8007ed4:	68da      	ldr	r2, [r3, #12]
 8007ed6:	60ca      	str	r2, [r1, #12]
 8007ed8:	6091      	str	r1, [r2, #8]
 8007eda:	f040 0201 	orr.w	r2, r0, #1
 8007ede:	605a      	str	r2, [r3, #4]
 8007ee0:	60ab      	str	r3, [r5, #8]
 8007ee2:	4b47      	ldr	r3, [pc, #284]	; (8008000 <_free_r+0x16c>)
 8007ee4:	681b      	ldr	r3, [r3, #0]
 8007ee6:	4298      	cmp	r0, r3
 8007ee8:	d304      	bcc.n	8007ef4 <_free_r+0x60>
 8007eea:	4b46      	ldr	r3, [pc, #280]	; (8008004 <_free_r+0x170>)
 8007eec:	4620      	mov	r0, r4
 8007eee:	6819      	ldr	r1, [r3, #0]
 8007ef0:	f7ff ff7a 	bl	8007de8 <_malloc_trim_r>
 8007ef4:	4620      	mov	r0, r4
 8007ef6:	e8bd 41f0 	ldmia.w	sp!, {r4, r5, r6, r7, r8, lr}
 8007efa:	f7ff bbdb 	b.w	80076b4 <__malloc_unlock>
 8007efe:	607e      	str	r6, [r7, #4]
 8007f00:	2a00      	cmp	r2, #0
 8007f02:	d139      	bne.n	8007f78 <_free_r+0xe4>
 8007f04:	f858 1c08 	ldr.w	r1, [r8, #-8]
 8007f08:	1a5b      	subs	r3, r3, r1
 8007f0a:	4408      	add	r0, r1
 8007f0c:	6899      	ldr	r1, [r3, #8]
 8007f0e:	f105 0e08 	add.w	lr, r5, #8
 8007f12:	4571      	cmp	r1, lr
 8007f14:	d032      	beq.n	8007f7c <_free_r+0xe8>
 8007f16:	f8d3 e00c 	ldr.w	lr, [r3, #12]
 8007f1a:	f8c1 e00c 	str.w	lr, [r1, #12]
 8007f1e:	f8ce 1008 	str.w	r1, [lr, #8]
 8007f22:	19b9      	adds	r1, r7, r6
 8007f24:	6849      	ldr	r1, [r1, #4]
 8007f26:	07c9      	lsls	r1, r1, #31
 8007f28:	d40a      	bmi.n	8007f40 <_free_r+0xac>
 8007f2a:	4430      	add	r0, r6
 8007f2c:	68b9      	ldr	r1, [r7, #8]
 8007f2e:	bb3a      	cbnz	r2, 8007f80 <_free_r+0xec>
 8007f30:	4e35      	ldr	r6, [pc, #212]	; (8008008 <_free_r+0x174>)
 8007f32:	42b1      	cmp	r1, r6
 8007f34:	d124      	bne.n	8007f80 <_free_r+0xec>
 8007f36:	616b      	str	r3, [r5, #20]
 8007f38:	612b      	str	r3, [r5, #16]
 8007f3a:	2201      	movs	r2, #1
 8007f3c:	60d9      	str	r1, [r3, #12]
 8007f3e:	6099      	str	r1, [r3, #8]
 8007f40:	f040 0101 	orr.w	r1, r0, #1
 8007f44:	6059      	str	r1, [r3, #4]
 8007f46:	5018      	str	r0, [r3, r0]
 8007f48:	2a00      	cmp	r2, #0
 8007f4a:	d1d3      	bne.n	8007ef4 <_free_r+0x60>
 8007f4c:	f5b0 7f00 	cmp.w	r0, #512	; 0x200
 8007f50:	d21a      	bcs.n	8007f88 <_free_r+0xf4>
 8007f52:	08c0      	lsrs	r0, r0, #3
 8007f54:	1081      	asrs	r1, r0, #2
 8007f56:	2201      	movs	r2, #1
 8007f58:	408a      	lsls	r2, r1
 8007f5a:	6869      	ldr	r1, [r5, #4]
 8007f5c:	3001      	adds	r0, #1
 8007f5e:	430a      	orrs	r2, r1
 8007f60:	606a      	str	r2, [r5, #4]
 8007f62:	eb05 02c0 	add.w	r2, r5, r0, lsl #3
 8007f66:	f855 1030 	ldr.w	r1, [r5, r0, lsl #3]
 8007f6a:	6099      	str	r1, [r3, #8]
 8007f6c:	3a08      	subs	r2, #8
 8007f6e:	60da      	str	r2, [r3, #12]
 8007f70:	f845 3030 	str.w	r3, [r5, r0, lsl #3]
 8007f74:	60cb      	str	r3, [r1, #12]
 8007f76:	e7bd      	b.n	8007ef4 <_free_r+0x60>
 8007f78:	2200      	movs	r2, #0
 8007f7a:	e7d2      	b.n	8007f22 <_free_r+0x8e>
 8007f7c:	2201      	movs	r2, #1
 8007f7e:	e7d0      	b.n	8007f22 <_free_r+0x8e>
 8007f80:	68fe      	ldr	r6, [r7, #12]
 8007f82:	60ce      	str	r6, [r1, #12]
 8007f84:	60b1      	str	r1, [r6, #8]
 8007f86:	e7db      	b.n	8007f40 <_free_r+0xac>
 8007f88:	0a42      	lsrs	r2, r0, #9
 8007f8a:	2a04      	cmp	r2, #4
 8007f8c:	d813      	bhi.n	8007fb6 <_free_r+0x122>
 8007f8e:	0982      	lsrs	r2, r0, #6
 8007f90:	3238      	adds	r2, #56	; 0x38
 8007f92:	1c51      	adds	r1, r2, #1
 8007f94:	eb05 06c2 	add.w	r6, r5, r2, lsl #3
 8007f98:	f855 1031 	ldr.w	r1, [r5, r1, lsl #3]
 8007f9c:	428e      	cmp	r6, r1
 8007f9e:	d124      	bne.n	8007fea <_free_r+0x156>
 8007fa0:	2001      	movs	r0, #1
 8007fa2:	1092      	asrs	r2, r2, #2
 8007fa4:	fa00 f202 	lsl.w	r2, r0, r2
 8007fa8:	6868      	ldr	r0, [r5, #4]
 8007faa:	4302      	orrs	r2, r0
 8007fac:	606a      	str	r2, [r5, #4]
 8007fae:	60de      	str	r6, [r3, #12]
 8007fb0:	6099      	str	r1, [r3, #8]
 8007fb2:	60b3      	str	r3, [r6, #8]
 8007fb4:	e7de      	b.n	8007f74 <_free_r+0xe0>
 8007fb6:	2a14      	cmp	r2, #20
 8007fb8:	d801      	bhi.n	8007fbe <_free_r+0x12a>
 8007fba:	325b      	adds	r2, #91	; 0x5b
 8007fbc:	e7e9      	b.n	8007f92 <_free_r+0xfe>
 8007fbe:	2a54      	cmp	r2, #84	; 0x54
 8007fc0:	d802      	bhi.n	8007fc8 <_free_r+0x134>
 8007fc2:	0b02      	lsrs	r2, r0, #12
 8007fc4:	326e      	adds	r2, #110	; 0x6e
 8007fc6:	e7e4      	b.n	8007f92 <_free_r+0xfe>
 8007fc8:	f5b2 7faa 	cmp.w	r2, #340	; 0x154
 8007fcc:	d802      	bhi.n	8007fd4 <_free_r+0x140>
 8007fce:	0bc2      	lsrs	r2, r0, #15
 8007fd0:	3277      	adds	r2, #119	; 0x77
 8007fd2:	e7de      	b.n	8007f92 <_free_r+0xfe>
 8007fd4:	f240 5154 	movw	r1, #1364	; 0x554
 8007fd8:	428a      	cmp	r2, r1
 8007fda:	bf9a      	itte	ls
 8007fdc:	0c82      	lsrls	r2, r0, #18
 8007fde:	327c      	addls	r2, #124	; 0x7c
 8007fe0:	227e      	movhi	r2, #126	; 0x7e
 8007fe2:	e7d6      	b.n	8007f92 <_free_r+0xfe>
 8007fe4:	6889      	ldr	r1, [r1, #8]
 8007fe6:	428e      	cmp	r6, r1
 8007fe8:	d004      	beq.n	8007ff4 <_free_r+0x160>
 8007fea:	684a      	ldr	r2, [r1, #4]
 8007fec:	f022 0203 	bic.w	r2, r2, #3
 8007ff0:	4290      	cmp	r0, r2
 8007ff2:	d3f7      	bcc.n	8007fe4 <_free_r+0x150>
 8007ff4:	68ce      	ldr	r6, [r1, #12]
 8007ff6:	e7da      	b.n	8007fae <_free_r+0x11a>
 8007ff8:	e8bd 81f0 	ldmia.w	sp!, {r4, r5, r6, r7, r8, pc}
 8007ffc:	2000026c 	.word	0x2000026c
 8008000:	20000678 	.word	0x20000678
 8008004:	200006d0 	.word	0x200006d0
 8008008:	20000274 	.word	0x20000274

0800800c <__retarget_lock_acquire_recursive>:
 800800c:	4770      	bx	lr

0800800e <__retarget_lock_release_recursive>:
 800800e:	4770      	bx	lr

08008010 <memmove>:
 8008010:	4288      	cmp	r0, r1
 8008012:	b510      	push	{r4, lr}
 8008014:	eb01 0302 	add.w	r3, r1, r2
 8008018:	d803      	bhi.n	8008022 <memmove+0x12>
 800801a:	1e42      	subs	r2, r0, #1
 800801c:	4299      	cmp	r1, r3
 800801e:	d10c      	bne.n	800803a <memmove+0x2a>
 8008020:	bd10      	pop	{r4, pc}
 8008022:	4298      	cmp	r0, r3
 8008024:	d2f9      	bcs.n	800801a <memmove+0xa>
 8008026:	1881      	adds	r1, r0, r2
 8008028:	1ad2      	subs	r2, r2, r3
 800802a:	42d3      	cmn	r3, r2
 800802c:	d100      	bne.n	8008030 <memmove+0x20>
 800802e:	bd10      	pop	{r4, pc}
 8008030:	f813 4d01 	ldrb.w	r4, [r3, #-1]!
 8008034:	f801 4d01 	strb.w	r4, [r1, #-1]!
 8008038:	e7f7      	b.n	800802a <memmove+0x1a>
 800803a:	f811 4b01 	ldrb.w	r4, [r1], #1
 800803e:	f802 4f01 	strb.w	r4, [r2, #1]!
 8008042:	e7eb      	b.n	800801c <memmove+0xc>

08008044 <_realloc_r>:
 8008044:	e92d 4ff7 	stmdb	sp!, {r0, r1, r2, r4, r5, r6, r7, r8, r9, sl, fp, lr}
 8008048:	4682      	mov	sl, r0
 800804a:	460c      	mov	r4, r1
 800804c:	b929      	cbnz	r1, 800805a <_realloc_r+0x16>
 800804e:	4611      	mov	r1, r2
 8008050:	b003      	add	sp, #12
 8008052:	e8bd 4ff0 	ldmia.w	sp!, {r4, r5, r6, r7, r8, r9, sl, fp, lr}
 8008056:	f7ff b907 	b.w	8007268 <_malloc_r>
 800805a:	9201      	str	r2, [sp, #4]
 800805c:	f7ff fb24 	bl	80076a8 <__malloc_lock>
 8008060:	9a01      	ldr	r2, [sp, #4]
 8008062:	f854 5c04 	ldr.w	r5, [r4, #-4]
 8008066:	f102 080b 	add.w	r8, r2, #11
 800806a:	f1b8 0f16 	cmp.w	r8, #22
 800806e:	f1a4 0908 	sub.w	r9, r4, #8
 8008072:	f025 0603 	bic.w	r6, r5, #3
 8008076:	d90a      	bls.n	800808e <_realloc_r+0x4a>
 8008078:	f038 0807 	bics.w	r8, r8, #7
 800807c:	d509      	bpl.n	8008092 <_realloc_r+0x4e>
 800807e:	230c      	movs	r3, #12
 8008080:	f8ca 3000 	str.w	r3, [sl]
 8008084:	2700      	movs	r7, #0
 8008086:	4638      	mov	r0, r7
 8008088:	b003      	add	sp, #12
 800808a:	e8bd 8ff0 	ldmia.w	sp!, {r4, r5, r6, r7, r8, r9, sl, fp, pc}
 800808e:	f04f 0810 	mov.w	r8, #16
 8008092:	4590      	cmp	r8, r2
 8008094:	d3f3      	bcc.n	800807e <_realloc_r+0x3a>
 8008096:	45b0      	cmp	r8, r6
 8008098:	f340 8145 	ble.w	8008326 <_realloc_r+0x2e2>
 800809c:	4ba8      	ldr	r3, [pc, #672]	; (8008340 <_realloc_r+0x2fc>)
 800809e:	f8d3 e008 	ldr.w	lr, [r3, #8]
 80080a2:	eb09 0106 	add.w	r1, r9, r6
 80080a6:	4571      	cmp	r1, lr
 80080a8:	469b      	mov	fp, r3
 80080aa:	684b      	ldr	r3, [r1, #4]
 80080ac:	d005      	beq.n	80080ba <_realloc_r+0x76>
 80080ae:	f023 0001 	bic.w	r0, r3, #1
 80080b2:	4408      	add	r0, r1
 80080b4:	6840      	ldr	r0, [r0, #4]
 80080b6:	07c7      	lsls	r7, r0, #31
 80080b8:	d447      	bmi.n	800814a <_realloc_r+0x106>
 80080ba:	f023 0303 	bic.w	r3, r3, #3
 80080be:	4571      	cmp	r1, lr
 80080c0:	eb06 0703 	add.w	r7, r6, r3
 80080c4:	d119      	bne.n	80080fa <_realloc_r+0xb6>
 80080c6:	f108 0010 	add.w	r0, r8, #16
 80080ca:	4287      	cmp	r7, r0
 80080cc:	db3f      	blt.n	800814e <_realloc_r+0x10a>
 80080ce:	eb09 0308 	add.w	r3, r9, r8
 80080d2:	eba7 0708 	sub.w	r7, r7, r8
 80080d6:	f047 0701 	orr.w	r7, r7, #1
 80080da:	f8cb 3008 	str.w	r3, [fp, #8]
 80080de:	605f      	str	r7, [r3, #4]
 80080e0:	f854 3c04 	ldr.w	r3, [r4, #-4]
 80080e4:	f003 0301 	and.w	r3, r3, #1
 80080e8:	ea43 0308 	orr.w	r3, r3, r8
 80080ec:	f844 3c04 	str.w	r3, [r4, #-4]
 80080f0:	4650      	mov	r0, sl
 80080f2:	f7ff fadf 	bl	80076b4 <__malloc_unlock>
 80080f6:	4627      	mov	r7, r4
 80080f8:	e7c5      	b.n	8008086 <_realloc_r+0x42>
 80080fa:	45b8      	cmp	r8, r7
 80080fc:	dc27      	bgt.n	800814e <_realloc_r+0x10a>
 80080fe:	68cb      	ldr	r3, [r1, #12]
 8008100:	688a      	ldr	r2, [r1, #8]
 8008102:	60d3      	str	r3, [r2, #12]
 8008104:	609a      	str	r2, [r3, #8]
 8008106:	eba7 0008 	sub.w	r0, r7, r8
 800810a:	280f      	cmp	r0, #15
 800810c:	f8d9 3004 	ldr.w	r3, [r9, #4]
 8008110:	eb09 0207 	add.w	r2, r9, r7
 8008114:	f240 8109 	bls.w	800832a <_realloc_r+0x2e6>
 8008118:	eb09 0108 	add.w	r1, r9, r8
 800811c:	f003 0301 	and.w	r3, r3, #1
 8008120:	ea43 0308 	orr.w	r3, r3, r8
 8008124:	f040 0001 	orr.w	r0, r0, #1
 8008128:	f8c9 3004 	str.w	r3, [r9, #4]
 800812c:	6048      	str	r0, [r1, #4]
 800812e:	6853      	ldr	r3, [r2, #4]
 8008130:	f043 0301 	orr.w	r3, r3, #1
 8008134:	6053      	str	r3, [r2, #4]
 8008136:	3108      	adds	r1, #8
 8008138:	4650      	mov	r0, sl
 800813a:	f7ff feab 	bl	8007e94 <_free_r>
 800813e:	4650      	mov	r0, sl
 8008140:	f7ff fab8 	bl	80076b4 <__malloc_unlock>
 8008144:	f109 0708 	add.w	r7, r9, #8
 8008148:	e79d      	b.n	8008086 <_realloc_r+0x42>
 800814a:	2300      	movs	r3, #0
 800814c:	4619      	mov	r1, r3
 800814e:	07e8      	lsls	r0, r5, #31
 8008150:	f100 8084 	bmi.w	800825c <_realloc_r+0x218>
 8008154:	f854 5c08 	ldr.w	r5, [r4, #-8]
 8008158:	eba9 0505 	sub.w	r5, r9, r5
 800815c:	6868      	ldr	r0, [r5, #4]
 800815e:	f020 0003 	bic.w	r0, r0, #3
 8008162:	4430      	add	r0, r6
 8008164:	2900      	cmp	r1, #0
 8008166:	d076      	beq.n	8008256 <_realloc_r+0x212>
 8008168:	4571      	cmp	r1, lr
 800816a:	d150      	bne.n	800820e <_realloc_r+0x1ca>
 800816c:	4403      	add	r3, r0
 800816e:	f108 0110 	add.w	r1, r8, #16
 8008172:	428b      	cmp	r3, r1
 8008174:	db6f      	blt.n	8008256 <_realloc_r+0x212>
 8008176:	462f      	mov	r7, r5
 8008178:	68ea      	ldr	r2, [r5, #12]
 800817a:	f857 1f08 	ldr.w	r1, [r7, #8]!
 800817e:	60ca      	str	r2, [r1, #12]
 8008180:	6091      	str	r1, [r2, #8]
 8008182:	1f32      	subs	r2, r6, #4
 8008184:	2a24      	cmp	r2, #36	; 0x24
 8008186:	d83b      	bhi.n	8008200 <_realloc_r+0x1bc>
 8008188:	2a13      	cmp	r2, #19
 800818a:	d936      	bls.n	80081fa <_realloc_r+0x1b6>
 800818c:	6821      	ldr	r1, [r4, #0]
 800818e:	60a9      	str	r1, [r5, #8]
 8008190:	6861      	ldr	r1, [r4, #4]
 8008192:	60e9      	str	r1, [r5, #12]
 8008194:	2a1b      	cmp	r2, #27
 8008196:	d81c      	bhi.n	80081d2 <_realloc_r+0x18e>
 8008198:	f105 0210 	add.w	r2, r5, #16
 800819c:	f104 0108 	add.w	r1, r4, #8
 80081a0:	6808      	ldr	r0, [r1, #0]
 80081a2:	6010      	str	r0, [r2, #0]
 80081a4:	6848      	ldr	r0, [r1, #4]
 80081a6:	6050      	str	r0, [r2, #4]
 80081a8:	6889      	ldr	r1, [r1, #8]
 80081aa:	6091      	str	r1, [r2, #8]
 80081ac:	eb05 0208 	add.w	r2, r5, r8
 80081b0:	eba3 0308 	sub.w	r3, r3, r8
 80081b4:	f043 0301 	orr.w	r3, r3, #1
 80081b8:	f8cb 2008 	str.w	r2, [fp, #8]
 80081bc:	6053      	str	r3, [r2, #4]
 80081be:	686b      	ldr	r3, [r5, #4]
 80081c0:	f003 0301 	and.w	r3, r3, #1
 80081c4:	ea43 0308 	orr.w	r3, r3, r8
 80081c8:	606b      	str	r3, [r5, #4]
 80081ca:	4650      	mov	r0, sl
 80081cc:	f7ff fa72 	bl	80076b4 <__malloc_unlock>
 80081d0:	e759      	b.n	8008086 <_realloc_r+0x42>
 80081d2:	68a1      	ldr	r1, [r4, #8]
 80081d4:	6129      	str	r1, [r5, #16]
 80081d6:	68e1      	ldr	r1, [r4, #12]
 80081d8:	6169      	str	r1, [r5, #20]
 80081da:	2a24      	cmp	r2, #36	; 0x24
 80081dc:	bf01      	itttt	eq
 80081de:	6922      	ldreq	r2, [r4, #16]
 80081e0:	61aa      	streq	r2, [r5, #24]
 80081e2:	6960      	ldreq	r0, [r4, #20]
 80081e4:	61e8      	streq	r0, [r5, #28]
 80081e6:	bf19      	ittee	ne
 80081e8:	f105 0218 	addne.w	r2, r5, #24
 80081ec:	f104 0110 	addne.w	r1, r4, #16
 80081f0:	f105 0220 	addeq.w	r2, r5, #32
 80081f4:	f104 0118 	addeq.w	r1, r4, #24
 80081f8:	e7d2      	b.n	80081a0 <_realloc_r+0x15c>
 80081fa:	463a      	mov	r2, r7
 80081fc:	4621      	mov	r1, r4
 80081fe:	e7cf      	b.n	80081a0 <_realloc_r+0x15c>
 8008200:	4621      	mov	r1, r4
 8008202:	4638      	mov	r0, r7
 8008204:	9301      	str	r3, [sp, #4]
 8008206:	f7ff ff03 	bl	8008010 <memmove>
 800820a:	9b01      	ldr	r3, [sp, #4]
 800820c:	e7ce      	b.n	80081ac <_realloc_r+0x168>
 800820e:	18c7      	adds	r7, r0, r3
 8008210:	45b8      	cmp	r8, r7
 8008212:	dc20      	bgt.n	8008256 <_realloc_r+0x212>
 8008214:	68cb      	ldr	r3, [r1, #12]
 8008216:	688a      	ldr	r2, [r1, #8]
 8008218:	60d3      	str	r3, [r2, #12]
 800821a:	609a      	str	r2, [r3, #8]
 800821c:	4628      	mov	r0, r5
 800821e:	68eb      	ldr	r3, [r5, #12]
 8008220:	f850 2f08 	ldr.w	r2, [r0, #8]!
 8008224:	60d3      	str	r3, [r2, #12]
 8008226:	609a      	str	r2, [r3, #8]
 8008228:	1f32      	subs	r2, r6, #4
 800822a:	2a24      	cmp	r2, #36	; 0x24
 800822c:	d842      	bhi.n	80082b4 <_realloc_r+0x270>
 800822e:	2a13      	cmp	r2, #19
 8008230:	d93e      	bls.n	80082b0 <_realloc_r+0x26c>
 8008232:	6823      	ldr	r3, [r4, #0]
 8008234:	60ab      	str	r3, [r5, #8]
 8008236:	6863      	ldr	r3, [r4, #4]
 8008238:	60eb      	str	r3, [r5, #12]
 800823a:	2a1b      	cmp	r2, #27
 800823c:	d824      	bhi.n	8008288 <_realloc_r+0x244>
 800823e:	f105 0010 	add.w	r0, r5, #16
 8008242:	f104 0308 	add.w	r3, r4, #8
 8008246:	681a      	ldr	r2, [r3, #0]
 8008248:	6002      	str	r2, [r0, #0]
 800824a:	685a      	ldr	r2, [r3, #4]
 800824c:	6042      	str	r2, [r0, #4]
 800824e:	689b      	ldr	r3, [r3, #8]
 8008250:	6083      	str	r3, [r0, #8]
 8008252:	46a9      	mov	r9, r5
 8008254:	e757      	b.n	8008106 <_realloc_r+0xc2>
 8008256:	4580      	cmp	r8, r0
 8008258:	4607      	mov	r7, r0
 800825a:	dddf      	ble.n	800821c <_realloc_r+0x1d8>
 800825c:	4611      	mov	r1, r2
 800825e:	4650      	mov	r0, sl
 8008260:	f7ff f802 	bl	8007268 <_malloc_r>
 8008264:	4607      	mov	r7, r0
 8008266:	2800      	cmp	r0, #0
 8008268:	d0af      	beq.n	80081ca <_realloc_r+0x186>
 800826a:	f854 3c04 	ldr.w	r3, [r4, #-4]
 800826e:	f023 0301 	bic.w	r3, r3, #1
 8008272:	f1a0 0208 	sub.w	r2, r0, #8
 8008276:	444b      	add	r3, r9
 8008278:	429a      	cmp	r2, r3
 800827a:	d11f      	bne.n	80082bc <_realloc_r+0x278>
 800827c:	f850 7c04 	ldr.w	r7, [r0, #-4]
 8008280:	f027 0703 	bic.w	r7, r7, #3
 8008284:	4437      	add	r7, r6
 8008286:	e73e      	b.n	8008106 <_realloc_r+0xc2>
 8008288:	68a3      	ldr	r3, [r4, #8]
 800828a:	612b      	str	r3, [r5, #16]
 800828c:	68e3      	ldr	r3, [r4, #12]
 800828e:	616b      	str	r3, [r5, #20]
 8008290:	2a24      	cmp	r2, #36	; 0x24
 8008292:	bf01      	itttt	eq
 8008294:	6923      	ldreq	r3, [r4, #16]
 8008296:	61ab      	streq	r3, [r5, #24]
 8008298:	6962      	ldreq	r2, [r4, #20]
 800829a:	61ea      	streq	r2, [r5, #28]
 800829c:	bf19      	ittee	ne
 800829e:	f105 0018 	addne.w	r0, r5, #24
 80082a2:	f104 0310 	addne.w	r3, r4, #16
 80082a6:	f105 0020 	addeq.w	r0, r5, #32
 80082aa:	f104 0318 	addeq.w	r3, r4, #24
 80082ae:	e7ca      	b.n	8008246 <_realloc_r+0x202>
 80082b0:	4623      	mov	r3, r4
 80082b2:	e7c8      	b.n	8008246 <_realloc_r+0x202>
 80082b4:	4621      	mov	r1, r4
 80082b6:	f7ff feab 	bl	8008010 <memmove>
 80082ba:	e7ca      	b.n	8008252 <_realloc_r+0x20e>
 80082bc:	1f32      	subs	r2, r6, #4
 80082be:	2a24      	cmp	r2, #36	; 0x24
 80082c0:	d82d      	bhi.n	800831e <_realloc_r+0x2da>
 80082c2:	2a13      	cmp	r2, #19
 80082c4:	d928      	bls.n	8008318 <_realloc_r+0x2d4>
 80082c6:	6823      	ldr	r3, [r4, #0]
 80082c8:	6003      	str	r3, [r0, #0]
 80082ca:	6863      	ldr	r3, [r4, #4]
 80082cc:	6043      	str	r3, [r0, #4]
 80082ce:	2a1b      	cmp	r2, #27
 80082d0:	d80e      	bhi.n	80082f0 <_realloc_r+0x2ac>
 80082d2:	f100 0308 	add.w	r3, r0, #8
 80082d6:	f104 0208 	add.w	r2, r4, #8
 80082da:	6811      	ldr	r1, [r2, #0]
 80082dc:	6019      	str	r1, [r3, #0]
 80082de:	6851      	ldr	r1, [r2, #4]
 80082e0:	6059      	str	r1, [r3, #4]
 80082e2:	6892      	ldr	r2, [r2, #8]
 80082e4:	609a      	str	r2, [r3, #8]
 80082e6:	4621      	mov	r1, r4
 80082e8:	4650      	mov	r0, sl
 80082ea:	f7ff fdd3 	bl	8007e94 <_free_r>
 80082ee:	e76c      	b.n	80081ca <_realloc_r+0x186>
 80082f0:	68a3      	ldr	r3, [r4, #8]
 80082f2:	6083      	str	r3, [r0, #8]
 80082f4:	68e3      	ldr	r3, [r4, #12]
 80082f6:	60c3      	str	r3, [r0, #12]
 80082f8:	2a24      	cmp	r2, #36	; 0x24
 80082fa:	bf01      	itttt	eq
 80082fc:	6923      	ldreq	r3, [r4, #16]
 80082fe:	6103      	streq	r3, [r0, #16]
 8008300:	6961      	ldreq	r1, [r4, #20]
 8008302:	6141      	streq	r1, [r0, #20]
 8008304:	bf19      	ittee	ne
 8008306:	f100 0310 	addne.w	r3, r0, #16
 800830a:	f104 0210 	addne.w	r2, r4, #16
 800830e:	f100 0318 	addeq.w	r3, r0, #24
 8008312:	f104 0218 	addeq.w	r2, r4, #24
 8008316:	e7e0      	b.n	80082da <_realloc_r+0x296>
 8008318:	4603      	mov	r3, r0
 800831a:	4622      	mov	r2, r4
 800831c:	e7dd      	b.n	80082da <_realloc_r+0x296>
 800831e:	4621      	mov	r1, r4
 8008320:	f7ff fe76 	bl	8008010 <memmove>
 8008324:	e7df      	b.n	80082e6 <_realloc_r+0x2a2>
 8008326:	4637      	mov	r7, r6
 8008328:	e6ed      	b.n	8008106 <_realloc_r+0xc2>
 800832a:	f003 0301 	and.w	r3, r3, #1
 800832e:	431f      	orrs	r7, r3
 8008330:	f8c9 7004 	str.w	r7, [r9, #4]
 8008334:	6853      	ldr	r3, [r2, #4]
 8008336:	f043 0301 	orr.w	r3, r3, #1
 800833a:	6053      	str	r3, [r2, #4]
 800833c:	e6ff      	b.n	800813e <_realloc_r+0xfa>
 800833e:	bf00      	nop
 8008340:	2000026c 	.word	0x2000026c

08008344 <_sbrk>:
 8008344:	4b04      	ldr	r3, [pc, #16]	; (8008358 <_sbrk+0x14>)
 8008346:	6819      	ldr	r1, [r3, #0]
 8008348:	4602      	mov	r2, r0
 800834a:	b909      	cbnz	r1, 8008350 <_sbrk+0xc>
 800834c:	4903      	ldr	r1, [pc, #12]	; (800835c <_sbrk+0x18>)
 800834e:	6019      	str	r1, [r3, #0]
 8008350:	6818      	ldr	r0, [r3, #0]
 8008352:	4402      	add	r2, r0
 8008354:	601a      	str	r2, [r3, #0]
 8008356:	4770      	bx	lr
 8008358:	200006d4 	.word	0x200006d4
 800835c:	20000e28 	.word	0x20000e28

08008360 <_init>:
 8008360:	b5f8      	push	{r3, r4, r5, r6, r7, lr}
 8008362:	bf00      	nop
 8008364:	bcf8      	pop	{r3, r4, r5, r6, r7}
 8008366:	bc08      	pop	{r3}
 8008368:	469e      	mov	lr, r3
 800836a:	4770      	bx	lr

0800836c <_fini>:
 800836c:	b5f8      	push	{r3, r4, r5, r6, r7, lr}
 800836e:	bf00      	nop
 8008370:	bcf8      	pop	{r3, r4, r5, r6, r7}
 8008372:	bc08      	pop	{r3}
 8008374:	469e      	mov	lr, r3
 8008376:	4770      	bx	lr
